
OscillatorController.elf:     file format elf32-avr

Sections:
Idx Name          Size      VMA       LMA       File off  Algn
  0 .data         00000126  00800200  00007928  000079bc  2**0
                  CONTENTS, ALLOC, LOAD, DATA
  1 .text         00007928  00000000  00000000  00000094  2**1
                  CONTENTS, ALLOC, LOAD, READONLY, CODE
  2 .bss          0000041c  00800326  00800326  00007ae2  2**0
                  ALLOC
  3 .comment      00000030  00000000  00000000  00007ae2  2**0
                  CONTENTS, READONLY
  4 .note.gnu.avr.deviceinfo 00000040  00000000  00000000  00007b14  2**2
                  CONTENTS, READONLY
  5 .debug_aranges 00000890  00000000  00000000  00007b54  2**0
                  CONTENTS, READONLY, DEBUGGING
  6 .debug_info   000254a1  00000000  00000000  000083e4  2**0
                  CONTENTS, READONLY, DEBUGGING
  7 .debug_abbrev 0000377b  00000000  00000000  0002d885  2**0
                  CONTENTS, READONLY, DEBUGGING
  8 .debug_line   00007504  00000000  00000000  00031000  2**0
                  CONTENTS, READONLY, DEBUGGING
  9 .debug_frame  00002114  00000000  00000000  00038504  2**2
                  CONTENTS, READONLY, DEBUGGING
 10 .debug_str    000035c7  00000000  00000000  0003a618  2**0
                  CONTENTS, READONLY, DEBUGGING
 11 .debug_loc    0000d566  00000000  00000000  0003dbdf  2**0
                  CONTENTS, READONLY, DEBUGGING
 12 .debug_ranges 00000880  00000000  00000000  0004b145  2**0
                  CONTENTS, READONLY, DEBUGGING

Disassembly of section .text:

00000000 <__vectors>:
       0:	0c 94 96 09 	jmp	0x132c	; 0x132c <__dtors_end>
       4:	0c 94 c7 09 	jmp	0x138e	; 0x138e <__bad_interrupt>
       8:	0c 94 c7 09 	jmp	0x138e	; 0x138e <__bad_interrupt>
       c:	0c 94 c7 09 	jmp	0x138e	; 0x138e <__bad_interrupt>
      10:	0c 94 c7 09 	jmp	0x138e	; 0x138e <__bad_interrupt>
      14:	0c 94 c7 09 	jmp	0x138e	; 0x138e <__bad_interrupt>
      18:	0c 94 c7 09 	jmp	0x138e	; 0x138e <__bad_interrupt>
      1c:	0c 94 c7 09 	jmp	0x138e	; 0x138e <__bad_interrupt>
      20:	0c 94 c7 09 	jmp	0x138e	; 0x138e <__bad_interrupt>
      24:	0c 94 c7 09 	jmp	0x138e	; 0x138e <__bad_interrupt>
      28:	0c 94 c7 09 	jmp	0x138e	; 0x138e <__bad_interrupt>
      2c:	0c 94 c7 09 	jmp	0x138e	; 0x138e <__bad_interrupt>
      30:	0c 94 c7 09 	jmp	0x138e	; 0x138e <__bad_interrupt>
      34:	0c 94 c7 09 	jmp	0x138e	; 0x138e <__bad_interrupt>
      38:	0c 94 c7 09 	jmp	0x138e	; 0x138e <__bad_interrupt>
      3c:	0c 94 c7 09 	jmp	0x138e	; 0x138e <__bad_interrupt>
      40:	0c 94 c7 09 	jmp	0x138e	; 0x138e <__bad_interrupt>
      44:	0c 94 c7 09 	jmp	0x138e	; 0x138e <__bad_interrupt>
      48:	0c 94 c7 09 	jmp	0x138e	; 0x138e <__bad_interrupt>
      4c:	0c 94 c7 09 	jmp	0x138e	; 0x138e <__bad_interrupt>
      50:	0c 94 c7 09 	jmp	0x138e	; 0x138e <__bad_interrupt>
      54:	0c 94 c7 09 	jmp	0x138e	; 0x138e <__bad_interrupt>
      58:	0c 94 c7 09 	jmp	0x138e	; 0x138e <__bad_interrupt>
      5c:	0c 94 37 36 	jmp	0x6c6e	; 0x6c6e <__vector_23>
      60:	0c 94 c7 09 	jmp	0x138e	; 0x138e <__bad_interrupt>
      64:	0c 94 e8 34 	jmp	0x69d0	; 0x69d0 <__vector_25>
      68:	0c 94 1e 35 	jmp	0x6a3c	; 0x6a3c <__vector_26>
      6c:	0c 94 c7 09 	jmp	0x138e	; 0x138e <__bad_interrupt>
      70:	0c 94 c7 09 	jmp	0x138e	; 0x138e <__bad_interrupt>
      74:	0c 94 c7 09 	jmp	0x138e	; 0x138e <__bad_interrupt>
      78:	0c 94 c7 09 	jmp	0x138e	; 0x138e <__bad_interrupt>
      7c:	0c 94 c7 09 	jmp	0x138e	; 0x138e <__bad_interrupt>
      80:	0c 94 c7 09 	jmp	0x138e	; 0x138e <__bad_interrupt>
      84:	0c 94 c7 09 	jmp	0x138e	; 0x138e <__bad_interrupt>
      88:	0c 94 c7 09 	jmp	0x138e	; 0x138e <__bad_interrupt>
      8c:	0c 94 c7 09 	jmp	0x138e	; 0x138e <__bad_interrupt>
      90:	0c 94 c7 09 	jmp	0x138e	; 0x138e <__bad_interrupt>
      94:	0c 94 c7 09 	jmp	0x138e	; 0x138e <__bad_interrupt>
      98:	0c 94 c7 09 	jmp	0x138e	; 0x138e <__bad_interrupt>
      9c:	0c 94 c7 09 	jmp	0x138e	; 0x138e <__bad_interrupt>
      a0:	0c 94 c7 09 	jmp	0x138e	; 0x138e <__bad_interrupt>
      a4:	0c 94 c7 09 	jmp	0x138e	; 0x138e <__bad_interrupt>
      a8:	0c 94 c7 09 	jmp	0x138e	; 0x138e <__bad_interrupt>
      ac:	0c 94 c7 09 	jmp	0x138e	; 0x138e <__bad_interrupt>
      b0:	0c 94 c7 09 	jmp	0x138e	; 0x138e <__bad_interrupt>
      b4:	0c 94 c7 09 	jmp	0x138e	; 0x138e <__bad_interrupt>
      b8:	0c 94 c7 09 	jmp	0x138e	; 0x138e <__bad_interrupt>
      bc:	0c 94 c7 09 	jmp	0x138e	; 0x138e <__bad_interrupt>
      c0:	0c 94 c7 09 	jmp	0x138e	; 0x138e <__bad_interrupt>
      c4:	0c 94 c7 09 	jmp	0x138e	; 0x138e <__bad_interrupt>
      c8:	0c 94 c7 09 	jmp	0x138e	; 0x138e <__bad_interrupt>
      cc:	0c 94 c7 09 	jmp	0x138e	; 0x138e <__bad_interrupt>
      d0:	0c 94 c7 09 	jmp	0x138e	; 0x138e <__bad_interrupt>
      d4:	0c 94 c7 09 	jmp	0x138e	; 0x138e <__bad_interrupt>
      d8:	0c 94 c7 09 	jmp	0x138e	; 0x138e <__bad_interrupt>
      dc:	0c 94 c7 09 	jmp	0x138e	; 0x138e <__bad_interrupt>
      e0:	0c 94 c7 09 	jmp	0x138e	; 0x138e <__bad_interrupt>
      e4:	14 18       	sub	r1, r4
      e6:	fd 18       	sub	r15, r13
      e8:	2f 18       	sub	r2, r15
      ea:	2f 18       	sub	r2, r15
      ec:	48 18       	sub	r4, r8
      ee:	fd 18       	sub	r15, r13
      f0:	f5 17       	cp	r31, r21
      f2:	d2 18       	sub	r13, r2
      f4:	6c 18       	sub	r6, r12
      f6:	fd 18       	sub	r15, r13
      f8:	7a 18       	sub	r7, r10
      fa:	7a 18       	sub	r7, r10
      fc:	97 18       	sub	r9, r7
      fe:	97 18       	sub	r9, r7
     100:	14 18       	sub	r1, r4
     102:	d2 18       	sub	r13, r2
     104:	fd 18       	sub	r15, r13
     106:	14 18       	sub	r1, r4
     108:	7a 18       	sub	r7, r10
     10a:	d2 18       	sub	r13, r2
     10c:	2f 18       	sub	r2, r15
     10e:	a6 18       	sub	r10, r6
     110:	d2 18       	sub	r13, r2
     112:	d2 18       	sub	r13, r2
     114:	d2 18       	sub	r13, r2
     116:	d2 18       	sub	r13, r2
     118:	d2 18       	sub	r13, r2
     11a:	bf 18       	sub	r11, r15
     11c:	d2 18       	sub	r13, r2
     11e:	d2 18       	sub	r13, r2
     120:	6d 19       	sub	r22, r13
     122:	db 2b       	or	r29, r27
     124:	3a 1a       	sub	r3, r26
     126:	3a 1a       	sub	r3, r26
     128:	cc 1b       	sub	r28, r28
     12a:	db 2b       	or	r29, r27
     12c:	d2 1e       	adc	r13, r18
     12e:	06 1d       	adc	r16, r6
     130:	7f 1e       	adc	r7, r31
     132:	db 2b       	or	r29, r27
     134:	2c 20       	and	r2, r12
     136:	35 21       	and	r19, r5
     138:	e1 22       	and	r14, r17
     13a:	e1 22       	and	r14, r17
     13c:	6d 19       	sub	r22, r13
     13e:	7e 27       	eor	r23, r30
     140:	db 2b       	or	r29, r27
     142:	6d 19       	sub	r22, r13
     144:	08 22       	and	r0, r24
     146:	e1 23       	and	r30, r17
     148:	b8 1a       	sub	r11, r24
     14a:	aa 24       	eor	r10, r10
     14c:	78 25       	eor	r23, r8
     14e:	7e 27       	eor	r23, r30
     150:	a5 26       	eor	r10, r21
     152:	37 28       	or	r3, r7
     154:	7e 29       	or	r23, r14
     156:	dd 2a       	or	r13, r29
     158:	f1 2a       	or	r15, r17
     15a:	7a 1d       	adc	r23, r10
     15c:	05 a8       	ldd	r0, Z+53	; 0x35
     15e:	4c cd       	rjmp	.-1384   	; 0xfffffbf8 <__eeprom_end+0xff7efbf8>
     160:	b2 d4       	rcall	.+2404   	; 0xac6 <__LOCK_REGION_LENGTH__+0x6c6>
     162:	4e b9       	out	0x0e, r20	; 14
     164:	38 36       	cpi	r19, 0x68	; 104
     166:	a9 02       	muls	r26, r25
     168:	0c 50       	subi	r16, 0x0C	; 12
     16a:	b9 91       	ld	r27, Y+
     16c:	86 88       	ldd	r8, Z+22	; 0x16
     16e:	08 3c       	cpi	r16, 0xC8	; 200
     170:	a6 aa       	std	Z+54, r10	; 0x36
     172:	aa 2a       	or	r10, r26
     174:	be 00       	.word	0x00be	; ????
     176:	00 00       	nop
     178:	80 3f       	cpi	r24, 0xF0	; 240
     17a:	5b 37       	cpi	r21, 0x7B	; 123
     17c:	5e 37       	cpi	r21, 0x7E	; 126
     17e:	4d 37       	cpi	r20, 0x7D	; 125
     180:	51 37       	cpi	r21, 0x71	; 113
     182:	57 37       	cpi	r21, 0x77	; 119
     184:	95 37       	cpi	r25, 0x75	; 117
     186:	62 37       	cpi	r22, 0x72	; 114
     188:	66 37       	cpi	r22, 0x76	; 118
     18a:	6c 37       	cpi	r22, 0x7C	; 124
     18c:	70 37       	cpi	r23, 0x70	; 112
     18e:	74 37       	cpi	r23, 0x74	; 116
     190:	7a 37       	cpi	r23, 0x7A	; 122
     192:	7e 37       	cpi	r23, 0x7E	; 126
     194:	82 37       	cpi	r24, 0x72	; 114
     196:	95 37       	cpi	r25, 0x75	; 117
     198:	88 37       	cpi	r24, 0x78	; 120
     19a:	8c 37       	cpi	r24, 0x7C	; 124
     19c:	90 37       	cpi	r25, 0x70	; 112

0000019e <BigFont>:
     19e:	10 10 20 5f 00 00 00 00 00 00 00 00 00 00 00 00     .. _............
	...
     1c6:	07 00 0f 80 0f 80 0f 80 0f 80 0f 80 07 00 07 00     ................
     1d6:	00 00 00 00 07 00 07 00 07 00 00 00 00 00 0e 38     ...............8
     1e6:	0e 38 0e 38 0e 38 06 30 00 00 00 00 00 00 00 00     .8.8.8.0........
	...
     202:	00 00 0c 30 0c 30 0c 30 7f fe 7f fe 0c 30 0c 30     ...0.0.0.....0.0
     212:	0c 30 0c 30 7f fe 7f fe 0c 30 0c 30 0c 30 00 00     .0.0.....0.0.0..
     222:	00 00 02 40 02 40 0f f8 1f f8 1a 40 1a 40 1f f0     ...@.@.....@.@..
     232:	0f f8 02 58 02 58 1f f8 1f f0 02 40 02 40 00 00     ...X.X.....@.@..
     242:	00 00 00 00 00 00 0e 10 0e 30 0e 70 00 e0 01 c0     .........0.p....
     252:	03 80 07 00 0e 70 0c 70 08 70 00 00 00 00 00 00     .....p.p.p......
     262:	00 00 00 00 0f 00 19 80 19 80 19 80 0f 00 0f 08     ................
     272:	0f 98 19 f8 18 f0 18 e0 19 f0 0f 98 00 00 00 00     ................
     282:	00 00 00 00 07 00 07 00 07 00 0e 00 00 00 00 00     ................
	...
     2a6:	00 f0 01 c0 03 80 07 00 0e 00 0e 00 0e 00 0e 00     ................
     2b6:	07 00 03 80 01 c0 00 f0 00 00 00 00 00 00 00 00     ................
     2c6:	0f 00 03 80 01 c0 00 e0 00 70 00 70 00 70 00 70     .........p.p.p.p
     2d6:	00 e0 01 c0 03 80 0f 00 00 00 00 00 00 00 00 00     ................
     2e6:	01 80 11 88 09 90 07 e0 07 e0 3f fc 3f fc 07 e0     ..........?.?...
     2f6:	07 e0 09 90 11 88 01 80 00 00 00 00 00 00 00 00     ................
     306:	00 00 00 00 01 80 01 80 01 80 0f f0 0f f0 01 80     ................
     316:	01 80 01 80 00 00 00 00 00 00 00 00 00 00 00 00     ................
	...
     336:	00 00 07 00 07 00 07 00 0e 00 00 00 00 00 00 00     ................
	...
     34e:	00 00 1f f8 1f f8 00 00 00 00 00 00 00 00 00 00     ................
	...
     376:	00 00 07 00 07 00 07 00 00 00 00 00 00 00 00 00     ................
     386:	00 02 00 06 00 0e 00 1c 00 38 00 70 00 e0 01 c0     .........8.p....
     396:	03 80 07 00 0e 00 1c 00 00 00 00 00 00 00 00 00     ................
     3a6:	0f f0 1c 38 1c 78 1c f8 1c f8 1d b8 1d b8 1f 38     ...8.x.........8
     3b6:	1f 38 1e 38 1c 38 0f f0 00 00 00 00 00 00 00 00     .8.8.8..........
     3c6:	01 80 01 80 03 80 1f 80 1f 80 03 80 03 80 03 80     ................
     3d6:	03 80 03 80 03 80 1f f0 00 00 00 00 00 00 00 00     ................
     3e6:	0f e0 1c 70 1c 38 00 38 00 70 00 e0 01 c0 03 80     ...p.8.8.p......
     3f6:	07 00 0e 38 1c 38 1f f8 00 00 00 00 00 00 00 00     ...8.8..........
     406:	0f e0 1c 70 1c 38 00 38 00 70 03 c0 03 c0 00 70     ...p.8.8.p.....p
     416:	00 38 1c 38 1c 70 0f e0 00 00 00 00 00 00 00 00     .8.8.p..........
     426:	00 e0 01 e0 03 e0 06 e0 0c e0 18 e0 1f f8 1f f8     ................
     436:	00 e0 00 e0 00 e0 03 f8 00 00 00 00 00 00 00 00     ................
     446:	1f f8 1c 00 1c 00 1c 00 1c 00 1f e0 1f f0 00 78     ...............x
     456:	00 38 1c 38 1c 70 0f e0 00 00 00 00 00 00 00 00     .8.8.p..........
     466:	03 e0 07 00 0e 00 1c 00 1c 00 1f f0 1f f8 1c 38     ...............8
     476:	1c 38 1c 38 1c 38 0f f0 00 00 00 00 00 00 00 00     .8.8.8..........
     486:	1f fc 1c 1c 1c 1c 1c 1c 00 1c 00 38 00 70 00 e0     ...........8.p..
     496:	01 c0 03 80 03 80 03 80 00 00 00 00 00 00 00 00     ................
     4a6:	0f f0 1c 38 1c 38 1c 38 1f 38 07 e0 07 e0 1c f8     ...8.8.8.8......
     4b6:	1c 38 1c 38 1c 38 0f f0 00 00 00 00 00 00 00 00     .8.8.8..........
     4c6:	0f f0 1c 38 1c 38 1c 38 1c 38 1f f8 0f f8 00 38     ...8.8.8.8.....8
     4d6:	00 38 00 70 00 e0 07 c0 00 00 00 00 00 00 00 00     .8.p............
     4e6:	00 00 00 00 03 80 03 80 03 80 00 00 00 00 03 80     ................
     4f6:	03 80 03 80 00 00 00 00 00 00 00 00 00 00 00 00     ................
     506:	00 00 00 00 03 80 03 80 03 80 00 00 00 00 03 80     ................
     516:	03 80 03 80 07 00 00 00 00 00 00 00 00 00 00 70     ...............p
     526:	00 e0 01 c0 03 80 07 00 0e 00 1c 00 1c 00 0e 00     ................
     536:	07 00 03 80 01 c0 00 e0 00 70 00 00 00 00 00 00     .........p......
     546:	00 00 00 00 00 00 3f fc 3f fc 00 00 00 00 3f fc     ......?.?.....?.
     556:	3f fc 00 00 00 00 00 00 00 00 00 00 00 00 1c 00     ?...............
     566:	0e 00 07 00 03 80 01 c0 00 e0 00 70 00 70 00 e0     ...........p.p..
     576:	01 c0 03 80 07 00 0e 00 1c 00 00 00 00 00 03 c0     ................
     586:	0f f0 1e 78 18 38 00 38 00 70 00 e0 01 c0 01 c0     ...x.8.8.p......
     596:	00 00 00 00 01 c0 01 c0 01 c0 00 00 00 00 0f f8     ................
     5a6:	1c 1c 1c 1c 1c 1c 1c 1c 1c fc 1c fc 1c fc 1c fc     ................
     5b6:	1c 00 1c 00 1c 00 1f f0 07 f8 00 00 00 00 00 00     ................
     5c6:	03 c0 07 e0 0e 70 1c 38 1c 38 1c 38 1c 38 1f f8     .....p.8.8.8.8..
     5d6:	1c 38 1c 38 1c 38 1c 38 00 00 00 00 00 00 00 00     .8.8.8.8........
     5e6:	1f f0 0e 38 0e 38 0e 38 0e 38 0f f0 0f f0 0e 38     ...8.8.8.8.....8
     5f6:	0e 38 0e 38 0e 38 1f f0 00 00 00 00 00 00 00 00     .8.8.8..........
     606:	07 f0 0e 38 1c 38 1c 00 1c 00 1c 00 1c 00 1c 00     ...8.8..........
     616:	1c 00 1c 38 0e 38 07 f0 00 00 00 00 00 00 00 00     ...8.8..........
     626:	1f e0 0e 70 0e 38 0e 38 0e 38 0e 38 0e 38 0e 38     ...p.8.8.8.8.8.8
     636:	0e 38 0e 38 0e 70 1f e0 00 00 00 00 00 00 00 00     .8.8.p..........
     646:	1f f8 0e 18 0e 08 0e 00 0e 30 0f f0 0f f0 0e 30     .........0.....0
     656:	0e 00 0e 08 0e 18 1f f8 00 00 00 00 00 00 00 00     ................
     666:	1f f8 0e 18 0e 08 0e 00 0e 30 0f f0 0f f0 0e 30     .........0.....0
     676:	0e 00 0e 00 0e 00 1f 00 00 00 00 00 00 00 00 00     ................
     686:	07 f0 0e 38 1c 38 1c 38 1c 00 1c 00 1c 00 1c f8     ...8.8.8........
     696:	1c 38 1c 38 0e 38 07 f8 00 00 00 00 00 00 00 00     .8.8.8..........
     6a6:	1c 70 1c 70 1c 70 1c 70 1c 70 1f f0 1f f0 1c 70     .p.p.p.p.p.....p
     6b6:	1c 70 1c 70 1c 70 1c 70 00 00 00 00 00 00 00 00     .p.p.p.p........
     6c6:	0f e0 03 80 03 80 03 80 03 80 03 80 03 80 03 80     ................
     6d6:	03 80 03 80 03 80 0f e0 00 00 00 00 00 00 00 00     ................
     6e6:	01 fc 00 70 00 70 00 70 00 70 00 70 00 70 38 70     ...p.p.p.p.p.p8p
     6f6:	38 70 38 70 38 70 0f e0 00 00 00 00 00 00 00 00     8p8p8p..........
     706:	1e 38 0e 38 0e 70 0e e0 0f c0 0f 80 0f 80 0f c0     .8.8.p..........
     716:	0e e0 0e 70 0e 38 1e 38 00 00 00 00 00 00 00 00     ...p.8.8........
     726:	1f 00 0e 00 0e 00 0e 00 0e 00 0e 00 0e 00 0e 00     ................
     736:	0e 08 0e 18 0e 38 1f f8 00 00 00 00 00 00 00 00     .....8..........
     746:	1c 1c 1e 3c 1f 7c 1f fc 1f fc 1d dc 1c 9c 1c 1c     ...<.|..........
     756:	1c 1c 1c 1c 1c 1c 1c 1c 00 00 00 00 00 00 00 00     ................
     766:	1c 1c 1c 1c 1e 1c 1f 1c 1f 9c 1d dc 1c fc 1c 7c     ...............|
     776:	1c 3c 1c 1c 1c 1c 1c 1c 00 00 00 00 00 00 00 00     .<..............
     786:	03 e0 07 f0 0e 38 1c 1c 1c 1c 1c 1c 1c 1c 1c 1c     .....8..........
     796:	1c 1c 0e 38 07 f0 03 e0 00 00 00 00 00 00 00 00     ...8............
     7a6:	1f f0 0e 38 0e 38 0e 38 0e 38 0f f0 0f f0 0e 00     ...8.8.8.8......
     7b6:	0e 00 0e 00 0e 00 1f 00 00 00 00 00 00 00 00 00     ................
     7c6:	03 e0 0f 78 0e 38 1c 1c 1c 1c 1c 1c 1c 1c 1c 7c     ...x.8.........|
     7d6:	1c fc 0f f8 0f f8 00 38 00 fc 00 00 00 00 00 00     .......8........
     7e6:	1f f0 0e 38 0e 38 0e 38 0e 38 0f f0 0f f0 0e 70     ...8.8.8.8.....p
     7f6:	0e 38 0e 38 0e 38 1e 38 00 00 00 00 00 00 00 00     .8.8.8.8........
     806:	0f f0 1c 38 1c 38 1c 38 1c 00 0f e0 07 f0 00 38     ...8.8.8.......8
     816:	1c 38 1c 38 1c 38 0f f0 00 00 00 00 00 00 00 00     .8.8.8..........
     826:	1f fc 19 cc 11 c4 01 c0 01 c0 01 c0 01 c0 01 c0     ................
     836:	01 c0 01 c0 01 c0 07 f0 00 00 00 00 00 00 00 00     ................
     846:	1c 70 1c 70 1c 70 1c 70 1c 70 1c 70 1c 70 1c 70     .p.p.p.p.p.p.p.p
     856:	1c 70 1c 70 1c 70 0f e0 00 00 00 00 00 00 00 00     .p.p.p..........
     866:	1c 70 1c 70 1c 70 1c 70 1c 70 1c 70 1c 70 1c 70     .p.p.p.p.p.p.p.p
     876:	1c 70 0e e0 07 c0 03 80 00 00 00 00 00 00 00 00     .p..............
     886:	1c 1c 1c 1c 1c 1c 1c 1c 1c 1c 1c 9c 1c 9c 1c 9c     ................
     896:	0f f8 0f f8 07 70 07 70 00 00 00 00 00 00 00 00     .....p.p........
     8a6:	1c 70 1c 70 1c 70 0e e0 07 c0 03 80 03 80 07 c0     .p.p.p..........
     8b6:	0e e0 1c 70 1c 70 1c 70 00 00 00 00 00 00 00 00     ...p.p.p........
     8c6:	1c 70 1c 70 1c 70 1c 70 1c 70 0e e0 07 c0 03 80     .p.p.p.p.p......
     8d6:	03 80 03 80 03 80 0f e0 00 00 00 00 00 00 00 00     ................
     8e6:	1f f8 1c 38 18 38 10 70 00 e0 01 c0 03 80 07 00     ...8.8.p........
     8f6:	0e 08 1c 18 1c 38 1f f8 00 00 00 00 00 00 00 00     .....8..........
     906:	07 f0 07 00 07 00 07 00 07 00 07 00 07 00 07 00     ................
     916:	07 00 07 00 07 00 07 f0 00 00 00 00 00 00 00 00     ................
     926:	10 00 18 00 1c 00 0e 00 07 00 03 80 01 c0 00 e0     ................
     936:	00 70 00 38 00 1c 00 07 00 00 00 00 00 00 00 00     .p.8............
     946:	07 f0 00 70 00 70 00 70 00 70 00 70 00 70 00 70     ...p.p.p.p.p.p.p
     956:	00 70 00 70 00 70 07 f0 00 00 00 00 00 00 01 80     .p.p.p..........
     966:	03 c0 07 e0 0e 70 1c 38 00 00 00 00 00 00 00 00     .....p.8........
	...
     99e:	7f ff 7f ff 00 00 00 00 1c 00 1c 00 07 00 07 00     ................
	...
     9ce:	0f e0 00 70 00 70 0f f0 1c 70 1c 70 1c 70 0f d8     ...p.p...p.p.p..
	...
     9e6:	1e 00 0e 00 0e 00 0e 00 0f f0 0e 38 0e 38 0e 38     ...........8.8.8
     9f6:	0e 38 0e 38 0e 38 1b f0 00 00 00 00 00 00 00 00     .8.8.8..........
	...
     a0e:	0f e0 1c 70 1c 70 1c 00 1c 00 1c 70 1c 70 0f e0     ...p.p.....p.p..
	...
     a26:	00 f8 00 70 00 70 00 70 0f f0 1c 70 1c 70 1c 70     ...p.p.p...p.p.p
     a36:	1c 70 1c 70 1c 70 0f d8 00 00 00 00 00 00 00 00     .p.p.p..........
	...
     a4e:	0f e0 1c 70 1c 70 1f f0 1c 00 1c 70 1c 70 0f e0     ...p.p.....p.p..
	...
     a66:	03 e0 07 70 07 70 07 00 07 00 1f e0 1f e0 07 00     ...p.p..........
     a76:	07 00 07 00 07 00 1f c0 00 00 00 00 00 00 00 00     ................
	...
     a8e:	0f d8 1c 70 1c 70 1c 70 1c 70 0f f0 07 f0 00 70     ...p.p.p.p.....p
     a9e:	1c 70 0f e0 00 00 00 00 1e 00 0e 00 0e 00 0e 00     .p..............
     aae:	0e f0 0f 38 0f 38 0e 38 0e 38 0e 38 0e 38 1e 38     ...8.8.8.8.8.8.8
	...
     ac6:	01 c0 01 c0 01 c0 00 00 0f c0 01 c0 01 c0 01 c0     ................
     ad6:	01 c0 01 c0 01 c0 0f f8 00 00 00 00 00 00 00 00     ................
     ae6:	00 70 00 70 00 70 00 00 03 f0 00 70 00 70 00 70     .p.p.p.....p.p.p
     af6:	00 70 00 70 00 70 1c 70 0c f0 07 e0 00 00 00 00     .p.p.p.p........
     b06:	1e 00 0e 00 0e 00 0e 00 0e 38 0e 70 0e e0 0f c0     .........8.p....
     b16:	0e e0 0e 70 0e 38 1e 38 00 00 00 00 00 00 00 00     ...p.8.8........
     b26:	0f c0 01 c0 01 c0 01 c0 01 c0 01 c0 01 c0 01 c0     ................
     b36:	01 c0 01 c0 01 c0 0f f8 00 00 00 00 00 00 00 00     ................
	...
     b4e:	1f f8 1c 9c 1c 9c 1c 9c 1c 9c 1c 9c 1c 9c 1c 9c     ................
	...
     b6e:	1f e0 1c 70 1c 70 1c 70 1c 70 1c 70 1c 70 1c 70     ...p.p.p.p.p.p.p
	...
     b8e:	0f e0 1c 70 1c 70 1c 70 1c 70 1c 70 1c 70 0f e0     ...p.p.p.p.p.p..
	...
     bae:	1b f0 0e 38 0e 38 0e 38 0e 38 0e 38 0f f0 0e 00     ...8.8.8.8.8....
     bbe:	0e 00 1f 00 00 00 00 00 00 00 00 00 00 00 00 00     ................
     bce:	1f b0 38 e0 38 e0 38 e0 38 e0 38 e0 1f e0 00 e0     ..8.8.8.8.8.....
     bde:	00 e0 01 f0 00 00 00 00 00 00 00 00 00 00 00 00     ................
     bee:	1e f0 0f f8 0f 38 0e 00 0e 00 0e 00 0e 00 1f 00     .....8..........
	...
     c0e:	0f e0 1c 30 1c 30 0f 80 03 e0 18 70 18 70 0f e0     ...0.0.....p.p..
	...
     c26:	00 00 01 00 03 00 07 00 1f f0 07 00 07 00 07 00     ................
     c36:	07 00 07 70 07 70 03 e0 00 00 00 00 00 00 00 00     ...p.p..........
	...
     c4e:	1c 70 1c 70 1c 70 1c 70 1c 70 1c 70 1c 70 0f d8     .p.p.p.p.p.p.p..
	...
     c6e:	1c 70 1c 70 1c 70 1c 70 1c 70 0e e0 07 c0 03 80     .p.p.p.p.p......
	...
     c8e:	1c 1c 1c 1c 1c 1c 1c 9c 1c 9c 0f f8 07 70 07 70     .............p.p
	...
     cae:	1c e0 1c e0 0f c0 07 80 07 80 0f c0 1c e0 1c e0     ................
	...
     cce:	0e 38 0e 38 0e 38 0e 38 0e 38 07 f0 03 e0 00 e0     .8.8.8.8.8......
     cde:	01 c0 1f 80 00 00 00 00 00 00 00 00 00 00 00 00     ................
     cee:	1f e0 18 e0 11 c0 03 80 07 00 0e 20 1c 60 1f e0     ........... .`..
	...
     d06:	01 f8 03 80 03 80 03 80 07 00 1c 00 1c 00 07 00     ................
     d16:	03 80 03 80 03 80 01 f8 00 00 00 00 00 00 01 c0     ................
     d26:	01 c0 01 c0 01 c0 01 c0 01 c0 01 c0 01 c0 01 c0     ................
     d36:	01 c0 01 c0 01 c0 01 c0 01 c0 00 00 00 00 00 00     ................
     d46:	1f 80 01 c0 01 c0 01 c0 00 e0 00 38 00 38 00 e0     ...........8.8..
     d56:	01 c0 01 c0 01 c0 1f 80 00 00 00 00 00 00 00 00     ................
     d66:	1f 1c 3b 9c 39 dc 38 f8 00 00 00 00 00 00 00 00     ..;.9.8.........
	...

00000d82 <SmallFont>:
     d82:	08 0c 20 5f 00 00 00 00 00 00 00 00 00 00 00 00     .. _............
     d92:	00 00 20 20 20 20 20 20 00 20 00 00 00 28 50 50     ..      . ...(PP
	...
     daa:	00 00 28 28 fc 28 50 fc 50 50 00 00 00 20 78 a8     ..((.(P.PP... x.
     dba:	a0 60 30 28 a8 f0 20 00 00 00 48 a8 b0 50 28 34     .`0(.. ...H..P(4
     dca:	54 48 00 00 00 00 20 50 50 78 a8 a8 90 6c 00 00     TH.... PPx...l..
     dda:	00 40 40 80 00 00 00 00 00 00 00 00 00 04 08 10     .@@.............
     dea:	10 10 10 10 10 08 04 00 00 40 20 10 10 10 10 10     .........@ .....
     dfa:	10 20 40 00 00 00 00 20 a8 70 70 a8 20 00 00 00     . @.... .pp. ...
     e0a:	00 00 20 20 20 f8 20 20 20 00 00 00 00 00 00 00     ..   .   .......
     e1a:	00 00 00 00 00 40 40 80 00 00 00 00 00 f8 00 00     .....@@.........
	...
     e36:	00 40 00 00 00 08 10 10 10 20 20 40 40 40 80 00     .@.......  @@@..
     e46:	00 00 70 88 88 88 88 88 88 70 00 00 00 00 20 60     ..p......p.... `
     e56:	20 20 20 20 20 70 00 00 00 00 70 88 88 10 20 40          p....p... @
     e66:	80 f8 00 00 00 00 70 88 08 30 08 08 88 70 00 00     ......p..0...p..
     e76:	00 00 10 30 50 50 90 78 10 18 00 00 00 00 f8 80     ...0PP.x........
     e86:	80 f0 08 08 88 70 00 00 00 00 70 90 80 f0 88 88     .....p....p.....
     e96:	88 70 00 00 00 00 f8 90 10 20 20 20 20 20 00 00     .p.......     ..
     ea6:	00 00 70 88 88 70 88 88 88 70 00 00 00 00 70 88     ..p..p...p....p.
     eb6:	88 88 78 08 48 70 00 00 00 00 00 00 20 00 00 00     ..x.Hp...... ...
     ec6:	00 20 00 00 00 00 00 00 00 20 00 00 00 20 20 00     . ....... ...  .
     ed6:	00 04 08 10 20 40 20 10 08 04 00 00 00 00 00 00     .... @ .........
     ee6:	f8 00 00 f8 00 00 00 00 00 40 20 10 08 04 08 10     .........@ .....
     ef6:	20 40 00 00 00 00 70 88 88 10 20 20 00 20 00 00      @....p...  . ..
     f06:	00 00 70 88 98 a8 a8 b8 80 78 00 00 00 00 20 20     ..p......x....  
     f16:	30 50 50 78 48 cc 00 00 00 00 f0 48 48 70 48 48     0PPxH......HHpHH
     f26:	48 f0 00 00 00 00 78 88 80 80 80 80 88 70 00 00     H.....x......p..
     f36:	00 00 f0 48 48 48 48 48 48 f0 00 00 00 00 f8 48     ...HHHHHH......H
     f46:	50 70 50 40 48 f8 00 00 00 00 f8 48 50 70 50 40     PpP@H......HPpP@
     f56:	40 e0 00 00 00 00 38 48 80 80 9c 88 48 30 00 00     @.....8H....H0..
     f66:	00 00 cc 48 48 78 48 48 48 cc 00 00 00 00 f8 20     ...HHxHHH...... 
     f76:	20 20 20 20 20 f8 00 00 00 00 7c 10 10 10 10 10          .....|.....
     f86:	10 90 e0 00 00 00 ec 48 50 60 50 50 48 ec 00 00     .......HP`PPH...
     f96:	00 00 e0 40 40 40 40 40 44 fc 00 00 00 00 d8 d8     ...@@@@@D.......
     fa6:	d8 d8 a8 a8 a8 a8 00 00 00 00 dc 48 68 68 58 58     ...........HhhXX
     fb6:	48 e8 00 00 00 00 70 88 88 88 88 88 88 70 00 00     H.....p......p..
     fc6:	00 00 f0 48 48 70 40 40 40 e0 00 00 00 00 70 88     ...HHp@@@.....p.
     fd6:	88 88 88 e8 98 70 18 00 00 00 f0 48 48 70 50 48     .....p.....HHpPH
     fe6:	48 ec 00 00 00 00 78 88 80 60 10 08 88 f0 00 00     H.....x..`......
     ff6:	00 00 f8 a8 20 20 20 20 20 70 00 00 00 00 cc 48     ....     p.....H
    1006:	48 48 48 48 48 30 00 00 00 00 cc 48 48 50 50 30     HHHHH0.....HHPP0
    1016:	20 20 00 00 00 00 a8 a8 a8 70 50 50 50 50 00 00       .......pPPPP..
    1026:	00 00 d8 50 50 20 20 50 50 d8 00 00 00 00 d8 50     ...PP  PP......P
    1036:	50 20 20 20 20 70 00 00 00 00 f8 90 10 20 20 40     P    p.......  @
    1046:	48 f8 00 00 00 38 20 20 20 20 20 20 20 20 38 00     H....8        8.
    1056:	00 40 40 40 20 20 10 10 10 08 00 00 00 70 10 10     .@@@  .......p..
    1066:	10 10 10 10 10 10 70 00 00 20 50 00 00 00 00 00     ......p.. P.....
	...
    1082:	00 00 00 fc 00 20 00 00 00 00 00 00 00 00 00 00     ..... ..........
    1092:	00 00 00 00 00 30 48 38 48 3c 00 00 00 00 c0 40     .....0H8H<.....@
    10a2:	40 70 48 48 48 70 00 00 00 00 00 00 00 38 48 40     @pHHHp.......8H@
    10b2:	40 38 00 00 00 00 18 08 08 38 48 48 48 3c 00 00     @8.......8HHH<..
    10c2:	00 00 00 00 00 30 48 78 40 38 00 00 00 00 1c 20     .....0Hx@8..... 
    10d2:	20 78 20 20 20 78 00 00 00 00 00 00 00 3c 48 30      x   x.......<H0
    10e2:	40 78 44 38 00 00 c0 40 40 70 48 48 48 ec 00 00     @xD8...@@pHHH...
    10f2:	00 00 20 00 00 60 20 20 20 70 00 00 00 00 10 00     .. ..`   p......
    1102:	00 30 10 10 10 10 10 e0 00 00 c0 40 40 5c 50 70     .0.........@@\Pp
    1112:	48 ec 00 00 00 00 e0 20 20 20 20 20 20 f8 00 00     H......      ...
    1122:	00 00 00 00 00 f0 a8 a8 a8 a8 00 00 00 00 00 00     ................
    1132:	00 f0 48 48 48 ec 00 00 00 00 00 00 00 30 48 48     ..HHH........0HH
    1142:	48 30 00 00 00 00 00 00 00 f0 48 48 48 70 40 e0     H0........HHHp@.
    1152:	00 00 00 00 00 38 48 48 48 38 08 1c 00 00 00 00     .....8HHH8......
    1162:	00 d8 60 40 40 e0 00 00 00 00 00 00 00 78 40 30     ..`@@........x@0
    1172:	08 78 00 00 00 00 00 20 20 70 20 20 20 18 00 00     .x.....  p   ...
    1182:	00 00 00 00 00 d8 48 48 48 3c 00 00 00 00 00 00     ......HHH<......
    1192:	00 ec 48 50 30 20 00 00 00 00 00 00 00 a8 a8 70     ..HP0 .........p
    11a2:	50 50 00 00 00 00 00 00 00 d8 50 20 50 d8 00 00     PP........P P...
    11b2:	00 00 00 00 00 ec 48 50 30 20 20 c0 00 00 00 00     ......HP0  .....
    11c2:	00 78 10 20 20 78 00 00 00 18 10 10 10 20 10 10     .x.  x....... ..
    11d2:	10 10 18 00 10 10 10 10 10 10 10 10 10 10 10 10     ................
    11e2:	00 60 20 20 20 10 20 20 20 20 60 00 40 a4 18 00     .`   .    `.@...
	...

000011fa <digital_pin_to_timer_PGM>:
    11fa:	00 00 0a 0b 02 09 0c 0d 0e 08 07 03 04 01 00 00     ................
	...
    1226:	12 11 10 00 00 00 00 00 00 00 00 00 00 00 00 00     ................
	...

00001240 <digital_pin_to_bit_mask_PGM>:
    1240:	01 02 10 20 20 08 08 10 20 40 10 20 40 80 02 01     ...  ... @. @...
    1250:	02 01 08 04 02 01 01 02 04 08 10 20 40 80 80 40     ........... @..@
    1260:	20 10 08 04 02 01 80 04 02 01 80 40 20 10 08 04      ..........@ ...
    1270:	02 01 08 04 02 01 01 02 04 08 10 20 40 80 01 02     ........... @...
    1280:	04 08 10 20 40 80                                   ... @.

00001286 <digital_pin_to_port_PGM>:
    1286:	05 05 05 05 07 05 08 08 08 08 02 02 02 02 0a 0a     ................
    1296:	08 08 04 04 04 04 01 01 01 01 01 01 01 01 03 03     ................
    12a6:	03 03 03 03 03 03 04 07 07 07 0c 0c 0c 0c 0c 0c     ................
    12b6:	0c 0c 02 02 02 02 06 06 06 06 06 06 06 06 0b 0b     ................
    12c6:	0b 0b 0b 0b 0b 0b                                   ......

000012cc <port_to_input_PGM>:
    12cc:	00 00 20 00 23 00 26 00 29 00 2c 00 2f 00 32 00     .. .#.&.).,./.2.
    12dc:	00 01 00 00 03 01 06 01 09 01                       ..........

000012e6 <port_to_output_PGM>:
    12e6:	00 00 22 00 25 00 28 00 2b 00 2e 00 31 00 34 00     ..".%.(.+...1.4.
    12f6:	02 01 00 00 05 01 08 01 0b 01                       ..........

00001300 <port_to_mode_PGM>:
    1300:	00 00 21 00 24 00 27 00 2a 00 2d 00 30 00 33 00     ..!.$.'.*.-.0.3.
    1310:	01 01 00 00 04 01 07 01 0a 01                       ..........

0000131a <__ctors_start>:
    131a:	db 09       	sbc	r29, r11
    131c:	1f 0b       	sbc	r17, r31
    131e:	e6 0d       	add	r30, r6
    1320:	08 10       	cpse	r0, r8
    1322:	50 35       	cpi	r21, 0x50	; 80

00001324 <__ctors_end>:
    1324:	68 0a       	sbc	r6, r24
    1326:	9d 0b       	sbc	r25, r29
    1328:	64 0e       	add	r6, r20
    132a:	86 10       	cpse	r8, r6

0000132c <__dtors_end>:
    132c:	11 24       	eor	r1, r1
    132e:	1f be       	out	0x3f, r1	; 63
    1330:	cf ef       	ldi	r28, 0xFF	; 255
    1332:	d1 e2       	ldi	r29, 0x21	; 33
    1334:	de bf       	out	0x3e, r29	; 62
    1336:	cd bf       	out	0x3d, r28	; 61
    1338:	00 e0       	ldi	r16, 0x00	; 0
    133a:	0c bf       	out	0x3c, r16	; 60

0000133c <__do_copy_data>:
    133c:	13 e0       	ldi	r17, 0x03	; 3
    133e:	a0 e0       	ldi	r26, 0x00	; 0
    1340:	b2 e0       	ldi	r27, 0x02	; 2
    1342:	e8 e2       	ldi	r30, 0x28	; 40
    1344:	f9 e7       	ldi	r31, 0x79	; 121
    1346:	00 e0       	ldi	r16, 0x00	; 0
    1348:	0b bf       	out	0x3b, r16	; 59
    134a:	02 c0       	rjmp	.+4      	; 0x1350 <__do_copy_data+0x14>
    134c:	07 90       	elpm	r0, Z+
    134e:	0d 92       	st	X+, r0
    1350:	a6 32       	cpi	r26, 0x26	; 38
    1352:	b1 07       	cpc	r27, r17
    1354:	d9 f7       	brne	.-10     	; 0x134c <__do_copy_data+0x10>

00001356 <__do_clear_bss>:
    1356:	27 e0       	ldi	r18, 0x07	; 7
    1358:	a6 e2       	ldi	r26, 0x26	; 38
    135a:	b3 e0       	ldi	r27, 0x03	; 3
    135c:	01 c0       	rjmp	.+2      	; 0x1360 <.do_clear_bss_start>

0000135e <.do_clear_bss_loop>:
    135e:	1d 92       	st	X+, r1

00001360 <.do_clear_bss_start>:
    1360:	a2 34       	cpi	r26, 0x42	; 66
    1362:	b2 07       	cpc	r27, r18
    1364:	e1 f7       	brne	.-8      	; 0x135e <.do_clear_bss_loop>

00001366 <__do_global_ctors>:
    1366:	19 e0       	ldi	r17, 0x09	; 9
    1368:	c2 e9       	ldi	r28, 0x92	; 146
    136a:	d9 e0       	ldi	r29, 0x09	; 9
    136c:	00 e0       	ldi	r16, 0x00	; 0
    136e:	06 c0       	rjmp	.+12     	; 0x137c <__do_global_ctors+0x16>
    1370:	21 97       	sbiw	r28, 0x01	; 1
    1372:	01 09       	sbc	r16, r1
    1374:	80 2f       	mov	r24, r16
    1376:	fe 01       	movw	r30, r28
    1378:	0e 94 42 3a 	call	0x7484	; 0x7484 <__tablejump2__>
    137c:	cd 38       	cpi	r28, 0x8D	; 141
    137e:	d1 07       	cpc	r29, r17
    1380:	80 e0       	ldi	r24, 0x00	; 0
    1382:	08 07       	cpc	r16, r24
    1384:	a9 f7       	brne	.-22     	; 0x1370 <__do_global_ctors+0xa>
    1386:	0e 94 7e 35 	call	0x6afc	; 0x6afc <main>
    138a:	0c 94 83 3c 	jmp	0x7906	; 0x7906 <__do_global_dtors>

0000138e <__bad_interrupt>:
    138e:	0c 94 00 00 	jmp	0	; 0x0 <__vectors>

00001392 <setup>:
  
  
  //Serial.println(parameters.data.oscFreq);
  //control.changeParameters();
  //Serial.println(parameters.data.oscFreq);
  screen.init();
    1392:	86 e2       	ldi	r24, 0x26	; 38
    1394:	93 e0       	ldi	r25, 0x03	; 3
    1396:	d2 d5       	rcall	.+2980   	; 0x1f3c <_ZN6Screen4initEv>
  delay(500);
    1398:	64 ef       	ldi	r22, 0xF4	; 244
    139a:	71 e0       	ldi	r23, 0x01	; 1
    139c:	80 e0       	ldi	r24, 0x00	; 0
    139e:	90 e0       	ldi	r25, 0x00	; 0
    13a0:	0e 94 a6 36 	call	0x6d4c	; 0x6d4c <delay>
  screen.display();
    13a4:	86 e2       	ldi	r24, 0x26	; 38
    13a6:	93 e0       	ldi	r25, 0x03	; 3
    13a8:	20 c6       	rjmp	.+3136   	; 0x1fea <_ZN6Screen7displayEv>

000013aa <loop>:
}

void loop() {
	control.read();
    13aa:	8b e4       	ldi	r24, 0x4B	; 75
    13ac:	94 e0       	ldi	r25, 0x04	; 4
    13ae:	46 d1       	rcall	.+652    	; 0x163c <_ZN7Control4readEv>
	screen.display();
    13b0:	86 e2       	ldi	r24, 0x26	; 38
    13b2:	93 e0       	ldi	r25, 0x03	; 3
    13b4:	1a c6       	rjmp	.+3124   	; 0x1fea <_ZN6Screen7displayEv>

000013b6 <_GLOBAL__sub_I_parameters>:
#define BKGCOLOR 0x0000 // black
#define COLOR 0xF800 // red
#define STROKEWEIGHT 3

#define TLABELS 5
const String tmLabels[TLABELS] = {"OSC.", "FIL.", "ENV.", "FX", "SETT."};
    13b6:	66 ea       	ldi	r22, 0xA6	; 166
    13b8:	72 e0       	ldi	r23, 0x02	; 2
    13ba:	80 e0       	ldi	r24, 0x00	; 0
    13bc:	95 e0       	ldi	r25, 0x05	; 5
    13be:	0e 94 8f 38 	call	0x711e	; 0x711e <_ZN6StringC1EPKc>
    13c2:	6b ea       	ldi	r22, 0xAB	; 171
    13c4:	72 e0       	ldi	r23, 0x02	; 2
    13c6:	86 e0       	ldi	r24, 0x06	; 6
    13c8:	95 e0       	ldi	r25, 0x05	; 5
    13ca:	0e 94 8f 38 	call	0x711e	; 0x711e <_ZN6StringC1EPKc>
    13ce:	60 eb       	ldi	r22, 0xB0	; 176
    13d0:	72 e0       	ldi	r23, 0x02	; 2
    13d2:	8c e0       	ldi	r24, 0x0C	; 12
    13d4:	95 e0       	ldi	r25, 0x05	; 5
    13d6:	0e 94 8f 38 	call	0x711e	; 0x711e <_ZN6StringC1EPKc>
    13da:	65 eb       	ldi	r22, 0xB5	; 181
    13dc:	72 e0       	ldi	r23, 0x02	; 2
    13de:	82 e1       	ldi	r24, 0x12	; 18
    13e0:	95 e0       	ldi	r25, 0x05	; 5
    13e2:	0e 94 8f 38 	call	0x711e	; 0x711e <_ZN6StringC1EPKc>
    13e6:	68 eb       	ldi	r22, 0xB8	; 184
    13e8:	72 e0       	ldi	r23, 0x02	; 2
    13ea:	88 e1       	ldi	r24, 0x18	; 24
    13ec:	95 e0       	ldi	r25, 0x05	; 5
    13ee:	0e 94 8f 38 	call	0x711e	; 0x711e <_ZN6StringC1EPKc>

#define BLABELS 4
const String oscLabels[BLABELS] = {"WAVE:", "FREQ:", "LFO:", "FREQ:"};
    13f2:	6e eb       	ldi	r22, 0xBE	; 190
    13f4:	72 e0       	ldi	r23, 0x02	; 2
    13f6:	88 ee       	ldi	r24, 0xE8	; 232
    13f8:	94 e0       	ldi	r25, 0x04	; 4
    13fa:	0e 94 8f 38 	call	0x711e	; 0x711e <_ZN6StringC1EPKc>
    13fe:	64 ec       	ldi	r22, 0xC4	; 196
    1400:	72 e0       	ldi	r23, 0x02	; 2
    1402:	8e ee       	ldi	r24, 0xEE	; 238
    1404:	94 e0       	ldi	r25, 0x04	; 4
    1406:	0e 94 8f 38 	call	0x711e	; 0x711e <_ZN6StringC1EPKc>
    140a:	6a ec       	ldi	r22, 0xCA	; 202
    140c:	72 e0       	ldi	r23, 0x02	; 2
    140e:	84 ef       	ldi	r24, 0xF4	; 244
    1410:	94 e0       	ldi	r25, 0x04	; 4
    1412:	0e 94 8f 38 	call	0x711e	; 0x711e <_ZN6StringC1EPKc>
    1416:	64 ec       	ldi	r22, 0xC4	; 196
    1418:	72 e0       	ldi	r23, 0x02	; 2
    141a:	8a ef       	ldi	r24, 0xFA	; 250
    141c:	94 e0       	ldi	r25, 0x04	; 4
    141e:	0e 94 8f 38 	call	0x711e	; 0x711e <_ZN6StringC1EPKc>
const String filLabels[BLABELS] = {"TYPE:", "FREQ:", "RES:", "ENV:"};
    1422:	6f ec       	ldi	r22, 0xCF	; 207
    1424:	72 e0       	ldi	r23, 0x02	; 2
    1426:	80 ed       	ldi	r24, 0xD0	; 208
    1428:	94 e0       	ldi	r25, 0x04	; 4
    142a:	0e 94 8f 38 	call	0x711e	; 0x711e <_ZN6StringC1EPKc>
    142e:	64 ec       	ldi	r22, 0xC4	; 196
    1430:	72 e0       	ldi	r23, 0x02	; 2
    1432:	86 ed       	ldi	r24, 0xD6	; 214
    1434:	94 e0       	ldi	r25, 0x04	; 4
    1436:	0e 94 8f 38 	call	0x711e	; 0x711e <_ZN6StringC1EPKc>
    143a:	65 ed       	ldi	r22, 0xD5	; 213
    143c:	72 e0       	ldi	r23, 0x02	; 2
    143e:	8c ed       	ldi	r24, 0xDC	; 220
    1440:	94 e0       	ldi	r25, 0x04	; 4
    1442:	0e 94 8f 38 	call	0x711e	; 0x711e <_ZN6StringC1EPKc>
    1446:	6a ed       	ldi	r22, 0xDA	; 218
    1448:	72 e0       	ldi	r23, 0x02	; 2
    144a:	82 ee       	ldi	r24, 0xE2	; 226
    144c:	94 e0       	ldi	r25, 0x04	; 4
    144e:	0e 94 8f 38 	call	0x711e	; 0x711e <_ZN6StringC1EPKc>
const String envLabels[BLABELS] = {"ATK:", "DEC:", "SUS:", "REL:"};	
    1452:	6f ed       	ldi	r22, 0xDF	; 223
    1454:	72 e0       	ldi	r23, 0x02	; 2
    1456:	88 eb       	ldi	r24, 0xB8	; 184
    1458:	94 e0       	ldi	r25, 0x04	; 4
    145a:	0e 94 8f 38 	call	0x711e	; 0x711e <_ZN6StringC1EPKc>
    145e:	64 ee       	ldi	r22, 0xE4	; 228
    1460:	72 e0       	ldi	r23, 0x02	; 2
    1462:	8e eb       	ldi	r24, 0xBE	; 190
    1464:	94 e0       	ldi	r25, 0x04	; 4
    1466:	0e 94 8f 38 	call	0x711e	; 0x711e <_ZN6StringC1EPKc>
    146a:	69 ee       	ldi	r22, 0xE9	; 233
    146c:	72 e0       	ldi	r23, 0x02	; 2
    146e:	84 ec       	ldi	r24, 0xC4	; 196
    1470:	94 e0       	ldi	r25, 0x04	; 4
    1472:	0e 94 8f 38 	call	0x711e	; 0x711e <_ZN6StringC1EPKc>
    1476:	6e ee       	ldi	r22, 0xEE	; 238
    1478:	72 e0       	ldi	r23, 0x02	; 2
    147a:	8a ec       	ldi	r24, 0xCA	; 202
    147c:	94 e0       	ldi	r25, 0x04	; 4
    147e:	0e 94 8f 38 	call	0x711e	; 0x711e <_ZN6StringC1EPKc>
const String fxLabels[BLABELS] = {"TYPE:", "AMT:", "PARAM:", "LFO:"};
    1482:	6f ec       	ldi	r22, 0xCF	; 207
    1484:	72 e0       	ldi	r23, 0x02	; 2
    1486:	80 ea       	ldi	r24, 0xA0	; 160
    1488:	94 e0       	ldi	r25, 0x04	; 4
    148a:	0e 94 8f 38 	call	0x711e	; 0x711e <_ZN6StringC1EPKc>
    148e:	63 ef       	ldi	r22, 0xF3	; 243
    1490:	72 e0       	ldi	r23, 0x02	; 2
    1492:	86 ea       	ldi	r24, 0xA6	; 166
    1494:	94 e0       	ldi	r25, 0x04	; 4
    1496:	0e 94 8f 38 	call	0x711e	; 0x711e <_ZN6StringC1EPKc>
    149a:	68 ef       	ldi	r22, 0xF8	; 248
    149c:	72 e0       	ldi	r23, 0x02	; 2
    149e:	8c ea       	ldi	r24, 0xAC	; 172
    14a0:	94 e0       	ldi	r25, 0x04	; 4
    14a2:	0e 94 8f 38 	call	0x711e	; 0x711e <_ZN6StringC1EPKc>
    14a6:	6a ec       	ldi	r22, 0xCA	; 202
    14a8:	72 e0       	ldi	r23, 0x02	; 2
    14aa:	82 eb       	ldi	r24, 0xB2	; 178
    14ac:	94 e0       	ldi	r25, 0x04	; 4
    14ae:	0e 94 8f 38 	call	0x711e	; 0x711e <_ZN6StringC1EPKc>
*/
#include "src/Parameters.h"
#include "src/Control.h"
#include "src/Screen.h"

Parameters parameters; 
    14b2:	88 e7       	ldi	r24, 0x78	; 120
    14b4:	94 e0       	ldi	r25, 0x04	; 4
    14b6:	57 d4       	rcall	.+2222   	; 0x1d66 <_ZN10ParametersC1Ev>
Control control(&(parameters.data));
    14b8:	68 e7       	ldi	r22, 0x78	; 120
    14ba:	74 e0       	ldi	r23, 0x04	; 4
    14bc:	8b e4       	ldi	r24, 0x4B	; 75
    14be:	94 e0       	ldi	r25, 0x04	; 4
    14c0:	6a d0       	rcall	.+212    	; 0x1596 <_ZN7ControlC1EPN10Parameters8params_tE>
Screen screen(&(parameters.data), &control); 
    14c2:	4b e4       	ldi	r20, 0x4B	; 75
    14c4:	54 e0       	ldi	r21, 0x04	; 4
    14c6:	68 e7       	ldi	r22, 0x78	; 120
    14c8:	74 e0       	ldi	r23, 0x04	; 4
    14ca:	86 e2       	ldi	r24, 0x26	; 38
    14cc:	93 e0       	ldi	r25, 0x03	; 3
    14ce:	09 c5       	rjmp	.+2578   	; 0x1ee2 <_ZN6ScreenC1EPN10Parameters8params_tEP7Control>

000014d0 <_GLOBAL__sub_D_parameters>:
}

void loop() {
	control.read();
	screen.display();
}
    14d0:	cf 93       	push	r28
    14d2:	df 93       	push	r29
#include "src/Control.h"
#include "src/Screen.h"

Parameters parameters; 
Control control(&(parameters.data));
Screen screen(&(parameters.data), &control); 
    14d4:	86 e2       	ldi	r24, 0x26	; 38
    14d6:	93 e0       	ldi	r25, 0x03	; 3
    14d8:	f3 d4       	rcall	.+2534   	; 0x1ec0 <_ZN6ScreenD1Ev>
#include "src/Parameters.h"
#include "src/Control.h"
#include "src/Screen.h"

Parameters parameters; 
Control control(&(parameters.data));
    14da:	8b e4       	ldi	r24, 0x4B	; 75
    14dc:	94 e0       	ldi	r25, 0x04	; 4
    14de:	5a d0       	rcall	.+180    	; 0x1594 <_ZN7ControlD1Ev>
*/
#include "src/Parameters.h"
#include "src/Control.h"
#include "src/Screen.h"

Parameters parameters; 
    14e0:	88 e7       	ldi	r24, 0x78	; 120
    14e2:	94 e0       	ldi	r25, 0x04	; 4
    14e4:	ec d4       	rcall	.+2520   	; 0x1ebe <_ZN10ParametersD1Ev>
    14e6:	82 eb       	ldi	r24, 0xB2	; 178
    14e8:	94 e0       	ldi	r25, 0x04	; 4
    14ea:	0e 94 28 38 	call	0x7050	; 0x7050 <_ZN6StringD1Ev>
    14ee:	8c ea       	ldi	r24, 0xAC	; 172
    14f0:	94 e0       	ldi	r25, 0x04	; 4
    14f2:	0e 94 28 38 	call	0x7050	; 0x7050 <_ZN6StringD1Ev>
    14f6:	86 ea       	ldi	r24, 0xA6	; 166
    14f8:	94 e0       	ldi	r25, 0x04	; 4
    14fa:	0e 94 28 38 	call	0x7050	; 0x7050 <_ZN6StringD1Ev>
    14fe:	80 ea       	ldi	r24, 0xA0	; 160
    1500:	94 e0       	ldi	r25, 0x04	; 4
    1502:	0e 94 28 38 	call	0x7050	; 0x7050 <_ZN6StringD1Ev>
const String tmLabels[TLABELS] = {"OSC.", "FIL.", "ENV.", "FX", "SETT."};

#define BLABELS 4
const String oscLabels[BLABELS] = {"WAVE:", "FREQ:", "LFO:", "FREQ:"};
const String filLabels[BLABELS] = {"TYPE:", "FREQ:", "RES:", "ENV:"};
const String envLabels[BLABELS] = {"ATK:", "DEC:", "SUS:", "REL:"};	
    1506:	8a ec       	ldi	r24, 0xCA	; 202
    1508:	94 e0       	ldi	r25, 0x04	; 4
    150a:	0e 94 28 38 	call	0x7050	; 0x7050 <_ZN6StringD1Ev>
    150e:	84 ec       	ldi	r24, 0xC4	; 196
    1510:	94 e0       	ldi	r25, 0x04	; 4
    1512:	0e 94 28 38 	call	0x7050	; 0x7050 <_ZN6StringD1Ev>
    1516:	8e eb       	ldi	r24, 0xBE	; 190
    1518:	94 e0       	ldi	r25, 0x04	; 4
    151a:	0e 94 28 38 	call	0x7050	; 0x7050 <_ZN6StringD1Ev>
    151e:	88 eb       	ldi	r24, 0xB8	; 184
    1520:	94 e0       	ldi	r25, 0x04	; 4
    1522:	0e 94 28 38 	call	0x7050	; 0x7050 <_ZN6StringD1Ev>
#define TLABELS 5
const String tmLabels[TLABELS] = {"OSC.", "FIL.", "ENV.", "FX", "SETT."};

#define BLABELS 4
const String oscLabels[BLABELS] = {"WAVE:", "FREQ:", "LFO:", "FREQ:"};
const String filLabels[BLABELS] = {"TYPE:", "FREQ:", "RES:", "ENV:"};
    1526:	82 ee       	ldi	r24, 0xE2	; 226
    1528:	94 e0       	ldi	r25, 0x04	; 4
    152a:	0e 94 28 38 	call	0x7050	; 0x7050 <_ZN6StringD1Ev>
    152e:	8c ed       	ldi	r24, 0xDC	; 220
    1530:	94 e0       	ldi	r25, 0x04	; 4
    1532:	0e 94 28 38 	call	0x7050	; 0x7050 <_ZN6StringD1Ev>
    1536:	86 ed       	ldi	r24, 0xD6	; 214
    1538:	94 e0       	ldi	r25, 0x04	; 4
    153a:	0e 94 28 38 	call	0x7050	; 0x7050 <_ZN6StringD1Ev>
    153e:	80 ed       	ldi	r24, 0xD0	; 208
    1540:	94 e0       	ldi	r25, 0x04	; 4
    1542:	0e 94 28 38 	call	0x7050	; 0x7050 <_ZN6StringD1Ev>

#define TLABELS 5
const String tmLabels[TLABELS] = {"OSC.", "FIL.", "ENV.", "FX", "SETT."};

#define BLABELS 4
const String oscLabels[BLABELS] = {"WAVE:", "FREQ:", "LFO:", "FREQ:"};
    1546:	8a ef       	ldi	r24, 0xFA	; 250
    1548:	94 e0       	ldi	r25, 0x04	; 4
    154a:	0e 94 28 38 	call	0x7050	; 0x7050 <_ZN6StringD1Ev>
    154e:	84 ef       	ldi	r24, 0xF4	; 244
    1550:	94 e0       	ldi	r25, 0x04	; 4
    1552:	0e 94 28 38 	call	0x7050	; 0x7050 <_ZN6StringD1Ev>
    1556:	8e ee       	ldi	r24, 0xEE	; 238
    1558:	94 e0       	ldi	r25, 0x04	; 4
    155a:	0e 94 28 38 	call	0x7050	; 0x7050 <_ZN6StringD1Ev>
    155e:	88 ee       	ldi	r24, 0xE8	; 232
    1560:	94 e0       	ldi	r25, 0x04	; 4
    1562:	0e 94 28 38 	call	0x7050	; 0x7050 <_ZN6StringD1Ev>
    1566:	ce e1       	ldi	r28, 0x1E	; 30
    1568:	d5 e0       	ldi	r29, 0x05	; 5
#define BKGCOLOR 0x0000 // black
#define COLOR 0xF800 // red
#define STROKEWEIGHT 3

#define TLABELS 5
const String tmLabels[TLABELS] = {"OSC.", "FIL.", "ENV.", "FX", "SETT."};
    156a:	26 97       	sbiw	r28, 0x06	; 6
    156c:	ce 01       	movw	r24, r28
    156e:	0e 94 28 38 	call	0x7050	; 0x7050 <_ZN6StringD1Ev>
    1572:	85 e0       	ldi	r24, 0x05	; 5
    1574:	c0 30       	cpi	r28, 0x00	; 0
    1576:	d8 07       	cpc	r29, r24
    1578:	c1 f7       	brne	.-16     	; 0x156a <_GLOBAL__sub_D_parameters+0x9a>
}

void loop() {
	control.read();
	screen.display();
}
    157a:	df 91       	pop	r29
    157c:	cf 91       	pop	r28
    157e:	08 95       	ret

00001580 <_ZN7ControlC1Ev>:
* Created: 19-03-2018 19:47:28
* Author: tiago
*/
#include "Control.h"

Control::Control() // default constructor
    1580:	cf 93       	push	r28
    1582:	df 93       	push	r29
    1584:	ec 01       	movw	r28, r24
    1586:	ef d3       	rcall	.+2014   	; 0x1d66 <_ZN10ParametersC1Ev>
    1588:	81 e0       	ldi	r24, 0x01	; 1
    158a:	8b a7       	std	Y+43, r24	; 0x2b
    158c:	8c a7       	std	Y+44, r24	; 0x2c
{
}
    158e:	df 91       	pop	r29
    1590:	cf 91       	pop	r28
    1592:	08 95       	ret

00001594 <_ZN7ControlD1Ev>:
Control::~Control() // default destructor
    1594:	94 c4       	rjmp	.+2344   	; 0x1ebe <_ZN10ParametersD1Ev>

00001596 <_ZN7ControlC1EPN10Parameters8params_tE>:
{
}
Control::Control(params_t *p){  // pass parameters structure by reference
    1596:	0f 93       	push	r16
    1598:	1f 93       	push	r17
    159a:	cf 93       	push	r28
    159c:	df 93       	push	r29
    159e:	ec 01       	movw	r28, r24
    15a0:	8b 01       	movw	r16, r22
    15a2:	e1 d3       	rcall	.+1986   	; 0x1d66 <_ZN10ParametersC1Ev>
    15a4:	81 e0       	ldi	r24, 0x01	; 1
    15a6:	8b a7       	std	Y+43, r24	; 0x2b
    15a8:	8c a7       	std	Y+44, r24	; 0x2c
	paramsPtr = p;
    15aa:	1a a7       	std	Y+42, r17	; 0x2a
    15ac:	09 a7       	std	Y+41, r16	; 0x29
	pinMode(MENUPIN, INPUT_PULLUP);
    15ae:	62 e0       	ldi	r22, 0x02	; 2
    15b0:	8e e0       	ldi	r24, 0x0E	; 14
    15b2:	0e 94 96 37 	call	0x6f2c	; 0x6f2c <pinMode>
	menuChange = false;
    15b6:	18 a6       	std	Y+40, r1	; 0x28
}
    15b8:	df 91       	pop	r29
    15ba:	cf 91       	pop	r28
    15bc:	1f 91       	pop	r17
    15be:	0f 91       	pop	r16
    15c0:	08 95       	ret

000015c2 <_ZN7Control13incrementMenuEv>:
		Serial.print("menu: ");
		Serial.println(paramsPtr->menu);
	}
	button[1] = button[0];
}
void Control::incrementMenu(){
    15c2:	fc 01       	movw	r30, r24
	paramsPtr->menu++;
    15c4:	a1 a5       	ldd	r26, Z+41	; 0x29
    15c6:	b2 a5       	ldd	r27, Z+42	; 0x2a
    15c8:	9c 91       	ld	r25, X
    15ca:	9f 5f       	subi	r25, 0xFF	; 255
    15cc:	9c 93       	st	X, r25
	if (paramsPtr->menu > 4) paramsPtr->menu=0;
    15ce:	01 a4       	ldd	r0, Z+41	; 0x29
    15d0:	f2 a5       	ldd	r31, Z+42	; 0x2a
    15d2:	e0 2d       	mov	r30, r0
    15d4:	80 81       	ld	r24, Z
    15d6:	85 30       	cpi	r24, 0x05	; 5
    15d8:	08 f0       	brcs	.+2      	; 0x15dc <_ZN7Control13incrementMenuEv+0x1a>
    15da:	10 82       	st	Z, r1
    15dc:	08 95       	ret

000015de <_ZN7Control11readMButtonEv>:
}

void Control::read(){
	readMButton();
}
void Control::readMButton(){
    15de:	cf 93       	push	r28
    15e0:	df 93       	push	r29
    15e2:	ec 01       	movw	r28, r24
	button[0] = digitalRead(MENUPIN);
    15e4:	8e e0       	ldi	r24, 0x0E	; 14
    15e6:	0e 94 00 38 	call	0x7000	; 0x7000 <digitalRead>
    15ea:	21 e0       	ldi	r18, 0x01	; 1
    15ec:	89 2b       	or	r24, r25
    15ee:	09 f4       	brne	.+2      	; 0x15f2 <_ZN7Control11readMButtonEv+0x14>
    15f0:	20 e0       	ldi	r18, 0x00	; 0
    15f2:	2b a7       	std	Y+43, r18	; 0x2b
	delay(10); // improves readings
    15f4:	6a e0       	ldi	r22, 0x0A	; 10
    15f6:	70 e0       	ldi	r23, 0x00	; 0
    15f8:	80 e0       	ldi	r24, 0x00	; 0
    15fa:	90 e0       	ldi	r25, 0x00	; 0
    15fc:	0e 94 a6 36 	call	0x6d4c	; 0x6d4c <delay>
	if(button[0]==0 && button[0] != button[1]){
    1600:	8b a5       	ldd	r24, Y+43	; 0x2b
    1602:	81 11       	cpse	r24, r1
    1604:	16 c0       	rjmp	.+44     	; 0x1632 <_ZN7Control11readMButtonEv+0x54>
    1606:	8c a5       	ldd	r24, Y+44	; 0x2c
    1608:	88 23       	and	r24, r24
    160a:	99 f0       	breq	.+38     	; 0x1632 <_ZN7Control11readMButtonEv+0x54>
		incrementMenu();
    160c:	ce 01       	movw	r24, r28
    160e:	d9 df       	rcall	.-78     	; 0x15c2 <_ZN7Control13incrementMenuEv>
		menuChange = true;
    1610:	81 e0       	ldi	r24, 0x01	; 1
    1612:	88 a7       	std	Y+40, r24	; 0x28
		Serial.print("menu: ");
    1614:	6f ef       	ldi	r22, 0xFF	; 255
    1616:	72 e0       	ldi	r23, 0x02	; 2
    1618:	88 e9       	ldi	r24, 0x98	; 152
    161a:	96 e0       	ldi	r25, 0x06	; 6
    161c:	0e 94 ca 35 	call	0x6b94	; 0x6b94 <_ZN5Print5printEPKc>
		Serial.println(paramsPtr->menu);
    1620:	e9 a5       	ldd	r30, Y+41	; 0x29
    1622:	fa a5       	ldd	r31, Y+42	; 0x2a
    1624:	4a e0       	ldi	r20, 0x0A	; 10
    1626:	50 e0       	ldi	r21, 0x00	; 0
    1628:	60 81       	ld	r22, Z
    162a:	88 e9       	ldi	r24, 0x98	; 152
    162c:	96 e0       	ldi	r25, 0x06	; 6
    162e:	0e 94 27 36 	call	0x6c4e	; 0x6c4e <_ZN5Print7printlnEhi>
	}
	button[1] = button[0];
    1632:	8b a5       	ldd	r24, Y+43	; 0x2b
    1634:	8c a7       	std	Y+44, r24	; 0x2c
}
    1636:	df 91       	pop	r29
    1638:	cf 91       	pop	r28
    163a:	08 95       	ret

0000163c <_ZN7Control4readEv>:
	pinMode(MENUPIN, INPUT_PULLUP);
	menuChange = false;
}

void Control::read(){
	readMButton();
    163c:	d0 cf       	rjmp	.-96     	; 0x15de <_ZN7Control11readMButtonEv>

0000163e <_GLOBAL__sub_I__ZN7ControlC2Ev>:
#define BKGCOLOR 0x0000 // black
#define COLOR 0xF800 // red
#define STROKEWEIGHT 3

#define TLABELS 5
const String tmLabels[TLABELS] = {"OSC.", "FIL.", "ENV.", "FX", "SETT."};
    163e:	66 ea       	ldi	r22, 0xA6	; 166
    1640:	72 e0       	ldi	r23, 0x02	; 2
    1642:	8e e7       	ldi	r24, 0x7E	; 126
    1644:	95 e0       	ldi	r25, 0x05	; 5
    1646:	0e 94 8f 38 	call	0x711e	; 0x711e <_ZN6StringC1EPKc>
    164a:	6b ea       	ldi	r22, 0xAB	; 171
    164c:	72 e0       	ldi	r23, 0x02	; 2
    164e:	84 e8       	ldi	r24, 0x84	; 132
    1650:	95 e0       	ldi	r25, 0x05	; 5
    1652:	0e 94 8f 38 	call	0x711e	; 0x711e <_ZN6StringC1EPKc>
    1656:	60 eb       	ldi	r22, 0xB0	; 176
    1658:	72 e0       	ldi	r23, 0x02	; 2
    165a:	8a e8       	ldi	r24, 0x8A	; 138
    165c:	95 e0       	ldi	r25, 0x05	; 5
    165e:	0e 94 8f 38 	call	0x711e	; 0x711e <_ZN6StringC1EPKc>
    1662:	65 eb       	ldi	r22, 0xB5	; 181
    1664:	72 e0       	ldi	r23, 0x02	; 2
    1666:	80 e9       	ldi	r24, 0x90	; 144
    1668:	95 e0       	ldi	r25, 0x05	; 5
    166a:	0e 94 8f 38 	call	0x711e	; 0x711e <_ZN6StringC1EPKc>
    166e:	68 eb       	ldi	r22, 0xB8	; 184
    1670:	72 e0       	ldi	r23, 0x02	; 2
    1672:	86 e9       	ldi	r24, 0x96	; 150
    1674:	95 e0       	ldi	r25, 0x05	; 5
    1676:	0e 94 8f 38 	call	0x711e	; 0x711e <_ZN6StringC1EPKc>

#define BLABELS 4
const String oscLabels[BLABELS] = {"WAVE:", "FREQ:", "LFO:", "FREQ:"};
    167a:	6e eb       	ldi	r22, 0xBE	; 190
    167c:	72 e0       	ldi	r23, 0x02	; 2
    167e:	86 e6       	ldi	r24, 0x66	; 102
    1680:	95 e0       	ldi	r25, 0x05	; 5
    1682:	0e 94 8f 38 	call	0x711e	; 0x711e <_ZN6StringC1EPKc>
    1686:	64 ec       	ldi	r22, 0xC4	; 196
    1688:	72 e0       	ldi	r23, 0x02	; 2
    168a:	8c e6       	ldi	r24, 0x6C	; 108
    168c:	95 e0       	ldi	r25, 0x05	; 5
    168e:	0e 94 8f 38 	call	0x711e	; 0x711e <_ZN6StringC1EPKc>
    1692:	6a ec       	ldi	r22, 0xCA	; 202
    1694:	72 e0       	ldi	r23, 0x02	; 2
    1696:	82 e7       	ldi	r24, 0x72	; 114
    1698:	95 e0       	ldi	r25, 0x05	; 5
    169a:	0e 94 8f 38 	call	0x711e	; 0x711e <_ZN6StringC1EPKc>
    169e:	64 ec       	ldi	r22, 0xC4	; 196
    16a0:	72 e0       	ldi	r23, 0x02	; 2
    16a2:	88 e7       	ldi	r24, 0x78	; 120
    16a4:	95 e0       	ldi	r25, 0x05	; 5
    16a6:	0e 94 8f 38 	call	0x711e	; 0x711e <_ZN6StringC1EPKc>
const String filLabels[BLABELS] = {"TYPE:", "FREQ:", "RES:", "ENV:"};
    16aa:	6f ec       	ldi	r22, 0xCF	; 207
    16ac:	72 e0       	ldi	r23, 0x02	; 2
    16ae:	8e e4       	ldi	r24, 0x4E	; 78
    16b0:	95 e0       	ldi	r25, 0x05	; 5
    16b2:	0e 94 8f 38 	call	0x711e	; 0x711e <_ZN6StringC1EPKc>
    16b6:	64 ec       	ldi	r22, 0xC4	; 196
    16b8:	72 e0       	ldi	r23, 0x02	; 2
    16ba:	84 e5       	ldi	r24, 0x54	; 84
    16bc:	95 e0       	ldi	r25, 0x05	; 5
    16be:	0e 94 8f 38 	call	0x711e	; 0x711e <_ZN6StringC1EPKc>
    16c2:	65 ed       	ldi	r22, 0xD5	; 213
    16c4:	72 e0       	ldi	r23, 0x02	; 2
    16c6:	8a e5       	ldi	r24, 0x5A	; 90
    16c8:	95 e0       	ldi	r25, 0x05	; 5
    16ca:	0e 94 8f 38 	call	0x711e	; 0x711e <_ZN6StringC1EPKc>
    16ce:	6a ed       	ldi	r22, 0xDA	; 218
    16d0:	72 e0       	ldi	r23, 0x02	; 2
    16d2:	80 e6       	ldi	r24, 0x60	; 96
    16d4:	95 e0       	ldi	r25, 0x05	; 5
    16d6:	0e 94 8f 38 	call	0x711e	; 0x711e <_ZN6StringC1EPKc>
const String envLabels[BLABELS] = {"ATK:", "DEC:", "SUS:", "REL:"};	
    16da:	6f ed       	ldi	r22, 0xDF	; 223
    16dc:	72 e0       	ldi	r23, 0x02	; 2
    16de:	86 e3       	ldi	r24, 0x36	; 54
    16e0:	95 e0       	ldi	r25, 0x05	; 5
    16e2:	0e 94 8f 38 	call	0x711e	; 0x711e <_ZN6StringC1EPKc>
    16e6:	64 ee       	ldi	r22, 0xE4	; 228
    16e8:	72 e0       	ldi	r23, 0x02	; 2
    16ea:	8c e3       	ldi	r24, 0x3C	; 60
    16ec:	95 e0       	ldi	r25, 0x05	; 5
    16ee:	0e 94 8f 38 	call	0x711e	; 0x711e <_ZN6StringC1EPKc>
    16f2:	69 ee       	ldi	r22, 0xE9	; 233
    16f4:	72 e0       	ldi	r23, 0x02	; 2
    16f6:	82 e4       	ldi	r24, 0x42	; 66
    16f8:	95 e0       	ldi	r25, 0x05	; 5
    16fa:	0e 94 8f 38 	call	0x711e	; 0x711e <_ZN6StringC1EPKc>
    16fe:	6e ee       	ldi	r22, 0xEE	; 238
    1700:	72 e0       	ldi	r23, 0x02	; 2
    1702:	88 e4       	ldi	r24, 0x48	; 72
    1704:	95 e0       	ldi	r25, 0x05	; 5
    1706:	0e 94 8f 38 	call	0x711e	; 0x711e <_ZN6StringC1EPKc>
const String fxLabels[BLABELS] = {"TYPE:", "AMT:", "PARAM:", "LFO:"};
    170a:	6f ec       	ldi	r22, 0xCF	; 207
    170c:	72 e0       	ldi	r23, 0x02	; 2
    170e:	8e e1       	ldi	r24, 0x1E	; 30
    1710:	95 e0       	ldi	r25, 0x05	; 5
    1712:	0e 94 8f 38 	call	0x711e	; 0x711e <_ZN6StringC1EPKc>
    1716:	63 ef       	ldi	r22, 0xF3	; 243
    1718:	72 e0       	ldi	r23, 0x02	; 2
    171a:	84 e2       	ldi	r24, 0x24	; 36
    171c:	95 e0       	ldi	r25, 0x05	; 5
    171e:	0e 94 8f 38 	call	0x711e	; 0x711e <_ZN6StringC1EPKc>
    1722:	68 ef       	ldi	r22, 0xF8	; 248
    1724:	72 e0       	ldi	r23, 0x02	; 2
    1726:	8a e2       	ldi	r24, 0x2A	; 42
    1728:	95 e0       	ldi	r25, 0x05	; 5
    172a:	0e 94 8f 38 	call	0x711e	; 0x711e <_ZN6StringC1EPKc>
    172e:	6a ec       	ldi	r22, 0xCA	; 202
    1730:	72 e0       	ldi	r23, 0x02	; 2
    1732:	80 e3       	ldi	r24, 0x30	; 48
    1734:	95 e0       	ldi	r25, 0x05	; 5
    1736:	0c 94 8f 38 	jmp	0x711e	; 0x711e <_ZN6StringC1EPKc>

0000173a <_GLOBAL__sub_D__ZN7ControlC2Ev>:
	button[1] = button[0];
}
void Control::incrementMenu(){
	paramsPtr->menu++;
	if (paramsPtr->menu > 4) paramsPtr->menu=0;
}
    173a:	cf 93       	push	r28
    173c:	df 93       	push	r29
    173e:	80 e3       	ldi	r24, 0x30	; 48
    1740:	95 e0       	ldi	r25, 0x05	; 5
    1742:	0e 94 28 38 	call	0x7050	; 0x7050 <_ZN6StringD1Ev>
    1746:	8a e2       	ldi	r24, 0x2A	; 42
    1748:	95 e0       	ldi	r25, 0x05	; 5
    174a:	0e 94 28 38 	call	0x7050	; 0x7050 <_ZN6StringD1Ev>
    174e:	84 e2       	ldi	r24, 0x24	; 36
    1750:	95 e0       	ldi	r25, 0x05	; 5
    1752:	0e 94 28 38 	call	0x7050	; 0x7050 <_ZN6StringD1Ev>
    1756:	8e e1       	ldi	r24, 0x1E	; 30
    1758:	95 e0       	ldi	r25, 0x05	; 5
    175a:	0e 94 28 38 	call	0x7050	; 0x7050 <_ZN6StringD1Ev>
const String tmLabels[TLABELS] = {"OSC.", "FIL.", "ENV.", "FX", "SETT."};

#define BLABELS 4
const String oscLabels[BLABELS] = {"WAVE:", "FREQ:", "LFO:", "FREQ:"};
const String filLabels[BLABELS] = {"TYPE:", "FREQ:", "RES:", "ENV:"};
const String envLabels[BLABELS] = {"ATK:", "DEC:", "SUS:", "REL:"};	
    175e:	88 e4       	ldi	r24, 0x48	; 72
    1760:	95 e0       	ldi	r25, 0x05	; 5
    1762:	0e 94 28 38 	call	0x7050	; 0x7050 <_ZN6StringD1Ev>
    1766:	82 e4       	ldi	r24, 0x42	; 66
    1768:	95 e0       	ldi	r25, 0x05	; 5
    176a:	0e 94 28 38 	call	0x7050	; 0x7050 <_ZN6StringD1Ev>
    176e:	8c e3       	ldi	r24, 0x3C	; 60
    1770:	95 e0       	ldi	r25, 0x05	; 5
    1772:	0e 94 28 38 	call	0x7050	; 0x7050 <_ZN6StringD1Ev>
    1776:	86 e3       	ldi	r24, 0x36	; 54
    1778:	95 e0       	ldi	r25, 0x05	; 5
    177a:	0e 94 28 38 	call	0x7050	; 0x7050 <_ZN6StringD1Ev>
#define TLABELS 5
const String tmLabels[TLABELS] = {"OSC.", "FIL.", "ENV.", "FX", "SETT."};

#define BLABELS 4
const String oscLabels[BLABELS] = {"WAVE:", "FREQ:", "LFO:", "FREQ:"};
const String filLabels[BLABELS] = {"TYPE:", "FREQ:", "RES:", "ENV:"};
    177e:	80 e6       	ldi	r24, 0x60	; 96
    1780:	95 e0       	ldi	r25, 0x05	; 5
    1782:	0e 94 28 38 	call	0x7050	; 0x7050 <_ZN6StringD1Ev>
    1786:	8a e5       	ldi	r24, 0x5A	; 90
    1788:	95 e0       	ldi	r25, 0x05	; 5
    178a:	0e 94 28 38 	call	0x7050	; 0x7050 <_ZN6StringD1Ev>
    178e:	84 e5       	ldi	r24, 0x54	; 84
    1790:	95 e0       	ldi	r25, 0x05	; 5
    1792:	0e 94 28 38 	call	0x7050	; 0x7050 <_ZN6StringD1Ev>
    1796:	8e e4       	ldi	r24, 0x4E	; 78
    1798:	95 e0       	ldi	r25, 0x05	; 5
    179a:	0e 94 28 38 	call	0x7050	; 0x7050 <_ZN6StringD1Ev>

#define TLABELS 5
const String tmLabels[TLABELS] = {"OSC.", "FIL.", "ENV.", "FX", "SETT."};

#define BLABELS 4
const String oscLabels[BLABELS] = {"WAVE:", "FREQ:", "LFO:", "FREQ:"};
    179e:	88 e7       	ldi	r24, 0x78	; 120
    17a0:	95 e0       	ldi	r25, 0x05	; 5
    17a2:	0e 94 28 38 	call	0x7050	; 0x7050 <_ZN6StringD1Ev>
    17a6:	82 e7       	ldi	r24, 0x72	; 114
    17a8:	95 e0       	ldi	r25, 0x05	; 5
    17aa:	0e 94 28 38 	call	0x7050	; 0x7050 <_ZN6StringD1Ev>
    17ae:	8c e6       	ldi	r24, 0x6C	; 108
    17b0:	95 e0       	ldi	r25, 0x05	; 5
    17b2:	0e 94 28 38 	call	0x7050	; 0x7050 <_ZN6StringD1Ev>
    17b6:	86 e6       	ldi	r24, 0x66	; 102
    17b8:	95 e0       	ldi	r25, 0x05	; 5
    17ba:	0e 94 28 38 	call	0x7050	; 0x7050 <_ZN6StringD1Ev>
    17be:	cc e9       	ldi	r28, 0x9C	; 156
    17c0:	d5 e0       	ldi	r29, 0x05	; 5
#define BKGCOLOR 0x0000 // black
#define COLOR 0xF800 // red
#define STROKEWEIGHT 3

#define TLABELS 5
const String tmLabels[TLABELS] = {"OSC.", "FIL.", "ENV.", "FX", "SETT."};
    17c2:	26 97       	sbiw	r28, 0x06	; 6
    17c4:	ce 01       	movw	r24, r28
    17c6:	0e 94 28 38 	call	0x7050	; 0x7050 <_ZN6StringD1Ev>
    17ca:	85 e0       	ldi	r24, 0x05	; 5
    17cc:	ce 37       	cpi	r28, 0x7E	; 126
    17ce:	d8 07       	cpc	r29, r24
    17d0:	c1 f7       	brne	.-16     	; 0x17c2 <_GLOBAL__sub_D__ZN7ControlC2Ev+0x88>
    17d2:	df 91       	pop	r29
    17d4:	cf 91       	pop	r28
    17d6:	08 95       	ret

000017d8 <_ZN5MenusC1Ev>:
* Created: 19-03-2018 23:46:03
* Author: tiago
*/
#include "Menus.h"

Menus::Menus() // default constructor
    17d8:	cf 93       	push	r28
    17da:	df 93       	push	r29
    17dc:	ec 01       	movw	r28, r24
    17de:	c3 d2       	rcall	.+1414   	; 0x1d66 <_ZN10ParametersC1Ev>
{
	tWidth = WIDTH/TLABELS; // 96px
    17e0:	80 e6       	ldi	r24, 0x60	; 96
    17e2:	8e a7       	std	Y+46, r24	; 0x2e
	bWidth = WIDTH/BLABELS; // 120px
    17e4:	88 e7       	ldi	r24, 0x78	; 120
    17e6:	8f a7       	std	Y+47, r24	; 0x2f
	height = HEIGHT/8; // 40px
    17e8:	88 e2       	ldi	r24, 0x28	; 40
    17ea:	88 ab       	std	Y+48, r24	; 0x30
}
    17ec:	df 91       	pop	r29
    17ee:	cf 91       	pop	r28
    17f0:	08 95       	ret

000017f2 <_ZN5MenusD1Ev>:
Menus::~Menus() // default destructor
    17f2:	65 c3       	rjmp	.+1738   	; 0x1ebe <_ZN10ParametersD1Ev>

000017f4 <_ZN5Menus11passObjectsEP4UTFTPhS2_PN10Parameters8params_tE>:
{
}
void Menus::passObjects(UTFT *obj, uint8_t *sF, uint8_t *bF, params_t *p){
    17f4:	0f 93       	push	r16
    17f6:	1f 93       	push	r17
    17f8:	fc 01       	movw	r30, r24
	mLCD = obj;
    17fa:	71 a7       	std	Z+41, r23	; 0x29
    17fc:	60 a7       	std	Z+40, r22	; 0x28
	sFont = sF;
    17fe:	55 a7       	std	Z+45, r21	; 0x2d
    1800:	44 a7       	std	Z+44, r20	; 0x2c
	bFont = bF;
    1802:	33 a7       	std	Z+43, r19	; 0x2b
    1804:	22 a7       	std	Z+42, r18	; 0x2a
	paramsPtr = p;
    1806:	12 ab       	std	Z+50, r17	; 0x32
    1808:	01 ab       	std	Z+49, r16	; 0x31
}
    180a:	1f 91       	pop	r17
    180c:	0f 91       	pop	r16
    180e:	08 95       	ret

00001810 <_ZN5Menus11drawTopMenuEv>:
void Menus::draw(){
	drawBottomMenu();
	drawTopMenu();
}

void Menus::drawTopMenu(){
    1810:	8f 92       	push	r8
    1812:	9f 92       	push	r9
    1814:	af 92       	push	r10
    1816:	bf 92       	push	r11
    1818:	cf 92       	push	r12
    181a:	df 92       	push	r13
    181c:	ef 92       	push	r14
    181e:	ff 92       	push	r15
    1820:	0f 93       	push	r16
    1822:	1f 93       	push	r17
    1824:	cf 93       	push	r28
    1826:	df 93       	push	r29
    1828:	00 d0       	rcall	.+0      	; 0x182a <_ZN5Menus11drawTopMenuEv+0x1a>
    182a:	00 d0       	rcall	.+0      	; 0x182c <_ZN5Menus11drawTopMenuEv+0x1c>
    182c:	cd b7       	in	r28, 0x3d	; 61
    182e:	de b7       	in	r29, 0x3e	; 62
    1830:	7c 01       	movw	r14, r24
	mLCD->setFont(bFont); // set font
    1832:	dc 01       	movw	r26, r24
    1834:	9a 96       	adiw	r26, 0x2a	; 42
    1836:	6d 91       	ld	r22, X+
    1838:	7c 91       	ld	r23, X
    183a:	9b 97       	sbiw	r26, 0x2b	; 43
    183c:	98 96       	adiw	r26, 0x28	; 40
    183e:	8d 91       	ld	r24, X+
    1840:	9c 91       	ld	r25, X
    1842:	99 97       	sbiw	r26, 0x29	; 41
    1844:	0e 94 c0 32 	call	0x6580	; 0x6580 <_ZN4UTFT7setFontEPh>
	// draw outer rect
	mLCD->setColor(COLOR);
    1848:	60 e0       	ldi	r22, 0x00	; 0
    184a:	78 ef       	ldi	r23, 0xF8	; 248
    184c:	f7 01       	movw	r30, r14
    184e:	80 a5       	ldd	r24, Z+40	; 0x28
    1850:	91 a5       	ldd	r25, Z+41	; 0x29
    1852:	0e 94 a1 2c 	call	0x5942	; 0x5942 <_ZN4UTFT8setColorEj>
	mLCD->fillRect(ORIGIN, ORIGIN, WIDTH, height);
    1856:	d7 01       	movw	r26, r14
    1858:	d0 96       	adiw	r26, 0x30	; 48
    185a:	0c 91       	ld	r16, X
    185c:	d0 97       	sbiw	r26, 0x30	; 48
    185e:	10 e0       	ldi	r17, 0x00	; 0
    1860:	20 ee       	ldi	r18, 0xE0	; 224
    1862:	31 e0       	ldi	r19, 0x01	; 1
    1864:	40 e0       	ldi	r20, 0x00	; 0
    1866:	50 e0       	ldi	r21, 0x00	; 0
    1868:	60 e0       	ldi	r22, 0x00	; 0
    186a:	70 e0       	ldi	r23, 0x00	; 0
    186c:	98 96       	adiw	r26, 0x28	; 40
    186e:	8d 91       	ld	r24, X+
    1870:	9c 91       	ld	r25, X
    1872:	99 97       	sbiw	r26, 0x29	; 41
    1874:	0e 94 7b 2d 	call	0x5af6	; 0x5af6 <_ZN4UTFT8fillRectEiiii>
    1878:	8c ef       	ldi	r24, 0xFC	; 252
    187a:	a8 2e       	mov	r10, r24
    187c:	85 e0       	ldi	r24, 0x05	; 5
    187e:	b8 2e       	mov	r11, r24

	
	// draw inner rects and labels
	for(int i = 0; i < 5; i++){
    1880:	c1 2c       	mov	r12, r1
    1882:	d1 2c       	mov	r13, r1
		if (i != paramsPtr->menu){ // print all but selected
    1884:	d7 01       	movw	r26, r14
    1886:	d1 96       	adiw	r26, 0x31	; 49
    1888:	ed 91       	ld	r30, X+
    188a:	fc 91       	ld	r31, X
    188c:	d2 97       	sbiw	r26, 0x32	; 50
    188e:	20 81       	ld	r18, Z
    1890:	30 e0       	ldi	r19, 0x00	; 0
    1892:	98 96       	adiw	r26, 0x28	; 40
    1894:	8d 91       	ld	r24, X+
    1896:	9c 91       	ld	r25, X
    1898:	99 97       	sbiw	r26, 0x29	; 41
    189a:	f6 01       	movw	r30, r12
    189c:	31 96       	adiw	r30, 0x01	; 1
    189e:	4f 01       	movw	r8, r30
			mLCD->setColor(BKGCOLOR);
    18a0:	60 e0       	ldi	r22, 0x00	; 0
    18a2:	70 e0       	ldi	r23, 0x00	; 0
	mLCD->fillRect(ORIGIN, ORIGIN, WIDTH, height);

	
	// draw inner rects and labels
	for(int i = 0; i < 5; i++){
		if (i != paramsPtr->menu){ // print all but selected
    18a4:	2c 15       	cp	r18, r12
    18a6:	3d 05       	cpc	r19, r13
    18a8:	09 f4       	brne	.+2      	; 0x18ac <_ZN5Menus11drawTopMenuEv+0x9c>
    18aa:	56 c0       	rjmp	.+172    	; 0x1958 <_ZN5Menus11drawTopMenuEv+0x148>
			mLCD->setColor(BKGCOLOR);
    18ac:	0e 94 a1 2c 	call	0x5942	; 0x5942 <_ZN4UTFT8setColorEj>
			//              start X                 start Y        end X                      end Y
			mLCD->fillRect( (tWidth*i)+STROKEWEIGHT, STROKEWEIGHT, (tWidth*(i+1))-STROKEWEIGHT, height-STROKEWEIGHT );
    18b0:	d7 01       	movw	r26, r14
    18b2:	9e 96       	adiw	r26, 0x2e	; 46
    18b4:	8c 91       	ld	r24, X
    18b6:	9e 97       	sbiw	r26, 0x2e	; 46
    18b8:	90 e0       	ldi	r25, 0x00	; 0
    18ba:	d0 96       	adiw	r26, 0x30	; 48
    18bc:	0c 91       	ld	r16, X
    18be:	d0 97       	sbiw	r26, 0x30	; 48
    18c0:	10 e0       	ldi	r17, 0x00	; 0
    18c2:	03 50       	subi	r16, 0x03	; 3
    18c4:	11 09       	sbc	r17, r1
    18c6:	88 9e       	mul	r8, r24
    18c8:	90 01       	movw	r18, r0
    18ca:	89 9e       	mul	r8, r25
    18cc:	30 0d       	add	r19, r0
    18ce:	98 9e       	mul	r9, r24
    18d0:	30 0d       	add	r19, r0
    18d2:	11 24       	eor	r1, r1
    18d4:	23 50       	subi	r18, 0x03	; 3
    18d6:	31 09       	sbc	r19, r1
    18d8:	8c 9d       	mul	r24, r12
    18da:	b0 01       	movw	r22, r0
    18dc:	8d 9d       	mul	r24, r13
    18de:	70 0d       	add	r23, r0
    18e0:	9c 9d       	mul	r25, r12
    18e2:	70 0d       	add	r23, r0
    18e4:	11 24       	eor	r1, r1
    18e6:	6d 5f       	subi	r22, 0xFD	; 253
    18e8:	7f 4f       	sbci	r23, 0xFF	; 255
    18ea:	43 e0       	ldi	r20, 0x03	; 3
    18ec:	50 e0       	ldi	r21, 0x00	; 0
    18ee:	98 96       	adiw	r26, 0x28	; 40
    18f0:	8d 91       	ld	r24, X+
    18f2:	9c 91       	ld	r25, X
    18f4:	99 97       	sbiw	r26, 0x29	; 41
    18f6:	0e 94 7b 2d 	call	0x5af6	; 0x5af6 <_ZN4UTFT8fillRectEiiii>
			mLCD->setColor(COLOR);
    18fa:	60 e0       	ldi	r22, 0x00	; 0
    18fc:	78 ef       	ldi	r23, 0xF8	; 248
    18fe:	f7 01       	movw	r30, r14
    1900:	80 a5       	ldd	r24, Z+40	; 0x28
    1902:	91 a5       	ldd	r25, Z+41	; 0x29
    1904:	0e 94 a1 2c 	call	0x5942	; 0x5942 <_ZN4UTFT8setColorEj>
			mLCD->setBackColor(BKGCOLOR);
    1908:	40 e0       	ldi	r20, 0x00	; 0
    190a:	50 e0       	ldi	r21, 0x00	; 0
    190c:	ba 01       	movw	r22, r20
    190e:	d7 01       	movw	r26, r14
    1910:	98 96       	adiw	r26, 0x28	; 40
    1912:	8d 91       	ld	r24, X+
    1914:	9c 91       	ld	r25, X
    1916:	99 97       	sbiw	r26, 0x29	; 41
    1918:	0e 94 a5 2c 	call	0x594a	; 0x594a <_ZN4UTFT12setBackColorEm>
			mLCD->print(tmLabels[i], (tWidth*i)+STROKEWEIGHT, 10);
    191c:	f7 01       	movw	r30, r14
    191e:	26 a5       	ldd	r18, Z+46	; 0x2e
    1920:	2c 9d       	mul	r18, r12
    1922:	c0 01       	movw	r24, r0
    1924:	2d 9d       	mul	r18, r13
    1926:	90 0d       	add	r25, r0
    1928:	11 24       	eor	r1, r1
    192a:	6c 01       	movw	r12, r24
    192c:	f3 e0       	ldi	r31, 0x03	; 3
    192e:	cf 0e       	add	r12, r31
    1930:	d1 1c       	adc	r13, r1
    1932:	b5 01       	movw	r22, r10
    1934:	ce 01       	movw	r24, r28
    1936:	01 96       	adiw	r24, 0x01	; 1
    1938:	0e 94 b8 38 	call	0x7170	; 0x7170 <_ZN6StringC1ERKS_>
    193c:	00 e0       	ldi	r16, 0x00	; 0
    193e:	10 e0       	ldi	r17, 0x00	; 0
    1940:	2a e0       	ldi	r18, 0x0A	; 10
    1942:	30 e0       	ldi	r19, 0x00	; 0
    1944:	a6 01       	movw	r20, r12
    1946:	be 01       	movw	r22, r28
    1948:	6f 5f       	subi	r22, 0xFF	; 255
    194a:	7f 4f       	sbci	r23, 0xFF	; 255
    194c:	d7 01       	movw	r26, r14
    194e:	98 96       	adiw	r26, 0x28	; 40
    1950:	8d 91       	ld	r24, X+
    1952:	9c 91       	ld	r25, X
    1954:	99 97       	sbiw	r26, 0x29	; 41
    1956:	27 c0       	rjmp	.+78     	; 0x19a6 <_ZN5Menus11drawTopMenuEv+0x196>
		}
		else{ // print selected
			mLCD->setColor(BKGCOLOR);
    1958:	0e 94 a1 2c 	call	0x5942	; 0x5942 <_ZN4UTFT8setColorEj>
			mLCD->setBackColor(COLOR);
    195c:	40 e0       	ldi	r20, 0x00	; 0
    195e:	58 ef       	ldi	r21, 0xF8	; 248
    1960:	60 e0       	ldi	r22, 0x00	; 0
    1962:	70 e0       	ldi	r23, 0x00	; 0
    1964:	f7 01       	movw	r30, r14
    1966:	80 a5       	ldd	r24, Z+40	; 0x28
    1968:	91 a5       	ldd	r25, Z+41	; 0x29
    196a:	0e 94 a5 2c 	call	0x594a	; 0x594a <_ZN4UTFT12setBackColorEm>
			mLCD->print(tmLabels[i], (tWidth*i)+STROKEWEIGHT, 10);
    196e:	d7 01       	movw	r26, r14
    1970:	9e 96       	adiw	r26, 0x2e	; 46
    1972:	2c 91       	ld	r18, X
    1974:	2c 9d       	mul	r18, r12
    1976:	c0 01       	movw	r24, r0
    1978:	2d 9d       	mul	r18, r13
    197a:	90 0d       	add	r25, r0
    197c:	11 24       	eor	r1, r1
    197e:	6c 01       	movw	r12, r24
    1980:	b3 e0       	ldi	r27, 0x03	; 3
    1982:	cb 0e       	add	r12, r27
    1984:	d1 1c       	adc	r13, r1
    1986:	b5 01       	movw	r22, r10
    1988:	ce 01       	movw	r24, r28
    198a:	01 96       	adiw	r24, 0x01	; 1
    198c:	0e 94 b8 38 	call	0x7170	; 0x7170 <_ZN6StringC1ERKS_>
    1990:	00 e0       	ldi	r16, 0x00	; 0
    1992:	10 e0       	ldi	r17, 0x00	; 0
    1994:	2a e0       	ldi	r18, 0x0A	; 10
    1996:	30 e0       	ldi	r19, 0x00	; 0
    1998:	a6 01       	movw	r20, r12
    199a:	be 01       	movw	r22, r28
    199c:	6f 5f       	subi	r22, 0xFF	; 255
    199e:	7f 4f       	sbci	r23, 0xFF	; 255
    19a0:	f7 01       	movw	r30, r14
    19a2:	80 a5       	ldd	r24, Z+40	; 0x28
    19a4:	91 a5       	ldd	r25, Z+41	; 0x29
    19a6:	0e 94 7b 32 	call	0x64f6	; 0x64f6 <_ZN4UTFT5printE6Stringiii>
    19aa:	ce 01       	movw	r24, r28
    19ac:	01 96       	adiw	r24, 0x01	; 1
    19ae:	0e 94 28 38 	call	0x7050	; 0x7050 <_ZN6StringD1Ev>
	mLCD->setColor(COLOR);
	mLCD->fillRect(ORIGIN, ORIGIN, WIDTH, height);

	
	// draw inner rects and labels
	for(int i = 0; i < 5; i++){
    19b2:	64 01       	movw	r12, r8
    19b4:	f6 e0       	ldi	r31, 0x06	; 6
    19b6:	af 0e       	add	r10, r31
    19b8:	b1 1c       	adc	r11, r1
    19ba:	25 e0       	ldi	r18, 0x05	; 5
    19bc:	82 16       	cp	r8, r18
    19be:	91 04       	cpc	r9, r1
    19c0:	09 f0       	breq	.+2      	; 0x19c4 <_ZN5Menus11drawTopMenuEv+0x1b4>
    19c2:	60 cf       	rjmp	.-320    	; 0x1884 <_ZN5Menus11drawTopMenuEv+0x74>
			mLCD->setColor(BKGCOLOR);
			mLCD->setBackColor(COLOR);
			mLCD->print(tmLabels[i], (tWidth*i)+STROKEWEIGHT, 10);
		}
	}
}
    19c4:	26 96       	adiw	r28, 0x06	; 6
    19c6:	0f b6       	in	r0, 0x3f	; 63
    19c8:	f8 94       	cli
    19ca:	de bf       	out	0x3e, r29	; 62
    19cc:	0f be       	out	0x3f, r0	; 63
    19ce:	cd bf       	out	0x3d, r28	; 61
    19d0:	df 91       	pop	r29
    19d2:	cf 91       	pop	r28
    19d4:	1f 91       	pop	r17
    19d6:	0f 91       	pop	r16
    19d8:	ff 90       	pop	r15
    19da:	ef 90       	pop	r14
    19dc:	df 90       	pop	r13
    19de:	cf 90       	pop	r12
    19e0:	bf 90       	pop	r11
    19e2:	af 90       	pop	r10
    19e4:	9f 90       	pop	r9
    19e6:	8f 90       	pop	r8
    19e8:	08 95       	ret

000019ea <_ZN5Menus16drawBottomLabelsEPK6String>:
		break;
	}
	
}

void Menus::drawBottomLabels(const String s[4]){
    19ea:	4f 92       	push	r4
    19ec:	5f 92       	push	r5
    19ee:	6f 92       	push	r6
    19f0:	7f 92       	push	r7
    19f2:	8f 92       	push	r8
    19f4:	9f 92       	push	r9
    19f6:	af 92       	push	r10
    19f8:	bf 92       	push	r11
    19fa:	cf 92       	push	r12
    19fc:	df 92       	push	r13
    19fe:	ef 92       	push	r14
    1a00:	ff 92       	push	r15
    1a02:	0f 93       	push	r16
    1a04:	1f 93       	push	r17
    1a06:	cf 93       	push	r28
    1a08:	df 93       	push	r29
    1a0a:	00 d0       	rcall	.+0      	; 0x1a0c <_ZN5Menus16drawBottomLabelsEPK6String+0x22>
    1a0c:	00 d0       	rcall	.+0      	; 0x1a0e <_ZN5Menus16drawBottomLabelsEPK6String+0x24>
    1a0e:	cd b7       	in	r28, 0x3d	; 61
    1a10:	de b7       	in	r29, 0x3e	; 62
    1a12:	7c 01       	movw	r14, r24
    1a14:	5b 01       	movw	r10, r22
	for(int i = 0; i < BLABELS; i++){
    1a16:	c1 2c       	mov	r12, r1
    1a18:	d1 2c       	mov	r13, r1
		mLCD->setColor(COLOR);
		mLCD->setBackColor(BKGCOLOR);
		mLCD->print(s[i], (bWidth*i)+STROKEWEIGHT+2, HEIGHT-height+14);
    1a1a:	8e e4       	ldi	r24, 0x4E	; 78
    1a1c:	48 2e       	mov	r4, r24
    1a1e:	55 24       	eor	r5, r5
    1a20:	53 94       	inc	r5
	
}

void Menus::drawBottomLabels(const String s[4]){
	for(int i = 0; i < BLABELS; i++){
		mLCD->setColor(COLOR);
    1a22:	60 e0       	ldi	r22, 0x00	; 0
    1a24:	78 ef       	ldi	r23, 0xF8	; 248
    1a26:	f7 01       	movw	r30, r14
    1a28:	80 a5       	ldd	r24, Z+40	; 0x28
    1a2a:	91 a5       	ldd	r25, Z+41	; 0x29
    1a2c:	0e 94 a1 2c 	call	0x5942	; 0x5942 <_ZN4UTFT8setColorEj>
		mLCD->setBackColor(BKGCOLOR);
    1a30:	40 e0       	ldi	r20, 0x00	; 0
    1a32:	50 e0       	ldi	r21, 0x00	; 0
    1a34:	ba 01       	movw	r22, r20
    1a36:	f7 01       	movw	r30, r14
    1a38:	80 a5       	ldd	r24, Z+40	; 0x28
    1a3a:	91 a5       	ldd	r25, Z+41	; 0x29
    1a3c:	0e 94 a5 2c 	call	0x594a	; 0x594a <_ZN4UTFT12setBackColorEm>
		mLCD->print(s[i], (bWidth*i)+STROKEWEIGHT+2, HEIGHT-height+14);
    1a40:	f7 01       	movw	r30, r14
    1a42:	80 a9       	ldd	r24, Z+48	; 0x30
    1a44:	32 01       	movw	r6, r4
    1a46:	68 1a       	sub	r6, r24
    1a48:	71 08       	sbc	r7, r1
    1a4a:	87 a5       	ldd	r24, Z+47	; 0x2f
    1a4c:	8c 9d       	mul	r24, r12
    1a4e:	40 01       	movw	r8, r0
    1a50:	8d 9d       	mul	r24, r13
    1a52:	90 0c       	add	r9, r0
    1a54:	11 24       	eor	r1, r1
    1a56:	f5 e0       	ldi	r31, 0x05	; 5
    1a58:	8f 0e       	add	r8, r31
    1a5a:	91 1c       	adc	r9, r1
    1a5c:	b5 01       	movw	r22, r10
    1a5e:	ce 01       	movw	r24, r28
    1a60:	01 96       	adiw	r24, 0x01	; 1
    1a62:	0e 94 b8 38 	call	0x7170	; 0x7170 <_ZN6StringC1ERKS_>
    1a66:	00 e0       	ldi	r16, 0x00	; 0
    1a68:	10 e0       	ldi	r17, 0x00	; 0
    1a6a:	93 01       	movw	r18, r6
    1a6c:	a4 01       	movw	r20, r8
    1a6e:	be 01       	movw	r22, r28
    1a70:	6f 5f       	subi	r22, 0xFF	; 255
    1a72:	7f 4f       	sbci	r23, 0xFF	; 255
    1a74:	f7 01       	movw	r30, r14
    1a76:	80 a5       	ldd	r24, Z+40	; 0x28
    1a78:	91 a5       	ldd	r25, Z+41	; 0x29
    1a7a:	0e 94 7b 32 	call	0x64f6	; 0x64f6 <_ZN4UTFT5printE6Stringiii>
    1a7e:	ce 01       	movw	r24, r28
    1a80:	01 96       	adiw	r24, 0x01	; 1
    1a82:	0e 94 28 38 	call	0x7050	; 0x7050 <_ZN6StringD1Ev>
	}
	
}

void Menus::drawBottomLabels(const String s[4]){
	for(int i = 0; i < BLABELS; i++){
    1a86:	ff ef       	ldi	r31, 0xFF	; 255
    1a88:	cf 1a       	sub	r12, r31
    1a8a:	df 0a       	sbc	r13, r31
    1a8c:	86 e0       	ldi	r24, 0x06	; 6
    1a8e:	a8 0e       	add	r10, r24
    1a90:	b1 1c       	adc	r11, r1
    1a92:	e4 e0       	ldi	r30, 0x04	; 4
    1a94:	ce 16       	cp	r12, r30
    1a96:	d1 04       	cpc	r13, r1
    1a98:	21 f6       	brne	.-120    	; 0x1a22 <_ZN5Menus16drawBottomLabelsEPK6String+0x38>
		mLCD->setColor(COLOR);
		mLCD->setBackColor(BKGCOLOR);
		mLCD->print(s[i], (bWidth*i)+STROKEWEIGHT+2, HEIGHT-height+14);
	}
}
    1a9a:	26 96       	adiw	r28, 0x06	; 6
    1a9c:	0f b6       	in	r0, 0x3f	; 63
    1a9e:	f8 94       	cli
    1aa0:	de bf       	out	0x3e, r29	; 62
    1aa2:	0f be       	out	0x3f, r0	; 63
    1aa4:	cd bf       	out	0x3d, r28	; 61
    1aa6:	df 91       	pop	r29
    1aa8:	cf 91       	pop	r28
    1aaa:	1f 91       	pop	r17
    1aac:	0f 91       	pop	r16
    1aae:	ff 90       	pop	r15
    1ab0:	ef 90       	pop	r14
    1ab2:	df 90       	pop	r13
    1ab4:	cf 90       	pop	r12
    1ab6:	bf 90       	pop	r11
    1ab8:	af 90       	pop	r10
    1aba:	9f 90       	pop	r9
    1abc:	8f 90       	pop	r8
    1abe:	7f 90       	pop	r7
    1ac0:	6f 90       	pop	r6
    1ac2:	5f 90       	pop	r5
    1ac4:	4f 90       	pop	r4
    1ac6:	08 95       	ret

00001ac8 <_ZN5Menus14drawBottomMenuEv>:
			mLCD->print(tmLabels[i], (tWidth*i)+STROKEWEIGHT, 10);
		}
	}
}

void Menus::drawBottomMenu(){
    1ac8:	cf 92       	push	r12
    1aca:	df 92       	push	r13
    1acc:	ef 92       	push	r14
    1ace:	ff 92       	push	r15
    1ad0:	0f 93       	push	r16
    1ad2:	1f 93       	push	r17
    1ad4:	cf 93       	push	r28
    1ad6:	df 93       	push	r29
    1ad8:	ec 01       	movw	r28, r24
	mLCD->setFont(sFont); // set font
    1ada:	6c a5       	ldd	r22, Y+44	; 0x2c
    1adc:	7d a5       	ldd	r23, Y+45	; 0x2d
    1ade:	88 a5       	ldd	r24, Y+40	; 0x28
    1ae0:	99 a5       	ldd	r25, Y+41	; 0x29
    1ae2:	0e 94 c0 32 	call	0x6580	; 0x6580 <_ZN4UTFT7setFontEPh>
	// draw outer rect
	mLCD->setColor(COLOR);
    1ae6:	60 e0       	ldi	r22, 0x00	; 0
    1ae8:	78 ef       	ldi	r23, 0xF8	; 248
    1aea:	88 a5       	ldd	r24, Y+40	; 0x28
    1aec:	99 a5       	ldd	r25, Y+41	; 0x29
    1aee:	0e 94 a1 2c 	call	0x5942	; 0x5942 <_ZN4UTFT8setColorEj>
	mLCD->fillRect(ORIGIN, HEIGHT-height, WIDTH, HEIGHT);
    1af2:	88 a9       	ldd	r24, Y+48	; 0x30
    1af4:	40 e4       	ldi	r20, 0x40	; 64
    1af6:	51 e0       	ldi	r21, 0x01	; 1
    1af8:	48 1b       	sub	r20, r24
    1afa:	51 09       	sbc	r21, r1
    1afc:	00 e4       	ldi	r16, 0x40	; 64
    1afe:	11 e0       	ldi	r17, 0x01	; 1
    1b00:	20 ee       	ldi	r18, 0xE0	; 224
    1b02:	31 e0       	ldi	r19, 0x01	; 1
    1b04:	60 e0       	ldi	r22, 0x00	; 0
    1b06:	70 e0       	ldi	r23, 0x00	; 0
    1b08:	88 a5       	ldd	r24, Y+40	; 0x28
    1b0a:	99 a5       	ldd	r25, Y+41	; 0x29
    1b0c:	0e 94 7b 2d 	call	0x5af6	; 0x5af6 <_ZN4UTFT8fillRectEiiii>
	// draw inner rects
	mLCD->setColor(BKGCOLOR);
    1b10:	60 e0       	ldi	r22, 0x00	; 0
    1b12:	70 e0       	ldi	r23, 0x00	; 0
    1b14:	88 a5       	ldd	r24, Y+40	; 0x28
    1b16:	99 a5       	ldd	r25, Y+41	; 0x29
    1b18:	0e 94 a1 2c 	call	0x5942	; 0x5942 <_ZN4UTFT8setColorEj>
	for(int i = 0; i < BLABELS; i++){
    1b1c:	e1 2c       	mov	r14, r1
    1b1e:	f1 2c       	mov	r15, r1
		//              start X                  start Y                     end X                        end Y
		mLCD->fillRect( (bWidth*i)+STROKEWEIGHT, HEIGHT-height+STROKEWEIGHT, (bWidth*(i+1))-STROKEWEIGHT, HEIGHT-STROKEWEIGHT );
    1b20:	83 e4       	ldi	r24, 0x43	; 67
    1b22:	c8 2e       	mov	r12, r24
    1b24:	dd 24       	eor	r13, r13
    1b26:	d3 94       	inc	r13
    1b28:	8f a5       	ldd	r24, Y+47	; 0x2f
    1b2a:	90 e0       	ldi	r25, 0x00	; 0
    1b2c:	2f ef       	ldi	r18, 0xFF	; 255
    1b2e:	e2 1a       	sub	r14, r18
    1b30:	f2 0a       	sbc	r15, r18
    1b32:	8e 9d       	mul	r24, r14
    1b34:	b0 01       	movw	r22, r0
    1b36:	8f 9d       	mul	r24, r15
    1b38:	70 0d       	add	r23, r0
    1b3a:	9e 9d       	mul	r25, r14
    1b3c:	70 0d       	add	r23, r0
    1b3e:	11 24       	eor	r1, r1
    1b40:	9b 01       	movw	r18, r22
    1b42:	23 50       	subi	r18, 0x03	; 3
    1b44:	31 09       	sbc	r19, r1
    1b46:	48 a9       	ldd	r20, Y+48	; 0x30
    1b48:	f6 01       	movw	r30, r12
    1b4a:	e4 1b       	sub	r30, r20
    1b4c:	f1 09       	sbc	r31, r1
    1b4e:	af 01       	movw	r20, r30
    1b50:	68 1b       	sub	r22, r24
    1b52:	79 0b       	sbc	r23, r25
    1b54:	6d 5f       	subi	r22, 0xFD	; 253
    1b56:	7f 4f       	sbci	r23, 0xFF	; 255
    1b58:	0d e3       	ldi	r16, 0x3D	; 61
    1b5a:	11 e0       	ldi	r17, 0x01	; 1
    1b5c:	88 a5       	ldd	r24, Y+40	; 0x28
    1b5e:	99 a5       	ldd	r25, Y+41	; 0x29
    1b60:	0e 94 7b 2d 	call	0x5af6	; 0x5af6 <_ZN4UTFT8fillRectEiiii>
	// draw outer rect
	mLCD->setColor(COLOR);
	mLCD->fillRect(ORIGIN, HEIGHT-height, WIDTH, HEIGHT);
	// draw inner rects
	mLCD->setColor(BKGCOLOR);
	for(int i = 0; i < BLABELS; i++){
    1b64:	f4 e0       	ldi	r31, 0x04	; 4
    1b66:	ef 16       	cp	r14, r31
    1b68:	f1 04       	cpc	r15, r1
    1b6a:	f1 f6       	brne	.-68     	; 0x1b28 <_ZN5Menus14drawBottomMenuEv+0x60>
		//              start X                  start Y                     end X                        end Y
		mLCD->fillRect( (bWidth*i)+STROKEWEIGHT, HEIGHT-height+STROKEWEIGHT, (bWidth*(i+1))-STROKEWEIGHT, HEIGHT-STROKEWEIGHT );
	}
	// draw labels
	switch(paramsPtr->menu){
    1b6c:	e9 a9       	ldd	r30, Y+49	; 0x31
    1b6e:	fa a9       	ldd	r31, Y+50	; 0x32
    1b70:	80 81       	ld	r24, Z
    1b72:	81 30       	cpi	r24, 0x01	; 1
    1b74:	59 f0       	breq	.+22     	; 0x1b8c <_ZN5Menus14drawBottomMenuEv+0xc4>
    1b76:	38 f0       	brcs	.+14     	; 0x1b86 <_ZN5Menus14drawBottomMenuEv+0xbe>
    1b78:	82 30       	cpi	r24, 0x02	; 2
    1b7a:	59 f0       	breq	.+22     	; 0x1b92 <_ZN5Menus14drawBottomMenuEv+0xca>
    1b7c:	83 30       	cpi	r24, 0x03	; 3
    1b7e:	a9 f4       	brne	.+42     	; 0x1baa <_ZN5Menus14drawBottomMenuEv+0xe2>
		break;
		case 2:
			drawBottomLabels(envLabels);
		break;
		case 3:
			drawBottomLabels(fxLabels);
    1b80:	6c e9       	ldi	r22, 0x9C	; 156
    1b82:	75 e0       	ldi	r23, 0x05	; 5
    1b84:	08 c0       	rjmp	.+16     	; 0x1b96 <_ZN5Menus14drawBottomMenuEv+0xce>
		mLCD->fillRect( (bWidth*i)+STROKEWEIGHT, HEIGHT-height+STROKEWEIGHT, (bWidth*(i+1))-STROKEWEIGHT, HEIGHT-STROKEWEIGHT );
	}
	// draw labels
	switch(paramsPtr->menu){
		case 0:
			drawBottomLabels(oscLabels);
    1b86:	64 ee       	ldi	r22, 0xE4	; 228
    1b88:	75 e0       	ldi	r23, 0x05	; 5
    1b8a:	05 c0       	rjmp	.+10     	; 0x1b96 <_ZN5Menus14drawBottomMenuEv+0xce>
		break;
		case 1:
			drawBottomLabels(filLabels);
    1b8c:	6c ec       	ldi	r22, 0xCC	; 204
    1b8e:	75 e0       	ldi	r23, 0x05	; 5
    1b90:	02 c0       	rjmp	.+4      	; 0x1b96 <_ZN5Menus14drawBottomMenuEv+0xce>
		break;
		case 2:
			drawBottomLabels(envLabels);
    1b92:	64 eb       	ldi	r22, 0xB4	; 180
    1b94:	75 e0       	ldi	r23, 0x05	; 5
		break;
		case 3:
			drawBottomLabels(fxLabels);
    1b96:	ce 01       	movw	r24, r28
		break;
		default:
		break;
	}
	
}
    1b98:	df 91       	pop	r29
    1b9a:	cf 91       	pop	r28
    1b9c:	1f 91       	pop	r17
    1b9e:	0f 91       	pop	r16
    1ba0:	ff 90       	pop	r15
    1ba2:	ef 90       	pop	r14
    1ba4:	df 90       	pop	r13
    1ba6:	cf 90       	pop	r12
		break;
		case 2:
			drawBottomLabels(envLabels);
		break;
		case 3:
			drawBottomLabels(fxLabels);
    1ba8:	20 cf       	rjmp	.-448    	; 0x19ea <_ZN5Menus16drawBottomLabelsEPK6String>
		break;
		default:
		break;
	}
	
}
    1baa:	df 91       	pop	r29
    1bac:	cf 91       	pop	r28
    1bae:	1f 91       	pop	r17
    1bb0:	0f 91       	pop	r16
    1bb2:	ff 90       	pop	r15
    1bb4:	ef 90       	pop	r14
    1bb6:	df 90       	pop	r13
    1bb8:	cf 90       	pop	r12
    1bba:	08 95       	ret

00001bbc <_ZN5Menus4drawEv>:
	sFont = sF;
	bFont = bF;
	paramsPtr = p;
}

void Menus::draw(){
    1bbc:	cf 93       	push	r28
    1bbe:	df 93       	push	r29
    1bc0:	ec 01       	movw	r28, r24
	drawBottomMenu();
    1bc2:	82 df       	rcall	.-252    	; 0x1ac8 <_ZN5Menus14drawBottomMenuEv>
	drawTopMenu();
    1bc4:	ce 01       	movw	r24, r28
}
    1bc6:	df 91       	pop	r29
	paramsPtr = p;
}

void Menus::draw(){
	drawBottomMenu();
	drawTopMenu();
    1bc8:	cf 91       	pop	r28
    1bca:	22 ce       	rjmp	.-956    	; 0x1810 <_ZN5Menus11drawTopMenuEv>

00001bcc <_GLOBAL__sub_I__ZN5MenusC2Ev>:
    1bcc:	66 ea       	ldi	r22, 0xA6	; 166
    1bce:	72 e0       	ldi	r23, 0x02	; 2
    1bd0:	8c ef       	ldi	r24, 0xFC	; 252
    1bd2:	95 e0       	ldi	r25, 0x05	; 5
    1bd4:	0e 94 8f 38 	call	0x711e	; 0x711e <_ZN6StringC1EPKc>
    1bd8:	6b ea       	ldi	r22, 0xAB	; 171
    1bda:	72 e0       	ldi	r23, 0x02	; 2
    1bdc:	82 e0       	ldi	r24, 0x02	; 2
    1bde:	96 e0       	ldi	r25, 0x06	; 6
    1be0:	0e 94 8f 38 	call	0x711e	; 0x711e <_ZN6StringC1EPKc>
    1be4:	60 eb       	ldi	r22, 0xB0	; 176
    1be6:	72 e0       	ldi	r23, 0x02	; 2
    1be8:	88 e0       	ldi	r24, 0x08	; 8
    1bea:	96 e0       	ldi	r25, 0x06	; 6
    1bec:	0e 94 8f 38 	call	0x711e	; 0x711e <_ZN6StringC1EPKc>
    1bf0:	65 eb       	ldi	r22, 0xB5	; 181
    1bf2:	72 e0       	ldi	r23, 0x02	; 2
    1bf4:	8e e0       	ldi	r24, 0x0E	; 14
    1bf6:	96 e0       	ldi	r25, 0x06	; 6
    1bf8:	0e 94 8f 38 	call	0x711e	; 0x711e <_ZN6StringC1EPKc>
    1bfc:	68 eb       	ldi	r22, 0xB8	; 184
    1bfe:	72 e0       	ldi	r23, 0x02	; 2
    1c00:	84 e1       	ldi	r24, 0x14	; 20
    1c02:	96 e0       	ldi	r25, 0x06	; 6
    1c04:	0e 94 8f 38 	call	0x711e	; 0x711e <_ZN6StringC1EPKc>

#define BLABELS 4
const String oscLabels[BLABELS] = {"WAVE:", "FREQ:", "LFO:", "FREQ:"};
    1c08:	6e eb       	ldi	r22, 0xBE	; 190
    1c0a:	72 e0       	ldi	r23, 0x02	; 2
    1c0c:	84 ee       	ldi	r24, 0xE4	; 228
    1c0e:	95 e0       	ldi	r25, 0x05	; 5
    1c10:	0e 94 8f 38 	call	0x711e	; 0x711e <_ZN6StringC1EPKc>
    1c14:	64 ec       	ldi	r22, 0xC4	; 196
    1c16:	72 e0       	ldi	r23, 0x02	; 2
    1c18:	8a ee       	ldi	r24, 0xEA	; 234
    1c1a:	95 e0       	ldi	r25, 0x05	; 5
    1c1c:	0e 94 8f 38 	call	0x711e	; 0x711e <_ZN6StringC1EPKc>
    1c20:	6a ec       	ldi	r22, 0xCA	; 202
    1c22:	72 e0       	ldi	r23, 0x02	; 2
    1c24:	80 ef       	ldi	r24, 0xF0	; 240
    1c26:	95 e0       	ldi	r25, 0x05	; 5
    1c28:	0e 94 8f 38 	call	0x711e	; 0x711e <_ZN6StringC1EPKc>
    1c2c:	64 ec       	ldi	r22, 0xC4	; 196
    1c2e:	72 e0       	ldi	r23, 0x02	; 2
    1c30:	86 ef       	ldi	r24, 0xF6	; 246
    1c32:	95 e0       	ldi	r25, 0x05	; 5
    1c34:	0e 94 8f 38 	call	0x711e	; 0x711e <_ZN6StringC1EPKc>
const String filLabels[BLABELS] = {"TYPE:", "FREQ:", "RES:", "ENV:"};
    1c38:	6f ec       	ldi	r22, 0xCF	; 207
    1c3a:	72 e0       	ldi	r23, 0x02	; 2
    1c3c:	8c ec       	ldi	r24, 0xCC	; 204
    1c3e:	95 e0       	ldi	r25, 0x05	; 5
    1c40:	0e 94 8f 38 	call	0x711e	; 0x711e <_ZN6StringC1EPKc>
    1c44:	64 ec       	ldi	r22, 0xC4	; 196
    1c46:	72 e0       	ldi	r23, 0x02	; 2
    1c48:	82 ed       	ldi	r24, 0xD2	; 210
    1c4a:	95 e0       	ldi	r25, 0x05	; 5
    1c4c:	0e 94 8f 38 	call	0x711e	; 0x711e <_ZN6StringC1EPKc>
    1c50:	65 ed       	ldi	r22, 0xD5	; 213
    1c52:	72 e0       	ldi	r23, 0x02	; 2
    1c54:	88 ed       	ldi	r24, 0xD8	; 216
    1c56:	95 e0       	ldi	r25, 0x05	; 5
    1c58:	0e 94 8f 38 	call	0x711e	; 0x711e <_ZN6StringC1EPKc>
    1c5c:	6a ed       	ldi	r22, 0xDA	; 218
    1c5e:	72 e0       	ldi	r23, 0x02	; 2
    1c60:	8e ed       	ldi	r24, 0xDE	; 222
    1c62:	95 e0       	ldi	r25, 0x05	; 5
    1c64:	0e 94 8f 38 	call	0x711e	; 0x711e <_ZN6StringC1EPKc>
const String envLabels[BLABELS] = {"ATK:", "DEC:", "SUS:", "REL:"};	
    1c68:	6f ed       	ldi	r22, 0xDF	; 223
    1c6a:	72 e0       	ldi	r23, 0x02	; 2
    1c6c:	84 eb       	ldi	r24, 0xB4	; 180
    1c6e:	95 e0       	ldi	r25, 0x05	; 5
    1c70:	0e 94 8f 38 	call	0x711e	; 0x711e <_ZN6StringC1EPKc>
    1c74:	64 ee       	ldi	r22, 0xE4	; 228
    1c76:	72 e0       	ldi	r23, 0x02	; 2
    1c78:	8a eb       	ldi	r24, 0xBA	; 186
    1c7a:	95 e0       	ldi	r25, 0x05	; 5
    1c7c:	0e 94 8f 38 	call	0x711e	; 0x711e <_ZN6StringC1EPKc>
    1c80:	69 ee       	ldi	r22, 0xE9	; 233
    1c82:	72 e0       	ldi	r23, 0x02	; 2
    1c84:	80 ec       	ldi	r24, 0xC0	; 192
    1c86:	95 e0       	ldi	r25, 0x05	; 5
    1c88:	0e 94 8f 38 	call	0x711e	; 0x711e <_ZN6StringC1EPKc>
    1c8c:	6e ee       	ldi	r22, 0xEE	; 238
    1c8e:	72 e0       	ldi	r23, 0x02	; 2
    1c90:	86 ec       	ldi	r24, 0xC6	; 198
    1c92:	95 e0       	ldi	r25, 0x05	; 5
    1c94:	0e 94 8f 38 	call	0x711e	; 0x711e <_ZN6StringC1EPKc>
const String fxLabels[BLABELS] = {"TYPE:", "AMT:", "PARAM:", "LFO:"};
    1c98:	6f ec       	ldi	r22, 0xCF	; 207
    1c9a:	72 e0       	ldi	r23, 0x02	; 2
    1c9c:	8c e9       	ldi	r24, 0x9C	; 156
    1c9e:	95 e0       	ldi	r25, 0x05	; 5
    1ca0:	0e 94 8f 38 	call	0x711e	; 0x711e <_ZN6StringC1EPKc>
    1ca4:	63 ef       	ldi	r22, 0xF3	; 243
    1ca6:	72 e0       	ldi	r23, 0x02	; 2
    1ca8:	82 ea       	ldi	r24, 0xA2	; 162
    1caa:	95 e0       	ldi	r25, 0x05	; 5
    1cac:	0e 94 8f 38 	call	0x711e	; 0x711e <_ZN6StringC1EPKc>
    1cb0:	68 ef       	ldi	r22, 0xF8	; 248
    1cb2:	72 e0       	ldi	r23, 0x02	; 2
    1cb4:	88 ea       	ldi	r24, 0xA8	; 168
    1cb6:	95 e0       	ldi	r25, 0x05	; 5
    1cb8:	0e 94 8f 38 	call	0x711e	; 0x711e <_ZN6StringC1EPKc>
    1cbc:	6a ec       	ldi	r22, 0xCA	; 202
    1cbe:	72 e0       	ldi	r23, 0x02	; 2
    1cc0:	8e ea       	ldi	r24, 0xAE	; 174
    1cc2:	95 e0       	ldi	r25, 0x05	; 5
    1cc4:	0c 94 8f 38 	jmp	0x711e	; 0x711e <_ZN6StringC1EPKc>

00001cc8 <_GLOBAL__sub_D__ZN5MenusC2Ev>:
	for(int i = 0; i < BLABELS; i++){
		mLCD->setColor(COLOR);
		mLCD->setBackColor(BKGCOLOR);
		mLCD->print(s[i], (bWidth*i)+STROKEWEIGHT+2, HEIGHT-height+14);
	}
}
    1cc8:	cf 93       	push	r28
    1cca:	df 93       	push	r29
    1ccc:	8e ea       	ldi	r24, 0xAE	; 174
    1cce:	95 e0       	ldi	r25, 0x05	; 5
    1cd0:	0e 94 28 38 	call	0x7050	; 0x7050 <_ZN6StringD1Ev>
    1cd4:	88 ea       	ldi	r24, 0xA8	; 168
    1cd6:	95 e0       	ldi	r25, 0x05	; 5
    1cd8:	0e 94 28 38 	call	0x7050	; 0x7050 <_ZN6StringD1Ev>
    1cdc:	82 ea       	ldi	r24, 0xA2	; 162
    1cde:	95 e0       	ldi	r25, 0x05	; 5
    1ce0:	0e 94 28 38 	call	0x7050	; 0x7050 <_ZN6StringD1Ev>
    1ce4:	8c e9       	ldi	r24, 0x9C	; 156
    1ce6:	95 e0       	ldi	r25, 0x05	; 5
    1ce8:	0e 94 28 38 	call	0x7050	; 0x7050 <_ZN6StringD1Ev>
const String tmLabels[TLABELS] = {"OSC.", "FIL.", "ENV.", "FX", "SETT."};

#define BLABELS 4
const String oscLabels[BLABELS] = {"WAVE:", "FREQ:", "LFO:", "FREQ:"};
const String filLabels[BLABELS] = {"TYPE:", "FREQ:", "RES:", "ENV:"};
const String envLabels[BLABELS] = {"ATK:", "DEC:", "SUS:", "REL:"};	
    1cec:	86 ec       	ldi	r24, 0xC6	; 198
    1cee:	95 e0       	ldi	r25, 0x05	; 5
    1cf0:	0e 94 28 38 	call	0x7050	; 0x7050 <_ZN6StringD1Ev>
    1cf4:	80 ec       	ldi	r24, 0xC0	; 192
    1cf6:	95 e0       	ldi	r25, 0x05	; 5
    1cf8:	0e 94 28 38 	call	0x7050	; 0x7050 <_ZN6StringD1Ev>
    1cfc:	8a eb       	ldi	r24, 0xBA	; 186
    1cfe:	95 e0       	ldi	r25, 0x05	; 5
    1d00:	0e 94 28 38 	call	0x7050	; 0x7050 <_ZN6StringD1Ev>
    1d04:	84 eb       	ldi	r24, 0xB4	; 180
    1d06:	95 e0       	ldi	r25, 0x05	; 5
    1d08:	0e 94 28 38 	call	0x7050	; 0x7050 <_ZN6StringD1Ev>
#define TLABELS 5
const String tmLabels[TLABELS] = {"OSC.", "FIL.", "ENV.", "FX", "SETT."};

#define BLABELS 4
const String oscLabels[BLABELS] = {"WAVE:", "FREQ:", "LFO:", "FREQ:"};
const String filLabels[BLABELS] = {"TYPE:", "FREQ:", "RES:", "ENV:"};
    1d0c:	8e ed       	ldi	r24, 0xDE	; 222
    1d0e:	95 e0       	ldi	r25, 0x05	; 5
    1d10:	0e 94 28 38 	call	0x7050	; 0x7050 <_ZN6StringD1Ev>
    1d14:	88 ed       	ldi	r24, 0xD8	; 216
    1d16:	95 e0       	ldi	r25, 0x05	; 5
    1d18:	0e 94 28 38 	call	0x7050	; 0x7050 <_ZN6StringD1Ev>
    1d1c:	82 ed       	ldi	r24, 0xD2	; 210
    1d1e:	95 e0       	ldi	r25, 0x05	; 5
    1d20:	0e 94 28 38 	call	0x7050	; 0x7050 <_ZN6StringD1Ev>
    1d24:	8c ec       	ldi	r24, 0xCC	; 204
    1d26:	95 e0       	ldi	r25, 0x05	; 5
    1d28:	0e 94 28 38 	call	0x7050	; 0x7050 <_ZN6StringD1Ev>

#define TLABELS 5
const String tmLabels[TLABELS] = {"OSC.", "FIL.", "ENV.", "FX", "SETT."};

#define BLABELS 4
const String oscLabels[BLABELS] = {"WAVE:", "FREQ:", "LFO:", "FREQ:"};
    1d2c:	86 ef       	ldi	r24, 0xF6	; 246
    1d2e:	95 e0       	ldi	r25, 0x05	; 5
    1d30:	0e 94 28 38 	call	0x7050	; 0x7050 <_ZN6StringD1Ev>
    1d34:	80 ef       	ldi	r24, 0xF0	; 240
    1d36:	95 e0       	ldi	r25, 0x05	; 5
    1d38:	0e 94 28 38 	call	0x7050	; 0x7050 <_ZN6StringD1Ev>
    1d3c:	8a ee       	ldi	r24, 0xEA	; 234
    1d3e:	95 e0       	ldi	r25, 0x05	; 5
    1d40:	0e 94 28 38 	call	0x7050	; 0x7050 <_ZN6StringD1Ev>
    1d44:	84 ee       	ldi	r24, 0xE4	; 228
    1d46:	95 e0       	ldi	r25, 0x05	; 5
    1d48:	0e 94 28 38 	call	0x7050	; 0x7050 <_ZN6StringD1Ev>
    1d4c:	ca e1       	ldi	r28, 0x1A	; 26
    1d4e:	d6 e0       	ldi	r29, 0x06	; 6
#define BKGCOLOR 0x0000 // black
#define COLOR 0xF800 // red
#define STROKEWEIGHT 3

#define TLABELS 5
const String tmLabels[TLABELS] = {"OSC.", "FIL.", "ENV.", "FX", "SETT."};
    1d50:	26 97       	sbiw	r28, 0x06	; 6
    1d52:	ce 01       	movw	r24, r28
    1d54:	0e 94 28 38 	call	0x7050	; 0x7050 <_ZN6StringD1Ev>
    1d58:	85 e0       	ldi	r24, 0x05	; 5
    1d5a:	cc 3f       	cpi	r28, 0xFC	; 252
    1d5c:	d8 07       	cpc	r29, r24
    1d5e:	c1 f7       	brne	.-16     	; 0x1d50 <_GLOBAL__sub_D__ZN5MenusC2Ev+0x88>
    1d60:	df 91       	pop	r29
    1d62:	cf 91       	pop	r28
    1d64:	08 95       	ret

00001d66 <_ZN10ParametersC1Ev>:
* Created: 19-03-2018 19:33:54
* Author: tiago
*/
#include "Parameters.h"

Parameters::Parameters() // default constructor
    1d66:	2f 92       	push	r2
    1d68:	3f 92       	push	r3
    1d6a:	4f 92       	push	r4
    1d6c:	5f 92       	push	r5
    1d6e:	6f 92       	push	r6
    1d70:	7f 92       	push	r7
    1d72:	8f 92       	push	r8
    1d74:	9f 92       	push	r9
    1d76:	af 92       	push	r10
    1d78:	bf 92       	push	r11
    1d7a:	cf 92       	push	r12
    1d7c:	df 92       	push	r13
    1d7e:	ef 92       	push	r14
    1d80:	ff 92       	push	r15
    1d82:	0f 93       	push	r16
    1d84:	1f 93       	push	r17
    1d86:	cf 93       	push	r28
    1d88:	df 93       	push	r29
    1d8a:	ec 01       	movw	r28, r24
class Parameters
{
//variables
public:
	typedef struct  
	{
    1d8c:	18 82       	st	Y, r1
    1d8e:	19 82       	std	Y+1, r1	; 0x01
    1d90:	41 2c       	mov	r4, r1
    1d92:	51 2c       	mov	r5, r1
    1d94:	8c e5       	ldi	r24, 0x5C	; 92
    1d96:	68 2e       	mov	r6, r24
    1d98:	83 e4       	ldi	r24, 0x43	; 67
    1d9a:	78 2e       	mov	r7, r24
    1d9c:	4a 82       	std	Y+2, r4	; 0x02
    1d9e:	5b 82       	std	Y+3, r5	; 0x03
    1da0:	6c 82       	std	Y+4, r6	; 0x04
    1da2:	7d 82       	std	Y+5, r7	; 0x05
    1da4:	1e 82       	std	Y+6, r1	; 0x06
    1da6:	81 2c       	mov	r8, r1
    1da8:	91 2c       	mov	r9, r1
    1daa:	90 e8       	ldi	r25, 0x80	; 128
    1dac:	a9 2e       	mov	r10, r25
    1dae:	90 e4       	ldi	r25, 0x40	; 64
    1db0:	b9 2e       	mov	r11, r25
    1db2:	8f 82       	std	Y+7, r8	; 0x07
    1db4:	98 86       	std	Y+8, r9	; 0x08
    1db6:	a9 86       	std	Y+9, r10	; 0x09
    1db8:	ba 86       	std	Y+10, r11	; 0x0a
    1dba:	1b 86       	std	Y+11, r1	; 0x0b
    1dbc:	c1 2c       	mov	r12, r1
    1dbe:	20 e8       	ldi	r18, 0x80	; 128
    1dc0:	d2 2e       	mov	r13, r18
    1dc2:	2b e3       	ldi	r18, 0x3B	; 59
    1dc4:	e2 2e       	mov	r14, r18
    1dc6:	26 e4       	ldi	r18, 0x46	; 70
    1dc8:	f2 2e       	mov	r15, r18
    1dca:	cc 86       	std	Y+12, r12	; 0x0c
    1dcc:	dd 86       	std	Y+13, r13	; 0x0d
    1dce:	ee 86       	std	Y+14, r14	; 0x0e
    1dd0:	ff 86       	std	Y+15, r15	; 0x0f
    1dd2:	3e e1       	ldi	r19, 0x1E	; 30
    1dd4:	23 2e       	mov	r2, r19
    1dd6:	28 8a       	std	Y+16, r2	; 0x10
    1dd8:	19 8a       	std	Y+17, r1	; 0x11
    1dda:	1a 8a       	std	Y+18, r1	; 0x12
    1ddc:	1b 8a       	std	Y+19, r1	; 0x13
    1dde:	1c 8a       	std	Y+20, r1	; 0x14
    1de0:	1d 8a       	std	Y+21, r1	; 0x15
    1de2:	1e 8a       	std	Y+22, r1	; 0x16
    1de4:	80 e0       	ldi	r24, 0x00	; 0
    1de6:	90 e0       	ldi	r25, 0x00	; 0
    1de8:	a8 e4       	ldi	r26, 0x48	; 72
    1dea:	b3 e4       	ldi	r27, 0x43	; 67
    1dec:	8f 8b       	std	Y+23, r24	; 0x17
    1dee:	98 8f       	std	Y+24, r25	; 0x18
    1df0:	a9 8f       	std	Y+25, r26	; 0x19
    1df2:	ba 8f       	std	Y+26, r27	; 0x1a
    1df4:	98 ec       	ldi	r25, 0xC8	; 200
    1df6:	9b 8f       	std	Y+27, r25	; 0x1b
    1df8:	80 e0       	ldi	r24, 0x00	; 0
    1dfa:	90 e0       	ldi	r25, 0x00	; 0
    1dfc:	aa e7       	ldi	r26, 0x7A	; 122
    1dfe:	b4 e4       	ldi	r27, 0x44	; 68
    1e00:	8c 8f       	std	Y+28, r24	; 0x1c
    1e02:	9d 8f       	std	Y+29, r25	; 0x1d
    1e04:	ae 8f       	std	Y+30, r26	; 0x1e
    1e06:	bf 8f       	std	Y+31, r27	; 0x1f
    1e08:	18 a2       	std	Y+32, r1	; 0x20
    1e0a:	19 a2       	std	Y+33, r1	; 0x21
    1e0c:	1a a2       	std	Y+34, r1	; 0x22
    1e0e:	1b a2       	std	Y+35, r1	; 0x23
    1e10:	00 e4       	ldi	r16, 0x40	; 64
    1e12:	10 e0       	ldi	r17, 0x00	; 0
    1e14:	1d a3       	std	Y+37, r17	; 0x25
    1e16:	0c a3       	std	Y+36, r16	; 0x24
    1e18:	33 24       	eor	r3, r3
    1e1a:	3a 94       	dec	r3
    1e1c:	3e a2       	std	Y+38, r3	; 0x26
    1e1e:	3f a2       	std	Y+39, r3	; 0x27
{
	data = *new params_t;
    1e20:	88 e2       	ldi	r24, 0x28	; 40
    1e22:	90 e0       	ldi	r25, 0x00	; 0
    1e24:	0e 94 8a 35 	call	0x6b14	; 0x6b14 <_Znwj>
    1e28:	fc 01       	movw	r30, r24
    1e2a:	10 82       	st	Z, r1
    1e2c:	11 82       	std	Z+1, r1	; 0x01
    1e2e:	42 82       	std	Z+2, r4	; 0x02
    1e30:	53 82       	std	Z+3, r5	; 0x03
    1e32:	64 82       	std	Z+4, r6	; 0x04
    1e34:	75 82       	std	Z+5, r7	; 0x05
    1e36:	16 82       	std	Z+6, r1	; 0x06
    1e38:	87 82       	std	Z+7, r8	; 0x07
    1e3a:	90 86       	std	Z+8, r9	; 0x08
    1e3c:	a1 86       	std	Z+9, r10	; 0x09
    1e3e:	b2 86       	std	Z+10, r11	; 0x0a
    1e40:	13 86       	std	Z+11, r1	; 0x0b
    1e42:	c4 86       	std	Z+12, r12	; 0x0c
    1e44:	d5 86       	std	Z+13, r13	; 0x0d
    1e46:	e6 86       	std	Z+14, r14	; 0x0e
    1e48:	f7 86       	std	Z+15, r15	; 0x0f
    1e4a:	20 8a       	std	Z+16, r2	; 0x10
    1e4c:	11 8a       	std	Z+17, r1	; 0x11
    1e4e:	12 8a       	std	Z+18, r1	; 0x12
    1e50:	13 8a       	std	Z+19, r1	; 0x13
    1e52:	14 8a       	std	Z+20, r1	; 0x14
    1e54:	15 8a       	std	Z+21, r1	; 0x15
    1e56:	16 8a       	std	Z+22, r1	; 0x16
    1e58:	80 e0       	ldi	r24, 0x00	; 0
    1e5a:	90 e0       	ldi	r25, 0x00	; 0
    1e5c:	a8 e4       	ldi	r26, 0x48	; 72
    1e5e:	b3 e4       	ldi	r27, 0x43	; 67
    1e60:	87 8b       	std	Z+23, r24	; 0x17
    1e62:	90 8f       	std	Z+24, r25	; 0x18
    1e64:	a1 8f       	std	Z+25, r26	; 0x19
    1e66:	b2 8f       	std	Z+26, r27	; 0x1a
    1e68:	98 ec       	ldi	r25, 0xC8	; 200
    1e6a:	93 8f       	std	Z+27, r25	; 0x1b
    1e6c:	80 e0       	ldi	r24, 0x00	; 0
    1e6e:	90 e0       	ldi	r25, 0x00	; 0
    1e70:	aa e7       	ldi	r26, 0x7A	; 122
    1e72:	b4 e4       	ldi	r27, 0x44	; 68
    1e74:	84 8f       	std	Z+28, r24	; 0x1c
    1e76:	95 8f       	std	Z+29, r25	; 0x1d
    1e78:	a6 8f       	std	Z+30, r26	; 0x1e
    1e7a:	b7 8f       	std	Z+31, r27	; 0x1f
    1e7c:	10 a2       	std	Z+32, r1	; 0x20
    1e7e:	11 a2       	std	Z+33, r1	; 0x21
    1e80:	12 a2       	std	Z+34, r1	; 0x22
    1e82:	13 a2       	std	Z+35, r1	; 0x23
    1e84:	15 a3       	std	Z+37, r17	; 0x25
    1e86:	04 a3       	std	Z+36, r16	; 0x24
    1e88:	36 a2       	std	Z+38, r3	; 0x26
    1e8a:	37 a2       	std	Z+39, r3	; 0x27
    1e8c:	88 e2       	ldi	r24, 0x28	; 40
    1e8e:	de 01       	movw	r26, r28
    1e90:	01 90       	ld	r0, Z+
    1e92:	0d 92       	st	X+, r0
    1e94:	8a 95       	dec	r24
    1e96:	e1 f7       	brne	.-8      	; 0x1e90 <_ZN10ParametersC1Ev+0x12a>
	
}
    1e98:	df 91       	pop	r29
    1e9a:	cf 91       	pop	r28
    1e9c:	1f 91       	pop	r17
    1e9e:	0f 91       	pop	r16
    1ea0:	ff 90       	pop	r15
    1ea2:	ef 90       	pop	r14
    1ea4:	df 90       	pop	r13
    1ea6:	cf 90       	pop	r12
    1ea8:	bf 90       	pop	r11
    1eaa:	af 90       	pop	r10
    1eac:	9f 90       	pop	r9
    1eae:	8f 90       	pop	r8
    1eb0:	7f 90       	pop	r7
    1eb2:	6f 90       	pop	r6
    1eb4:	5f 90       	pop	r5
    1eb6:	4f 90       	pop	r4
    1eb8:	3f 90       	pop	r3
    1eba:	2f 90       	pop	r2
    1ebc:	08 95       	ret

00001ebe <_ZN10ParametersD1Ev>:
Parameters::~Parameters() // default destructor
    1ebe:	08 95       	ret

00001ec0 <_ZN6ScreenD1Ev>:
#include "Screen.h"

Screen::Screen() // default constructor
{
}
Screen::~Screen(){ // default destructor
    1ec0:	cf 93       	push	r28
    1ec2:	df 93       	push	r29
    1ec4:	ec 01       	movw	r28, r24
    1ec6:	8e 50       	subi	r24, 0x0E	; 14
    1ec8:	9f 4f       	sbci	r25, 0xFF	; 255
    1eca:	93 dc       	rcall	.-1754   	; 0x17f2 <_ZN5MenusD1Ev>
    1ecc:	ce 01       	movw	r24, r28
    1ece:	8a 57       	subi	r24, 0x7A	; 122
    1ed0:	9f 4f       	sbci	r25, 0xFF	; 255
    1ed2:	8f dc       	rcall	.-1762   	; 0x17f2 <_ZN5MenusD1Ev>
    1ed4:	ce 01       	movw	r24, r28
    1ed6:	88 96       	adiw	r24, 0x28	; 40
    1ed8:	5d db       	rcall	.-2374   	; 0x1594 <_ZN7ControlD1Ev>
    1eda:	ce 01       	movw	r24, r28
} 
    1edc:	df 91       	pop	r29
    1ede:	cf 91       	pop	r28
#include "Screen.h"

Screen::Screen() // default constructor
{
}
Screen::~Screen(){ // default destructor
    1ee0:	ee cf       	rjmp	.-36     	; 0x1ebe <_ZN10ParametersD1Ev>

00001ee2 <_ZN6ScreenC1EPN10Parameters8params_tEP7Control>:
    1ee2:	ef 92       	push	r14
} 
Screen::Screen(params_t *p, Control *obj){
    1ee4:	ff 92       	push	r15
    1ee6:	0f 93       	push	r16
    1ee8:	1f 93       	push	r17
    1eea:	cf 93       	push	r28
    1eec:	df 93       	push	r29
    1eee:	ec 01       	movw	r28, r24
    1ef0:	7b 01       	movw	r14, r22
    1ef2:	8a 01       	movw	r16, r20
    1ef4:	38 df       	rcall	.-400    	; 0x1d66 <_ZN10ParametersC1Ev>
    1ef6:	ce 01       	movw	r24, r28
    1ef8:	88 96       	adiw	r24, 0x28	; 40
    1efa:	42 db       	rcall	.-2428   	; 0x1580 <_ZN7ControlC1Ev>
    1efc:	ce 01       	movw	r24, r28
    1efe:	8b 5a       	subi	r24, 0xAB	; 171
    1f00:	9f 4f       	sbci	r25, 0xFF	; 255
    1f02:	36 d6       	rcall	.+3180   	; 0x2b70 <_ZN4UTFTC1Ev>
    1f04:	ce 01       	movw	r24, r28
    1f06:	8a 57       	subi	r24, 0x7A	; 122
    1f08:	9f 4f       	sbci	r25, 0xFF	; 255
    1f0a:	66 dc       	rcall	.-1844   	; 0x17d8 <_ZN5MenusC1Ev>
    1f0c:	ce 01       	movw	r24, r28
    1f0e:	83 54       	subi	r24, 0x43	; 67
    1f10:	9f 4f       	sbci	r25, 0xFF	; 255
    1f12:	2e d6       	rcall	.+3164   	; 0x2b70 <_ZN4UTFTC1Ev>
    1f14:	ce 01       	movw	r24, r28
    1f16:	8e 50       	subi	r24, 0x0E	; 14
    1f18:	9f 4f       	sbci	r25, 0xFF	; 255
    1f1a:	5e dc       	rcall	.-1860   	; 0x17d8 <_ZN5MenusC1Ev>
	paramsPtr = p;
    1f1c:	fe 01       	movw	r30, r28
    1f1e:	e7 54       	subi	r30, 0x47	; 71
    1f20:	ff 4f       	sbci	r31, 0xFF	; 255
    1f22:	f1 82       	std	Z+1, r15	; 0x01
    1f24:	e0 82       	st	Z, r14
	ctrlPtr = obj;
    1f26:	c5 54       	subi	r28, 0x45	; 69
    1f28:	df 4f       	sbci	r29, 0xFF	; 255
    1f2a:	19 83       	std	Y+1, r17	; 0x01
    1f2c:	08 83       	st	Y, r16
}
    1f2e:	df 91       	pop	r29
    1f30:	cf 91       	pop	r28
    1f32:	1f 91       	pop	r17
    1f34:	0f 91       	pop	r16
    1f36:	ff 90       	pop	r15
    1f38:	ef 90       	pop	r14
    1f3a:	08 95       	ret

00001f3c <_ZN6Screen4initEv>:

void Screen::init(){
    1f3c:	af 92       	push	r10
    1f3e:	bf 92       	push	r11
    1f40:	cf 92       	push	r12
    1f42:	df 92       	push	r13
    1f44:	ef 92       	push	r14
    1f46:	ff 92       	push	r15
    1f48:	0f 93       	push	r16
    1f4a:	1f 93       	push	r17
    1f4c:	cf 93       	push	r28
    1f4e:	df 93       	push	r29
    1f50:	ec 01       	movw	r28, r24
	lcd = *new UTFT(CTE32HR,38,39,40,41);
    1f52:	81 e3       	ldi	r24, 0x31	; 49
    1f54:	90 e0       	ldi	r25, 0x00	; 0
    1f56:	0e 94 8a 35 	call	0x6b14	; 0x6b14 <_Znwj>
    1f5a:	5c 01       	movw	r10, r24
    1f5c:	c1 2c       	mov	r12, r1
    1f5e:	d1 2c       	mov	r13, r1
    1f60:	89 e2       	ldi	r24, 0x29	; 41
    1f62:	e8 2e       	mov	r14, r24
    1f64:	f1 2c       	mov	r15, r1
    1f66:	08 e2       	ldi	r16, 0x28	; 40
    1f68:	10 e0       	ldi	r17, 0x00	; 0
    1f6a:	27 e2       	ldi	r18, 0x27	; 39
    1f6c:	30 e0       	ldi	r19, 0x00	; 0
    1f6e:	46 e2       	ldi	r20, 0x26	; 38
    1f70:	50 e0       	ldi	r21, 0x00	; 0
    1f72:	65 e1       	ldi	r22, 0x15	; 21
    1f74:	c5 01       	movw	r24, r10
    1f76:	fd d5       	rcall	.+3066   	; 0x2b72 <_ZN4UTFTC1Ehiiiii>
    1f78:	7e 01       	movw	r14, r28
    1f7a:	8d eb       	ldi	r24, 0xBD	; 189
    1f7c:	e8 0e       	add	r14, r24
    1f7e:	f1 1c       	adc	r15, r1
    1f80:	81 e3       	ldi	r24, 0x31	; 49
    1f82:	f5 01       	movw	r30, r10
    1f84:	d7 01       	movw	r26, r14
    1f86:	01 90       	ld	r0, Z+
    1f88:	0d 92       	st	X+, r0
    1f8a:	8a 95       	dec	r24
    1f8c:	e1 f7       	brne	.-8      	; 0x1f86 <_ZN6Screen4initEv+0x4a>
	lcd.InitLCD();
    1f8e:	61 e0       	ldi	r22, 0x01	; 1
    1f90:	c7 01       	movw	r24, r14
    1f92:	0e 94 08 19 	call	0x3210	; 0x3210 <_ZN4UTFT7InitLCDEh>
	extern uint8_t BigFont[];
	bFont = BigFont;
    1f96:	fe 01       	movw	r30, r28
    1f98:	e2 51       	subi	r30, 0x12	; 18
    1f9a:	ff 4f       	sbci	r31, 0xFF	; 255
    1f9c:	8e e9       	ldi	r24, 0x9E	; 158
    1f9e:	91 e0       	ldi	r25, 0x01	; 1
    1fa0:	91 83       	std	Z+1, r25	; 0x01
    1fa2:	80 83       	st	Z, r24
	extern uint8_t SmallFont[];
	sFont = SmallFont;
    1fa4:	32 96       	adiw	r30, 0x02	; 2
    1fa6:	82 e8       	ldi	r24, 0x82	; 130
    1fa8:	9d e0       	ldi	r25, 0x0D	; 13
    1faa:	91 83       	std	Z+1, r25	; 0x01
    1fac:	80 83       	st	Z, r24
	menus.passObjects(&lcd, SmallFont, BigFont, paramsPtr);
    1fae:	6e 01       	movw	r12, r28
    1fb0:	82 ef       	ldi	r24, 0xF2	; 242
    1fb2:	c8 0e       	add	r12, r24
    1fb4:	d1 1c       	adc	r13, r1
    1fb6:	c7 54       	subi	r28, 0x47	; 71
    1fb8:	df 4f       	sbci	r29, 0xFF	; 255
    1fba:	08 81       	ld	r16, Y
    1fbc:	19 81       	ldd	r17, Y+1	; 0x01
    1fbe:	2e e9       	ldi	r18, 0x9E	; 158
    1fc0:	31 e0       	ldi	r19, 0x01	; 1
    1fc2:	42 e8       	ldi	r20, 0x82	; 130
    1fc4:	5d e0       	ldi	r21, 0x0D	; 13
    1fc6:	b7 01       	movw	r22, r14
    1fc8:	c6 01       	movw	r24, r12
    1fca:	14 dc       	rcall	.-2008   	; 0x17f4 <_ZN5Menus11passObjectsEP4UTFTPhS2_PN10Parameters8params_tE>
	lcd.clrScr();
    1fcc:	c7 01       	movw	r24, r14
    1fce:	0e 94 05 2c 	call	0x580a	; 0x580a <_ZN4UTFT6clrScrEv>
	menus.draw();
    1fd2:	c6 01       	movw	r24, r12
}
    1fd4:	df 91       	pop	r29
    1fd6:	cf 91       	pop	r28
    1fd8:	1f 91       	pop	r17
    1fda:	0f 91       	pop	r16
    1fdc:	ff 90       	pop	r15
    1fde:	ef 90       	pop	r14
    1fe0:	df 90       	pop	r13
    1fe2:	cf 90       	pop	r12
    1fe4:	bf 90       	pop	r11
	bFont = BigFont;
	extern uint8_t SmallFont[];
	sFont = SmallFont;
	menus.passObjects(&lcd, SmallFont, BigFont, paramsPtr);
	lcd.clrScr();
	menus.draw();
    1fe6:	af 90       	pop	r10
    1fe8:	e9 cd       	rjmp	.-1070   	; 0x1bbc <_ZN5Menus4drawEv>

00001fea <_ZN6Screen7displayEv>:
}
void Screen::display(){
    1fea:	cf 93       	push	r28
    1fec:	df 93       	push	r29
	lcd.setBackColor(BKGCOLOR);
	lcd.setFont(bFont);
	lcd.print( "hello",0, 160);
	lcd.fillRect(240, 160, WIDTH, HEIGHT);*/
	
	if(ctrlPtr->menuChange){
    1fee:	ec 01       	movw	r28, r24
    1ff0:	c5 54       	subi	r28, 0x45	; 69
    1ff2:	df 4f       	sbci	r29, 0xFF	; 255
    1ff4:	e8 81       	ld	r30, Y
    1ff6:	f9 81       	ldd	r31, Y+1	; 0x01
    1ff8:	20 a5       	ldd	r18, Z+40	; 0x28
    1ffa:	22 23       	and	r18, r18
    1ffc:	31 f0       	breq	.+12     	; 0x200a <_ZN6Screen7displayEv+0x20>
		menus.draw();
    1ffe:	8e 50       	subi	r24, 0x0E	; 14
    2000:	9f 4f       	sbci	r25, 0xFF	; 255
    2002:	dc dd       	rcall	.-1096   	; 0x1bbc <_ZN5Menus4drawEv>
		ctrlPtr->menuChange = false;	
    2004:	e8 81       	ld	r30, Y
    2006:	f9 81       	ldd	r31, Y+1	; 0x01
    2008:	10 a6       	std	Z+40, r1	; 0x28
	}
    200a:	df 91       	pop	r29
    200c:	cf 91       	pop	r28
    200e:	08 95       	ret

00002010 <_GLOBAL__sub_I__ZN6ScreenC2Ev>:
    2010:	66 ea       	ldi	r22, 0xA6	; 166
    2012:	72 e0       	ldi	r23, 0x02	; 2
    2014:	8a e7       	ldi	r24, 0x7A	; 122
    2016:	96 e0       	ldi	r25, 0x06	; 6
    2018:	0e 94 8f 38 	call	0x711e	; 0x711e <_ZN6StringC1EPKc>
    201c:	6b ea       	ldi	r22, 0xAB	; 171
    201e:	72 e0       	ldi	r23, 0x02	; 2
    2020:	80 e8       	ldi	r24, 0x80	; 128
    2022:	96 e0       	ldi	r25, 0x06	; 6
    2024:	0e 94 8f 38 	call	0x711e	; 0x711e <_ZN6StringC1EPKc>
    2028:	60 eb       	ldi	r22, 0xB0	; 176
    202a:	72 e0       	ldi	r23, 0x02	; 2
    202c:	86 e8       	ldi	r24, 0x86	; 134
    202e:	96 e0       	ldi	r25, 0x06	; 6
    2030:	0e 94 8f 38 	call	0x711e	; 0x711e <_ZN6StringC1EPKc>
    2034:	65 eb       	ldi	r22, 0xB5	; 181
    2036:	72 e0       	ldi	r23, 0x02	; 2
    2038:	8c e8       	ldi	r24, 0x8C	; 140
    203a:	96 e0       	ldi	r25, 0x06	; 6
    203c:	0e 94 8f 38 	call	0x711e	; 0x711e <_ZN6StringC1EPKc>
    2040:	68 eb       	ldi	r22, 0xB8	; 184
    2042:	72 e0       	ldi	r23, 0x02	; 2
    2044:	82 e9       	ldi	r24, 0x92	; 146
    2046:	96 e0       	ldi	r25, 0x06	; 6
    2048:	0e 94 8f 38 	call	0x711e	; 0x711e <_ZN6StringC1EPKc>

#define BLABELS 4
const String oscLabels[BLABELS] = {"WAVE:", "FREQ:", "LFO:", "FREQ:"};
    204c:	6e eb       	ldi	r22, 0xBE	; 190
    204e:	72 e0       	ldi	r23, 0x02	; 2
    2050:	82 e6       	ldi	r24, 0x62	; 98
    2052:	96 e0       	ldi	r25, 0x06	; 6
    2054:	0e 94 8f 38 	call	0x711e	; 0x711e <_ZN6StringC1EPKc>
    2058:	64 ec       	ldi	r22, 0xC4	; 196
    205a:	72 e0       	ldi	r23, 0x02	; 2
    205c:	88 e6       	ldi	r24, 0x68	; 104
    205e:	96 e0       	ldi	r25, 0x06	; 6
    2060:	0e 94 8f 38 	call	0x711e	; 0x711e <_ZN6StringC1EPKc>
    2064:	6a ec       	ldi	r22, 0xCA	; 202
    2066:	72 e0       	ldi	r23, 0x02	; 2
    2068:	8e e6       	ldi	r24, 0x6E	; 110
    206a:	96 e0       	ldi	r25, 0x06	; 6
    206c:	0e 94 8f 38 	call	0x711e	; 0x711e <_ZN6StringC1EPKc>
    2070:	64 ec       	ldi	r22, 0xC4	; 196
    2072:	72 e0       	ldi	r23, 0x02	; 2
    2074:	84 e7       	ldi	r24, 0x74	; 116
    2076:	96 e0       	ldi	r25, 0x06	; 6
    2078:	0e 94 8f 38 	call	0x711e	; 0x711e <_ZN6StringC1EPKc>
const String filLabels[BLABELS] = {"TYPE:", "FREQ:", "RES:", "ENV:"};
    207c:	6f ec       	ldi	r22, 0xCF	; 207
    207e:	72 e0       	ldi	r23, 0x02	; 2
    2080:	8a e4       	ldi	r24, 0x4A	; 74
    2082:	96 e0       	ldi	r25, 0x06	; 6
    2084:	0e 94 8f 38 	call	0x711e	; 0x711e <_ZN6StringC1EPKc>
    2088:	64 ec       	ldi	r22, 0xC4	; 196
    208a:	72 e0       	ldi	r23, 0x02	; 2
    208c:	80 e5       	ldi	r24, 0x50	; 80
    208e:	96 e0       	ldi	r25, 0x06	; 6
    2090:	0e 94 8f 38 	call	0x711e	; 0x711e <_ZN6StringC1EPKc>
    2094:	65 ed       	ldi	r22, 0xD5	; 213
    2096:	72 e0       	ldi	r23, 0x02	; 2
    2098:	86 e5       	ldi	r24, 0x56	; 86
    209a:	96 e0       	ldi	r25, 0x06	; 6
    209c:	0e 94 8f 38 	call	0x711e	; 0x711e <_ZN6StringC1EPKc>
    20a0:	6a ed       	ldi	r22, 0xDA	; 218
    20a2:	72 e0       	ldi	r23, 0x02	; 2
    20a4:	8c e5       	ldi	r24, 0x5C	; 92
    20a6:	96 e0       	ldi	r25, 0x06	; 6
    20a8:	0e 94 8f 38 	call	0x711e	; 0x711e <_ZN6StringC1EPKc>
const String envLabels[BLABELS] = {"ATK:", "DEC:", "SUS:", "REL:"};	
    20ac:	6f ed       	ldi	r22, 0xDF	; 223
    20ae:	72 e0       	ldi	r23, 0x02	; 2
    20b0:	82 e3       	ldi	r24, 0x32	; 50
    20b2:	96 e0       	ldi	r25, 0x06	; 6
    20b4:	0e 94 8f 38 	call	0x711e	; 0x711e <_ZN6StringC1EPKc>
    20b8:	64 ee       	ldi	r22, 0xE4	; 228
    20ba:	72 e0       	ldi	r23, 0x02	; 2
    20bc:	88 e3       	ldi	r24, 0x38	; 56
    20be:	96 e0       	ldi	r25, 0x06	; 6
    20c0:	0e 94 8f 38 	call	0x711e	; 0x711e <_ZN6StringC1EPKc>
    20c4:	69 ee       	ldi	r22, 0xE9	; 233
    20c6:	72 e0       	ldi	r23, 0x02	; 2
    20c8:	8e e3       	ldi	r24, 0x3E	; 62
    20ca:	96 e0       	ldi	r25, 0x06	; 6
    20cc:	0e 94 8f 38 	call	0x711e	; 0x711e <_ZN6StringC1EPKc>
    20d0:	6e ee       	ldi	r22, 0xEE	; 238
    20d2:	72 e0       	ldi	r23, 0x02	; 2
    20d4:	84 e4       	ldi	r24, 0x44	; 68
    20d6:	96 e0       	ldi	r25, 0x06	; 6
    20d8:	0e 94 8f 38 	call	0x711e	; 0x711e <_ZN6StringC1EPKc>
const String fxLabels[BLABELS] = {"TYPE:", "AMT:", "PARAM:", "LFO:"};
    20dc:	6f ec       	ldi	r22, 0xCF	; 207
    20de:	72 e0       	ldi	r23, 0x02	; 2
    20e0:	8a e1       	ldi	r24, 0x1A	; 26
    20e2:	96 e0       	ldi	r25, 0x06	; 6
    20e4:	0e 94 8f 38 	call	0x711e	; 0x711e <_ZN6StringC1EPKc>
    20e8:	63 ef       	ldi	r22, 0xF3	; 243
    20ea:	72 e0       	ldi	r23, 0x02	; 2
    20ec:	80 e2       	ldi	r24, 0x20	; 32
    20ee:	96 e0       	ldi	r25, 0x06	; 6
    20f0:	0e 94 8f 38 	call	0x711e	; 0x711e <_ZN6StringC1EPKc>
    20f4:	68 ef       	ldi	r22, 0xF8	; 248
    20f6:	72 e0       	ldi	r23, 0x02	; 2
    20f8:	86 e2       	ldi	r24, 0x26	; 38
    20fa:	96 e0       	ldi	r25, 0x06	; 6
    20fc:	0e 94 8f 38 	call	0x711e	; 0x711e <_ZN6StringC1EPKc>
    2100:	6a ec       	ldi	r22, 0xCA	; 202
    2102:	72 e0       	ldi	r23, 0x02	; 2
    2104:	8c e2       	ldi	r24, 0x2C	; 44
    2106:	96 e0       	ldi	r25, 0x06	; 6
    2108:	0c 94 8f 38 	jmp	0x711e	; 0x711e <_ZN6StringC1EPKc>

0000210c <_GLOBAL__sub_D__ZN6ScreenC2Ev>:
    210c:	cf 93       	push	r28
    210e:	df 93       	push	r29
    2110:	8c e2       	ldi	r24, 0x2C	; 44
    2112:	96 e0       	ldi	r25, 0x06	; 6
    2114:	0e 94 28 38 	call	0x7050	; 0x7050 <_ZN6StringD1Ev>
    2118:	86 e2       	ldi	r24, 0x26	; 38
    211a:	96 e0       	ldi	r25, 0x06	; 6
    211c:	0e 94 28 38 	call	0x7050	; 0x7050 <_ZN6StringD1Ev>
    2120:	80 e2       	ldi	r24, 0x20	; 32
    2122:	96 e0       	ldi	r25, 0x06	; 6
    2124:	0e 94 28 38 	call	0x7050	; 0x7050 <_ZN6StringD1Ev>
    2128:	8a e1       	ldi	r24, 0x1A	; 26
    212a:	96 e0       	ldi	r25, 0x06	; 6
    212c:	0e 94 28 38 	call	0x7050	; 0x7050 <_ZN6StringD1Ev>
const String tmLabels[TLABELS] = {"OSC.", "FIL.", "ENV.", "FX", "SETT."};

#define BLABELS 4
const String oscLabels[BLABELS] = {"WAVE:", "FREQ:", "LFO:", "FREQ:"};
const String filLabels[BLABELS] = {"TYPE:", "FREQ:", "RES:", "ENV:"};
const String envLabels[BLABELS] = {"ATK:", "DEC:", "SUS:", "REL:"};	
    2130:	84 e4       	ldi	r24, 0x44	; 68
    2132:	96 e0       	ldi	r25, 0x06	; 6
    2134:	0e 94 28 38 	call	0x7050	; 0x7050 <_ZN6StringD1Ev>
    2138:	8e e3       	ldi	r24, 0x3E	; 62
    213a:	96 e0       	ldi	r25, 0x06	; 6
    213c:	0e 94 28 38 	call	0x7050	; 0x7050 <_ZN6StringD1Ev>
    2140:	88 e3       	ldi	r24, 0x38	; 56
    2142:	96 e0       	ldi	r25, 0x06	; 6
    2144:	0e 94 28 38 	call	0x7050	; 0x7050 <_ZN6StringD1Ev>
    2148:	82 e3       	ldi	r24, 0x32	; 50
    214a:	96 e0       	ldi	r25, 0x06	; 6
    214c:	0e 94 28 38 	call	0x7050	; 0x7050 <_ZN6StringD1Ev>
#define TLABELS 5
const String tmLabels[TLABELS] = {"OSC.", "FIL.", "ENV.", "FX", "SETT."};

#define BLABELS 4
const String oscLabels[BLABELS] = {"WAVE:", "FREQ:", "LFO:", "FREQ:"};
const String filLabels[BLABELS] = {"TYPE:", "FREQ:", "RES:", "ENV:"};
    2150:	8c e5       	ldi	r24, 0x5C	; 92
    2152:	96 e0       	ldi	r25, 0x06	; 6
    2154:	0e 94 28 38 	call	0x7050	; 0x7050 <_ZN6StringD1Ev>
    2158:	86 e5       	ldi	r24, 0x56	; 86
    215a:	96 e0       	ldi	r25, 0x06	; 6
    215c:	0e 94 28 38 	call	0x7050	; 0x7050 <_ZN6StringD1Ev>
    2160:	80 e5       	ldi	r24, 0x50	; 80
    2162:	96 e0       	ldi	r25, 0x06	; 6
    2164:	0e 94 28 38 	call	0x7050	; 0x7050 <_ZN6StringD1Ev>
    2168:	8a e4       	ldi	r24, 0x4A	; 74
    216a:	96 e0       	ldi	r25, 0x06	; 6
    216c:	0e 94 28 38 	call	0x7050	; 0x7050 <_ZN6StringD1Ev>

#define TLABELS 5
const String tmLabels[TLABELS] = {"OSC.", "FIL.", "ENV.", "FX", "SETT."};

#define BLABELS 4
const String oscLabels[BLABELS] = {"WAVE:", "FREQ:", "LFO:", "FREQ:"};
    2170:	84 e7       	ldi	r24, 0x74	; 116
    2172:	96 e0       	ldi	r25, 0x06	; 6
    2174:	0e 94 28 38 	call	0x7050	; 0x7050 <_ZN6StringD1Ev>
    2178:	8e e6       	ldi	r24, 0x6E	; 110
    217a:	96 e0       	ldi	r25, 0x06	; 6
    217c:	0e 94 28 38 	call	0x7050	; 0x7050 <_ZN6StringD1Ev>
    2180:	88 e6       	ldi	r24, 0x68	; 104
    2182:	96 e0       	ldi	r25, 0x06	; 6
    2184:	0e 94 28 38 	call	0x7050	; 0x7050 <_ZN6StringD1Ev>
    2188:	82 e6       	ldi	r24, 0x62	; 98
    218a:	96 e0       	ldi	r25, 0x06	; 6
    218c:	0e 94 28 38 	call	0x7050	; 0x7050 <_ZN6StringD1Ev>
    2190:	c8 e9       	ldi	r28, 0x98	; 152
    2192:	d6 e0       	ldi	r29, 0x06	; 6
#define BKGCOLOR 0x0000 // black
#define COLOR 0xF800 // red
#define STROKEWEIGHT 3

#define TLABELS 5
const String tmLabels[TLABELS] = {"OSC.", "FIL.", "ENV.", "FX", "SETT."};
    2194:	26 97       	sbiw	r28, 0x06	; 6
    2196:	ce 01       	movw	r24, r28
    2198:	0e 94 28 38 	call	0x7050	; 0x7050 <_ZN6StringD1Ev>
    219c:	86 e0       	ldi	r24, 0x06	; 6
    219e:	ca 37       	cpi	r28, 0x7A	; 122
    21a0:	d8 07       	cpc	r29, r24
    21a2:	c1 f7       	brne	.-16     	; 0x2194 <_GLOBAL__sub_D__ZN6ScreenC2Ev+0x88>
    21a4:	df 91       	pop	r29
    21a6:	cf 91       	pop	r28
    21a8:	08 95       	ret

000021aa <_ZN4UTFT12LCD_Writ_BusEcch>:
					st[i]=filler;
		}
	}

	print(st,x,y);
}
    21aa:	fc 01       	movw	r30, r24
    21ac:	28 30       	cpi	r18, 0x08	; 8
    21ae:	09 f4       	brne	.+2      	; 0x21b2 <_ZN4UTFT12LCD_Writ_BusEcch+0x8>
    21b0:	ee c0       	rjmp	.+476    	; 0x238e <__stack+0x18f>
    21b2:	18 f4       	brcc	.+6      	; 0x21ba <_ZN4UTFT12LCD_Writ_BusEcch+0x10>
    21b4:	21 30       	cpi	r18, 0x01	; 1
    21b6:	41 f0       	breq	.+16     	; 0x21c8 <_ZN4UTFT12LCD_Writ_BusEcch+0x1e>
    21b8:	08 95       	ret
    21ba:	20 31       	cpi	r18, 0x10	; 16
    21bc:	09 f4       	brne	.+2      	; 0x21c0 <_ZN4UTFT12LCD_Writ_BusEcch+0x16>
    21be:	f7 c0       	rjmp	.+494    	; 0x23ae <__stack+0x1af>
    21c0:	21 31       	cpi	r18, 0x11	; 17
    21c2:	09 f4       	brne	.+2      	; 0x21c6 <_ZN4UTFT12LCD_Writ_BusEcch+0x1c>
    21c4:	02 c1       	rjmp	.+516    	; 0x23ca <__stack+0x1cb>
    21c6:	08 95       	ret
    21c8:	87 85       	ldd	r24, Z+15	; 0x0f
    21ca:	84 30       	cpi	r24, 0x04	; 4
    21cc:	c1 f4       	brne	.+48     	; 0x21fe <_ZN4UTFT12LCD_Writ_BusEcch+0x54>
    21ce:	a0 8d       	ldd	r26, Z+24	; 0x18
    21d0:	b1 8d       	ldd	r27, Z+25	; 0x19
    21d2:	82 a1       	ldd	r24, Z+34	; 0x22
    21d4:	9c 91       	ld	r25, X
    21d6:	61 30       	cpi	r22, 0x01	; 1
    21d8:	11 f4       	brne	.+4      	; 0x21de <_ZN4UTFT12LCD_Writ_BusEcch+0x34>
    21da:	89 2b       	or	r24, r25
    21dc:	02 c0       	rjmp	.+4      	; 0x21e2 <_ZN4UTFT12LCD_Writ_BusEcch+0x38>
    21de:	80 95       	com	r24
    21e0:	89 23       	and	r24, r25
    21e2:	8c 93       	st	X, r24
    21e4:	a2 8d       	ldd	r26, Z+26	; 0x1a
    21e6:	b3 8d       	ldd	r27, Z+27	; 0x1b
    21e8:	9c 91       	ld	r25, X
    21ea:	83 a1       	ldd	r24, Z+35	; 0x23
    21ec:	80 95       	com	r24
    21ee:	89 23       	and	r24, r25
    21f0:	8c 93       	st	X, r24
    21f2:	a2 8d       	ldd	r26, Z+26	; 0x1a
    21f4:	b3 8d       	ldd	r27, Z+27	; 0x1b
    21f6:	9c 91       	ld	r25, X
    21f8:	83 a1       	ldd	r24, Z+35	; 0x23
    21fa:	89 2b       	or	r24, r25
    21fc:	08 c0       	rjmp	.+16     	; 0x220e <__stack+0xf>
    21fe:	a0 89       	ldd	r26, Z+16	; 0x10
    2200:	b1 89       	ldd	r27, Z+17	; 0x11
    2202:	86 8d       	ldd	r24, Z+30	; 0x1e
    2204:	9c 91       	ld	r25, X
    2206:	61 30       	cpi	r22, 0x01	; 1
    2208:	c1 f3       	breq	.-16     	; 0x21fa <_ZN4UTFT12LCD_Writ_BusEcch+0x50>
    220a:	80 95       	com	r24
    220c:	89 23       	and	r24, r25
    220e:	8c 93       	st	X, r24
    2210:	a0 8d       	ldd	r26, Z+24	; 0x18
    2212:	b1 8d       	ldd	r27, Z+25	; 0x19
    2214:	82 a1       	ldd	r24, Z+34	; 0x22
    2216:	9c 91       	ld	r25, X
    2218:	47 ff       	sbrs	r20, 7
    221a:	02 c0       	rjmp	.+4      	; 0x2220 <__stack+0x21>
    221c:	89 2b       	or	r24, r25
    221e:	02 c0       	rjmp	.+4      	; 0x2224 <__stack+0x25>
    2220:	80 95       	com	r24
    2222:	89 23       	and	r24, r25
    2224:	8c 93       	st	X, r24
    2226:	a2 8d       	ldd	r26, Z+26	; 0x1a
    2228:	b3 8d       	ldd	r27, Z+27	; 0x1b
    222a:	9c 91       	ld	r25, X
    222c:	83 a1       	ldd	r24, Z+35	; 0x23
    222e:	80 95       	com	r24
    2230:	89 23       	and	r24, r25
    2232:	8c 93       	st	X, r24
    2234:	a2 8d       	ldd	r26, Z+26	; 0x1a
    2236:	b3 8d       	ldd	r27, Z+27	; 0x1b
    2238:	9c 91       	ld	r25, X
    223a:	83 a1       	ldd	r24, Z+35	; 0x23
    223c:	89 2b       	or	r24, r25
    223e:	8c 93       	st	X, r24
    2240:	a0 8d       	ldd	r26, Z+24	; 0x18
    2242:	b1 8d       	ldd	r27, Z+25	; 0x19
    2244:	82 a1       	ldd	r24, Z+34	; 0x22
    2246:	9c 91       	ld	r25, X
    2248:	46 ff       	sbrs	r20, 6
    224a:	02 c0       	rjmp	.+4      	; 0x2250 <__stack+0x51>
    224c:	89 2b       	or	r24, r25
    224e:	02 c0       	rjmp	.+4      	; 0x2254 <__stack+0x55>
    2250:	80 95       	com	r24
    2252:	89 23       	and	r24, r25
    2254:	8c 93       	st	X, r24
    2256:	a2 8d       	ldd	r26, Z+26	; 0x1a
    2258:	b3 8d       	ldd	r27, Z+27	; 0x1b
    225a:	9c 91       	ld	r25, X
    225c:	83 a1       	ldd	r24, Z+35	; 0x23
    225e:	80 95       	com	r24
    2260:	89 23       	and	r24, r25
    2262:	8c 93       	st	X, r24
    2264:	a2 8d       	ldd	r26, Z+26	; 0x1a
    2266:	b3 8d       	ldd	r27, Z+27	; 0x1b
    2268:	9c 91       	ld	r25, X
    226a:	83 a1       	ldd	r24, Z+35	; 0x23
    226c:	89 2b       	or	r24, r25
    226e:	8c 93       	st	X, r24
    2270:	a0 8d       	ldd	r26, Z+24	; 0x18
    2272:	b1 8d       	ldd	r27, Z+25	; 0x19
    2274:	82 a1       	ldd	r24, Z+34	; 0x22
    2276:	9c 91       	ld	r25, X
    2278:	45 ff       	sbrs	r20, 5
    227a:	02 c0       	rjmp	.+4      	; 0x2280 <__stack+0x81>
    227c:	89 2b       	or	r24, r25
    227e:	02 c0       	rjmp	.+4      	; 0x2284 <__stack+0x85>
    2280:	80 95       	com	r24
    2282:	89 23       	and	r24, r25
    2284:	8c 93       	st	X, r24
    2286:	a2 8d       	ldd	r26, Z+26	; 0x1a
    2288:	b3 8d       	ldd	r27, Z+27	; 0x1b
    228a:	9c 91       	ld	r25, X
    228c:	83 a1       	ldd	r24, Z+35	; 0x23
    228e:	80 95       	com	r24
    2290:	89 23       	and	r24, r25
    2292:	8c 93       	st	X, r24
    2294:	a2 8d       	ldd	r26, Z+26	; 0x1a
    2296:	b3 8d       	ldd	r27, Z+27	; 0x1b
    2298:	9c 91       	ld	r25, X
    229a:	83 a1       	ldd	r24, Z+35	; 0x23
    229c:	89 2b       	or	r24, r25
    229e:	8c 93       	st	X, r24
    22a0:	a0 8d       	ldd	r26, Z+24	; 0x18
    22a2:	b1 8d       	ldd	r27, Z+25	; 0x19
    22a4:	82 a1       	ldd	r24, Z+34	; 0x22
    22a6:	9c 91       	ld	r25, X
    22a8:	44 ff       	sbrs	r20, 4
    22aa:	02 c0       	rjmp	.+4      	; 0x22b0 <__stack+0xb1>
    22ac:	89 2b       	or	r24, r25
    22ae:	02 c0       	rjmp	.+4      	; 0x22b4 <__stack+0xb5>
    22b0:	80 95       	com	r24
    22b2:	89 23       	and	r24, r25
    22b4:	8c 93       	st	X, r24
    22b6:	a2 8d       	ldd	r26, Z+26	; 0x1a
    22b8:	b3 8d       	ldd	r27, Z+27	; 0x1b
    22ba:	9c 91       	ld	r25, X
    22bc:	83 a1       	ldd	r24, Z+35	; 0x23
    22be:	80 95       	com	r24
    22c0:	89 23       	and	r24, r25
    22c2:	8c 93       	st	X, r24
    22c4:	a2 8d       	ldd	r26, Z+26	; 0x1a
    22c6:	b3 8d       	ldd	r27, Z+27	; 0x1b
    22c8:	9c 91       	ld	r25, X
    22ca:	83 a1       	ldd	r24, Z+35	; 0x23
    22cc:	89 2b       	or	r24, r25
    22ce:	8c 93       	st	X, r24
    22d0:	a0 8d       	ldd	r26, Z+24	; 0x18
    22d2:	b1 8d       	ldd	r27, Z+25	; 0x19
    22d4:	82 a1       	ldd	r24, Z+34	; 0x22
    22d6:	9c 91       	ld	r25, X
    22d8:	43 ff       	sbrs	r20, 3
    22da:	02 c0       	rjmp	.+4      	; 0x22e0 <__stack+0xe1>
    22dc:	89 2b       	or	r24, r25
    22de:	02 c0       	rjmp	.+4      	; 0x22e4 <__stack+0xe5>
    22e0:	80 95       	com	r24
    22e2:	89 23       	and	r24, r25
    22e4:	8c 93       	st	X, r24
    22e6:	a2 8d       	ldd	r26, Z+26	; 0x1a
    22e8:	b3 8d       	ldd	r27, Z+27	; 0x1b
    22ea:	9c 91       	ld	r25, X
    22ec:	83 a1       	ldd	r24, Z+35	; 0x23
    22ee:	80 95       	com	r24
    22f0:	89 23       	and	r24, r25
    22f2:	8c 93       	st	X, r24
    22f4:	a2 8d       	ldd	r26, Z+26	; 0x1a
    22f6:	b3 8d       	ldd	r27, Z+27	; 0x1b
    22f8:	9c 91       	ld	r25, X
    22fa:	83 a1       	ldd	r24, Z+35	; 0x23
    22fc:	89 2b       	or	r24, r25
    22fe:	8c 93       	st	X, r24
    2300:	a0 8d       	ldd	r26, Z+24	; 0x18
    2302:	b1 8d       	ldd	r27, Z+25	; 0x19
    2304:	82 a1       	ldd	r24, Z+34	; 0x22
    2306:	9c 91       	ld	r25, X
    2308:	42 ff       	sbrs	r20, 2
    230a:	02 c0       	rjmp	.+4      	; 0x2310 <__stack+0x111>
    230c:	89 2b       	or	r24, r25
    230e:	02 c0       	rjmp	.+4      	; 0x2314 <__stack+0x115>
    2310:	80 95       	com	r24
    2312:	89 23       	and	r24, r25
    2314:	8c 93       	st	X, r24
    2316:	a2 8d       	ldd	r26, Z+26	; 0x1a
    2318:	b3 8d       	ldd	r27, Z+27	; 0x1b
    231a:	9c 91       	ld	r25, X
    231c:	83 a1       	ldd	r24, Z+35	; 0x23
    231e:	80 95       	com	r24
    2320:	89 23       	and	r24, r25
    2322:	8c 93       	st	X, r24
    2324:	a2 8d       	ldd	r26, Z+26	; 0x1a
    2326:	b3 8d       	ldd	r27, Z+27	; 0x1b
    2328:	9c 91       	ld	r25, X
    232a:	83 a1       	ldd	r24, Z+35	; 0x23
    232c:	89 2b       	or	r24, r25
    232e:	8c 93       	st	X, r24
    2330:	a0 8d       	ldd	r26, Z+24	; 0x18
    2332:	b1 8d       	ldd	r27, Z+25	; 0x19
    2334:	82 a1       	ldd	r24, Z+34	; 0x22
    2336:	9c 91       	ld	r25, X
    2338:	41 ff       	sbrs	r20, 1
    233a:	02 c0       	rjmp	.+4      	; 0x2340 <__stack+0x141>
    233c:	89 2b       	or	r24, r25
    233e:	02 c0       	rjmp	.+4      	; 0x2344 <__stack+0x145>
    2340:	80 95       	com	r24
    2342:	89 23       	and	r24, r25
    2344:	8c 93       	st	X, r24
    2346:	a2 8d       	ldd	r26, Z+26	; 0x1a
    2348:	b3 8d       	ldd	r27, Z+27	; 0x1b
    234a:	9c 91       	ld	r25, X
    234c:	83 a1       	ldd	r24, Z+35	; 0x23
    234e:	80 95       	com	r24
    2350:	89 23       	and	r24, r25
    2352:	8c 93       	st	X, r24
    2354:	a2 8d       	ldd	r26, Z+26	; 0x1a
    2356:	b3 8d       	ldd	r27, Z+27	; 0x1b
    2358:	9c 91       	ld	r25, X
    235a:	83 a1       	ldd	r24, Z+35	; 0x23
    235c:	89 2b       	or	r24, r25
    235e:	8c 93       	st	X, r24
    2360:	a0 8d       	ldd	r26, Z+24	; 0x18
    2362:	b1 8d       	ldd	r27, Z+25	; 0x19
    2364:	82 a1       	ldd	r24, Z+34	; 0x22
    2366:	9c 91       	ld	r25, X
    2368:	40 ff       	sbrs	r20, 0
    236a:	02 c0       	rjmp	.+4      	; 0x2370 <__stack+0x171>
    236c:	89 2b       	or	r24, r25
    236e:	02 c0       	rjmp	.+4      	; 0x2374 <__stack+0x175>
    2370:	80 95       	com	r24
    2372:	89 23       	and	r24, r25
    2374:	8c 93       	st	X, r24
    2376:	a2 8d       	ldd	r26, Z+26	; 0x1a
    2378:	b3 8d       	ldd	r27, Z+27	; 0x1b
    237a:	9c 91       	ld	r25, X
    237c:	83 a1       	ldd	r24, Z+35	; 0x23
    237e:	80 95       	com	r24
    2380:	89 23       	and	r24, r25
    2382:	8c 93       	st	X, r24
    2384:	a2 8d       	ldd	r26, Z+26	; 0x1a
    2386:	b3 8d       	ldd	r27, Z+27	; 0x1b
    2388:	9c 91       	ld	r25, X
    238a:	83 a1       	ldd	r24, Z+35	; 0x23
    238c:	a2 c0       	rjmp	.+324    	; 0x24d2 <__stack+0x2d3>
    238e:	62 b9       	out	0x02, r22	; 2
    2390:	a2 89       	ldd	r26, Z+18	; 0x12
    2392:	b3 89       	ldd	r27, Z+19	; 0x13
    2394:	9c 91       	ld	r25, X
    2396:	87 8d       	ldd	r24, Z+31	; 0x1f
    2398:	80 95       	com	r24
    239a:	89 23       	and	r24, r25
    239c:	8c 93       	st	X, r24
    239e:	a2 89       	ldd	r26, Z+18	; 0x12
    23a0:	b3 89       	ldd	r27, Z+19	; 0x13
    23a2:	9c 91       	ld	r25, X
    23a4:	87 8d       	ldd	r24, Z+31	; 0x1f
    23a6:	89 2b       	or	r24, r25
    23a8:	8c 93       	st	X, r24
    23aa:	42 b9       	out	0x02, r20	; 2
    23ac:	02 c0       	rjmp	.+4      	; 0x23b2 <__stack+0x1b3>
    23ae:	62 b9       	out	0x02, r22	; 2
    23b0:	48 b9       	out	0x08, r20	; 8
    23b2:	a2 89       	ldd	r26, Z+18	; 0x12
    23b4:	b3 89       	ldd	r27, Z+19	; 0x13
    23b6:	9c 91       	ld	r25, X
    23b8:	87 8d       	ldd	r24, Z+31	; 0x1f
    23ba:	80 95       	com	r24
    23bc:	89 23       	and	r24, r25
    23be:	8c 93       	st	X, r24
    23c0:	a2 89       	ldd	r26, Z+18	; 0x12
    23c2:	b3 89       	ldd	r27, Z+19	; 0x13
    23c4:	9c 91       	ld	r25, X
    23c6:	87 8d       	ldd	r24, Z+31	; 0x1f
    23c8:	84 c0       	rjmp	.+264    	; 0x24d2 <__stack+0x2d3>
    23ca:	a5 98       	cbi	0x14, 5	; 20
    23cc:	94 b3       	in	r25, 0x14	; 20
    23ce:	86 2f       	mov	r24, r22
    23d0:	80 71       	andi	r24, 0x10	; 16
    23d2:	88 0f       	add	r24, r24
    23d4:	89 2b       	or	r24, r25
    23d6:	84 bb       	out	0x14, r24	; 20
    23d8:	80 91 02 01 	lds	r24, 0x0102	; 0x800102 <__TEXT_REGION_LENGTH__+0x700102>
    23dc:	87 7e       	andi	r24, 0xE7	; 231
    23de:	80 93 02 01 	sts	0x0102, r24	; 0x800102 <__TEXT_REGION_LENGTH__+0x700102>
    23e2:	90 91 02 01 	lds	r25, 0x0102	; 0x800102 <__TEXT_REGION_LENGTH__+0x700102>
    23e6:	86 2f       	mov	r24, r22
    23e8:	80 7c       	andi	r24, 0xC0	; 192
    23ea:	86 95       	lsr	r24
    23ec:	86 95       	lsr	r24
    23ee:	86 95       	lsr	r24
    23f0:	89 2b       	or	r24, r25
    23f2:	80 93 02 01 	sts	0x0102, r24	; 0x800102 <__TEXT_REGION_LENGTH__+0x700102>
    23f6:	8e b1       	in	r24, 0x0e	; 14
    23f8:	84 7c       	andi	r24, 0xC4	; 196
    23fa:	8e b9       	out	0x0e, r24	; 14
    23fc:	9e b1       	in	r25, 0x0e	; 14
    23fe:	26 2f       	mov	r18, r22
    2400:	2c 70       	andi	r18, 0x0C	; 12
    2402:	22 0f       	add	r18, r18
    2404:	22 0f       	add	r18, r18
    2406:	86 2f       	mov	r24, r22
    2408:	83 70       	andi	r24, 0x03	; 3
    240a:	28 0f       	add	r18, r24
    240c:	86 2f       	mov	r24, r22
    240e:	80 72       	andi	r24, 0x20	; 32
    2410:	68 2f       	mov	r22, r24
    2412:	70 e0       	ldi	r23, 0x00	; 0
    2414:	75 95       	asr	r23
    2416:	67 95       	ror	r22
    2418:	75 95       	asr	r23
    241a:	67 95       	ror	r22
    241c:	62 0f       	add	r22, r18
    241e:	69 2b       	or	r22, r25
    2420:	6e b9       	out	0x0e, r22	; 14
    2422:	a4 8d       	ldd	r26, Z+28	; 0x1c
    2424:	b5 8d       	ldd	r27, Z+29	; 0x1d
    2426:	9c 91       	ld	r25, X
    2428:	84 a1       	ldd	r24, Z+36	; 0x24
    242a:	80 95       	com	r24
    242c:	89 23       	and	r24, r25
    242e:	8c 93       	st	X, r24
    2430:	a4 8d       	ldd	r26, Z+28	; 0x1c
    2432:	b5 8d       	ldd	r27, Z+29	; 0x1d
    2434:	9c 91       	ld	r25, X
    2436:	84 a1       	ldd	r24, Z+36	; 0x24
    2438:	89 2b       	or	r24, r25
    243a:	8c 93       	st	X, r24
    243c:	a4 8d       	ldd	r26, Z+28	; 0x1c
    243e:	b5 8d       	ldd	r27, Z+29	; 0x1d
    2440:	9c 91       	ld	r25, X
    2442:	84 a1       	ldd	r24, Z+36	; 0x24
    2444:	80 95       	com	r24
    2446:	89 23       	and	r24, r25
    2448:	8c 93       	st	X, r24
    244a:	a4 89       	ldd	r26, Z+20	; 0x14
    244c:	b5 89       	ldd	r27, Z+21	; 0x15
    244e:	9c 91       	ld	r25, X
    2450:	80 a1       	ldd	r24, Z+32	; 0x20
    2452:	80 95       	com	r24
    2454:	89 23       	and	r24, r25
    2456:	8c 93       	st	X, r24
    2458:	a5 98       	cbi	0x14, 5	; 20
    245a:	94 b3       	in	r25, 0x14	; 20
    245c:	84 2f       	mov	r24, r20
    245e:	80 71       	andi	r24, 0x10	; 16
    2460:	88 0f       	add	r24, r24
    2462:	89 2b       	or	r24, r25
    2464:	84 bb       	out	0x14, r24	; 20
    2466:	80 91 02 01 	lds	r24, 0x0102	; 0x800102 <__TEXT_REGION_LENGTH__+0x700102>
    246a:	87 7e       	andi	r24, 0xE7	; 231
    246c:	80 93 02 01 	sts	0x0102, r24	; 0x800102 <__TEXT_REGION_LENGTH__+0x700102>
    2470:	90 91 02 01 	lds	r25, 0x0102	; 0x800102 <__TEXT_REGION_LENGTH__+0x700102>
    2474:	84 2f       	mov	r24, r20
    2476:	80 7c       	andi	r24, 0xC0	; 192
    2478:	86 95       	lsr	r24
    247a:	86 95       	lsr	r24
    247c:	86 95       	lsr	r24
    247e:	89 2b       	or	r24, r25
    2480:	80 93 02 01 	sts	0x0102, r24	; 0x800102 <__TEXT_REGION_LENGTH__+0x700102>
    2484:	8e b1       	in	r24, 0x0e	; 14
    2486:	84 7c       	andi	r24, 0xC4	; 196
    2488:	8e b9       	out	0x0e, r24	; 14
    248a:	9e b1       	in	r25, 0x0e	; 14
    248c:	24 2f       	mov	r18, r20
    248e:	2c 70       	andi	r18, 0x0C	; 12
    2490:	22 0f       	add	r18, r18
    2492:	22 0f       	add	r18, r18
    2494:	84 2f       	mov	r24, r20
    2496:	83 70       	andi	r24, 0x03	; 3
    2498:	28 0f       	add	r18, r24
    249a:	84 2f       	mov	r24, r20
    249c:	80 72       	andi	r24, 0x20	; 32
    249e:	48 2f       	mov	r20, r24
    24a0:	50 e0       	ldi	r21, 0x00	; 0
    24a2:	55 95       	asr	r21
    24a4:	47 95       	ror	r20
    24a6:	55 95       	asr	r21
    24a8:	47 95       	ror	r20
    24aa:	42 0f       	add	r20, r18
    24ac:	49 2b       	or	r20, r25
    24ae:	4e b9       	out	0x0e, r20	; 14
    24b0:	a2 89       	ldd	r26, Z+18	; 0x12
    24b2:	b3 89       	ldd	r27, Z+19	; 0x13
    24b4:	9c 91       	ld	r25, X
    24b6:	87 8d       	ldd	r24, Z+31	; 0x1f
    24b8:	80 95       	com	r24
    24ba:	89 23       	and	r24, r25
    24bc:	8c 93       	st	X, r24
    24be:	a2 89       	ldd	r26, Z+18	; 0x12
    24c0:	b3 89       	ldd	r27, Z+19	; 0x13
    24c2:	9c 91       	ld	r25, X
    24c4:	87 8d       	ldd	r24, Z+31	; 0x1f
    24c6:	89 2b       	or	r24, r25
    24c8:	8c 93       	st	X, r24
    24ca:	a4 89       	ldd	r26, Z+20	; 0x14
    24cc:	b5 89       	ldd	r27, Z+21	; 0x15
    24ce:	9c 91       	ld	r25, X
    24d0:	80 a1       	ldd	r24, Z+32	; 0x20
    24d2:	89 2b       	or	r24, r25
    24d4:	8c 93       	st	X, r24
    24d6:	08 95       	ret

000024d8 <_ZN4UTFT24_set_direction_registersEh>:
    24d8:	61 31       	cpi	r22, 0x11	; 17
    24da:	31 f0       	breq	.+12     	; 0x24e8 <_ZN4UTFT24_set_direction_registersEh+0x10>
    24dc:	8f ef       	ldi	r24, 0xFF	; 255
    24de:	81 b9       	out	0x01, r24	; 1
    24e0:	60 31       	cpi	r22, 0x10	; 16
    24e2:	49 f4       	brne	.+18     	; 0x24f6 <_ZN4UTFT24_set_direction_registersEh+0x1e>
    24e4:	87 b9       	out	0x07, r24	; 7
    24e6:	08 95       	ret
    24e8:	88 e1       	ldi	r24, 0x18	; 24
    24ea:	80 93 01 01 	sts	0x0101, r24	; 0x800101 <__TEXT_REGION_LENGTH__+0x700101>
    24ee:	80 e2       	ldi	r24, 0x20	; 32
    24f0:	83 bb       	out	0x13, r24	; 19
    24f2:	8b e3       	ldi	r24, 0x3B	; 59
    24f4:	8d b9       	out	0x0d, r24	; 13
    24f6:	08 95       	ret

000024f8 <_ZN4UTFT13_fast_fill_16Eiil>:
    24f8:	8f 92       	push	r8
    24fa:	9f 92       	push	r9
    24fc:	af 92       	push	r10
    24fe:	bf 92       	push	r11
    2500:	cf 92       	push	r12
    2502:	df 92       	push	r13
    2504:	ef 92       	push	r14
    2506:	ff 92       	push	r15
    2508:	0f 93       	push	r16
    250a:	1f 93       	push	r17
    250c:	cf 93       	push	r28
    250e:	df 93       	push	r29
    2510:	ec 01       	movw	r28, r24
    2512:	68 01       	movw	r12, r16
    2514:	79 01       	movw	r14, r18
    2516:	62 b9       	out	0x02, r22	; 2
    2518:	48 b9       	out	0x08, r20	; 8
    251a:	c9 01       	movw	r24, r18
    251c:	b8 01       	movw	r22, r16
    251e:	20 e1       	ldi	r18, 0x10	; 16
    2520:	30 e0       	ldi	r19, 0x00	; 0
    2522:	40 e0       	ldi	r20, 0x00	; 0
    2524:	50 e0       	ldi	r21, 0x00	; 0
    2526:	0e 94 26 3a 	call	0x744c	; 0x744c <__divmodsi4>
    252a:	49 01       	movw	r8, r18
    252c:	5a 01       	movw	r10, r20
    252e:	80 e0       	ldi	r24, 0x00	; 0
    2530:	90 e0       	ldi	r25, 0x00	; 0
    2532:	dc 01       	movw	r26, r24
    2534:	88 15       	cp	r24, r8
    2536:	99 05       	cpc	r25, r9
    2538:	aa 05       	cpc	r26, r10
    253a:	bb 05       	cpc	r27, r11
    253c:	0c f0       	brlt	.+2      	; 0x2540 <_ZN4UTFT13_fast_fill_16Eiil+0x48>
    253e:	d4 c0       	rjmp	.+424    	; 0x26e8 <_ZN4UTFT13_fast_fill_16Eiil+0x1f0>
    2540:	ea 89       	ldd	r30, Y+18	; 0x12
    2542:	fb 89       	ldd	r31, Y+19	; 0x13
    2544:	30 81       	ld	r19, Z
    2546:	2f 8d       	ldd	r18, Y+31	; 0x1f
    2548:	20 95       	com	r18
    254a:	23 23       	and	r18, r19
    254c:	20 83       	st	Z, r18
    254e:	ea 89       	ldd	r30, Y+18	; 0x12
    2550:	fb 89       	ldd	r31, Y+19	; 0x13
    2552:	30 81       	ld	r19, Z
    2554:	2f 8d       	ldd	r18, Y+31	; 0x1f
    2556:	23 2b       	or	r18, r19
    2558:	20 83       	st	Z, r18
    255a:	ea 89       	ldd	r30, Y+18	; 0x12
    255c:	fb 89       	ldd	r31, Y+19	; 0x13
    255e:	30 81       	ld	r19, Z
    2560:	2f 8d       	ldd	r18, Y+31	; 0x1f
    2562:	20 95       	com	r18
    2564:	23 23       	and	r18, r19
    2566:	20 83       	st	Z, r18
    2568:	ea 89       	ldd	r30, Y+18	; 0x12
    256a:	fb 89       	ldd	r31, Y+19	; 0x13
    256c:	30 81       	ld	r19, Z
    256e:	2f 8d       	ldd	r18, Y+31	; 0x1f
    2570:	23 2b       	or	r18, r19
    2572:	20 83       	st	Z, r18
    2574:	ea 89       	ldd	r30, Y+18	; 0x12
    2576:	fb 89       	ldd	r31, Y+19	; 0x13
    2578:	30 81       	ld	r19, Z
    257a:	2f 8d       	ldd	r18, Y+31	; 0x1f
    257c:	20 95       	com	r18
    257e:	23 23       	and	r18, r19
    2580:	20 83       	st	Z, r18
    2582:	ea 89       	ldd	r30, Y+18	; 0x12
    2584:	fb 89       	ldd	r31, Y+19	; 0x13
    2586:	30 81       	ld	r19, Z
    2588:	2f 8d       	ldd	r18, Y+31	; 0x1f
    258a:	23 2b       	or	r18, r19
    258c:	20 83       	st	Z, r18
    258e:	ea 89       	ldd	r30, Y+18	; 0x12
    2590:	fb 89       	ldd	r31, Y+19	; 0x13
    2592:	30 81       	ld	r19, Z
    2594:	2f 8d       	ldd	r18, Y+31	; 0x1f
    2596:	20 95       	com	r18
    2598:	23 23       	and	r18, r19
    259a:	20 83       	st	Z, r18
    259c:	ea 89       	ldd	r30, Y+18	; 0x12
    259e:	fb 89       	ldd	r31, Y+19	; 0x13
    25a0:	30 81       	ld	r19, Z
    25a2:	2f 8d       	ldd	r18, Y+31	; 0x1f
    25a4:	23 2b       	or	r18, r19
    25a6:	20 83       	st	Z, r18
    25a8:	ea 89       	ldd	r30, Y+18	; 0x12
    25aa:	fb 89       	ldd	r31, Y+19	; 0x13
    25ac:	30 81       	ld	r19, Z
    25ae:	2f 8d       	ldd	r18, Y+31	; 0x1f
    25b0:	20 95       	com	r18
    25b2:	23 23       	and	r18, r19
    25b4:	20 83       	st	Z, r18
    25b6:	ea 89       	ldd	r30, Y+18	; 0x12
    25b8:	fb 89       	ldd	r31, Y+19	; 0x13
    25ba:	30 81       	ld	r19, Z
    25bc:	2f 8d       	ldd	r18, Y+31	; 0x1f
    25be:	23 2b       	or	r18, r19
    25c0:	20 83       	st	Z, r18
    25c2:	ea 89       	ldd	r30, Y+18	; 0x12
    25c4:	fb 89       	ldd	r31, Y+19	; 0x13
    25c6:	30 81       	ld	r19, Z
    25c8:	2f 8d       	ldd	r18, Y+31	; 0x1f
    25ca:	20 95       	com	r18
    25cc:	23 23       	and	r18, r19
    25ce:	20 83       	st	Z, r18
    25d0:	ea 89       	ldd	r30, Y+18	; 0x12
    25d2:	fb 89       	ldd	r31, Y+19	; 0x13
    25d4:	30 81       	ld	r19, Z
    25d6:	2f 8d       	ldd	r18, Y+31	; 0x1f
    25d8:	23 2b       	or	r18, r19
    25da:	20 83       	st	Z, r18
    25dc:	ea 89       	ldd	r30, Y+18	; 0x12
    25de:	fb 89       	ldd	r31, Y+19	; 0x13
    25e0:	30 81       	ld	r19, Z
    25e2:	2f 8d       	ldd	r18, Y+31	; 0x1f
    25e4:	20 95       	com	r18
    25e6:	23 23       	and	r18, r19
    25e8:	20 83       	st	Z, r18
    25ea:	ea 89       	ldd	r30, Y+18	; 0x12
    25ec:	fb 89       	ldd	r31, Y+19	; 0x13
    25ee:	30 81       	ld	r19, Z
    25f0:	2f 8d       	ldd	r18, Y+31	; 0x1f
    25f2:	23 2b       	or	r18, r19
    25f4:	20 83       	st	Z, r18
    25f6:	ea 89       	ldd	r30, Y+18	; 0x12
    25f8:	fb 89       	ldd	r31, Y+19	; 0x13
    25fa:	30 81       	ld	r19, Z
    25fc:	2f 8d       	ldd	r18, Y+31	; 0x1f
    25fe:	20 95       	com	r18
    2600:	23 23       	and	r18, r19
    2602:	20 83       	st	Z, r18
    2604:	ea 89       	ldd	r30, Y+18	; 0x12
    2606:	fb 89       	ldd	r31, Y+19	; 0x13
    2608:	30 81       	ld	r19, Z
    260a:	2f 8d       	ldd	r18, Y+31	; 0x1f
    260c:	23 2b       	or	r18, r19
    260e:	20 83       	st	Z, r18
    2610:	ea 89       	ldd	r30, Y+18	; 0x12
    2612:	fb 89       	ldd	r31, Y+19	; 0x13
    2614:	30 81       	ld	r19, Z
    2616:	2f 8d       	ldd	r18, Y+31	; 0x1f
    2618:	20 95       	com	r18
    261a:	23 23       	and	r18, r19
    261c:	20 83       	st	Z, r18
    261e:	ea 89       	ldd	r30, Y+18	; 0x12
    2620:	fb 89       	ldd	r31, Y+19	; 0x13
    2622:	30 81       	ld	r19, Z
    2624:	2f 8d       	ldd	r18, Y+31	; 0x1f
    2626:	23 2b       	or	r18, r19
    2628:	20 83       	st	Z, r18
    262a:	ea 89       	ldd	r30, Y+18	; 0x12
    262c:	fb 89       	ldd	r31, Y+19	; 0x13
    262e:	30 81       	ld	r19, Z
    2630:	2f 8d       	ldd	r18, Y+31	; 0x1f
    2632:	20 95       	com	r18
    2634:	23 23       	and	r18, r19
    2636:	20 83       	st	Z, r18
    2638:	ea 89       	ldd	r30, Y+18	; 0x12
    263a:	fb 89       	ldd	r31, Y+19	; 0x13
    263c:	30 81       	ld	r19, Z
    263e:	2f 8d       	ldd	r18, Y+31	; 0x1f
    2640:	23 2b       	or	r18, r19
    2642:	20 83       	st	Z, r18
    2644:	ea 89       	ldd	r30, Y+18	; 0x12
    2646:	fb 89       	ldd	r31, Y+19	; 0x13
    2648:	30 81       	ld	r19, Z
    264a:	2f 8d       	ldd	r18, Y+31	; 0x1f
    264c:	20 95       	com	r18
    264e:	23 23       	and	r18, r19
    2650:	20 83       	st	Z, r18
    2652:	ea 89       	ldd	r30, Y+18	; 0x12
    2654:	fb 89       	ldd	r31, Y+19	; 0x13
    2656:	30 81       	ld	r19, Z
    2658:	2f 8d       	ldd	r18, Y+31	; 0x1f
    265a:	23 2b       	or	r18, r19
    265c:	20 83       	st	Z, r18
    265e:	ea 89       	ldd	r30, Y+18	; 0x12
    2660:	fb 89       	ldd	r31, Y+19	; 0x13
    2662:	30 81       	ld	r19, Z
    2664:	2f 8d       	ldd	r18, Y+31	; 0x1f
    2666:	20 95       	com	r18
    2668:	23 23       	and	r18, r19
    266a:	20 83       	st	Z, r18
    266c:	ea 89       	ldd	r30, Y+18	; 0x12
    266e:	fb 89       	ldd	r31, Y+19	; 0x13
    2670:	30 81       	ld	r19, Z
    2672:	2f 8d       	ldd	r18, Y+31	; 0x1f
    2674:	23 2b       	or	r18, r19
    2676:	20 83       	st	Z, r18
    2678:	ea 89       	ldd	r30, Y+18	; 0x12
    267a:	fb 89       	ldd	r31, Y+19	; 0x13
    267c:	30 81       	ld	r19, Z
    267e:	2f 8d       	ldd	r18, Y+31	; 0x1f
    2680:	20 95       	com	r18
    2682:	23 23       	and	r18, r19
    2684:	20 83       	st	Z, r18
    2686:	ea 89       	ldd	r30, Y+18	; 0x12
    2688:	fb 89       	ldd	r31, Y+19	; 0x13
    268a:	30 81       	ld	r19, Z
    268c:	2f 8d       	ldd	r18, Y+31	; 0x1f
    268e:	23 2b       	or	r18, r19
    2690:	20 83       	st	Z, r18
    2692:	ea 89       	ldd	r30, Y+18	; 0x12
    2694:	fb 89       	ldd	r31, Y+19	; 0x13
    2696:	30 81       	ld	r19, Z
    2698:	2f 8d       	ldd	r18, Y+31	; 0x1f
    269a:	20 95       	com	r18
    269c:	23 23       	and	r18, r19
    269e:	20 83       	st	Z, r18
    26a0:	ea 89       	ldd	r30, Y+18	; 0x12
    26a2:	fb 89       	ldd	r31, Y+19	; 0x13
    26a4:	30 81       	ld	r19, Z
    26a6:	2f 8d       	ldd	r18, Y+31	; 0x1f
    26a8:	23 2b       	or	r18, r19
    26aa:	20 83       	st	Z, r18
    26ac:	ea 89       	ldd	r30, Y+18	; 0x12
    26ae:	fb 89       	ldd	r31, Y+19	; 0x13
    26b0:	30 81       	ld	r19, Z
    26b2:	2f 8d       	ldd	r18, Y+31	; 0x1f
    26b4:	20 95       	com	r18
    26b6:	23 23       	and	r18, r19
    26b8:	20 83       	st	Z, r18
    26ba:	ea 89       	ldd	r30, Y+18	; 0x12
    26bc:	fb 89       	ldd	r31, Y+19	; 0x13
    26be:	30 81       	ld	r19, Z
    26c0:	2f 8d       	ldd	r18, Y+31	; 0x1f
    26c2:	23 2b       	or	r18, r19
    26c4:	20 83       	st	Z, r18
    26c6:	ea 89       	ldd	r30, Y+18	; 0x12
    26c8:	fb 89       	ldd	r31, Y+19	; 0x13
    26ca:	40 81       	ld	r20, Z
    26cc:	3f 8d       	ldd	r19, Y+31	; 0x1f
    26ce:	30 95       	com	r19
    26d0:	34 23       	and	r19, r20
    26d2:	30 83       	st	Z, r19
    26d4:	ea 89       	ldd	r30, Y+18	; 0x12
    26d6:	fb 89       	ldd	r31, Y+19	; 0x13
    26d8:	20 81       	ld	r18, Z
    26da:	3f 8d       	ldd	r19, Y+31	; 0x1f
    26dc:	32 2b       	or	r19, r18
    26de:	30 83       	st	Z, r19
    26e0:	01 96       	adiw	r24, 0x01	; 1
    26e2:	a1 1d       	adc	r26, r1
    26e4:	b1 1d       	adc	r27, r1
    26e6:	26 cf       	rjmp	.-436    	; 0x2534 <_ZN4UTFT13_fast_fill_16Eiil+0x3c>
    26e8:	d7 01       	movw	r26, r14
    26ea:	c6 01       	movw	r24, r12
    26ec:	8f 70       	andi	r24, 0x0F	; 15
    26ee:	99 27       	eor	r25, r25
    26f0:	aa 27       	eor	r26, r26
    26f2:	bb 27       	eor	r27, r27
    26f4:	89 2b       	or	r24, r25
    26f6:	8a 2b       	or	r24, r26
    26f8:	8b 2b       	or	r24, r27
    26fa:	19 f1       	breq	.+70     	; 0x2742 <_ZN4UTFT13_fast_fill_16Eiil+0x24a>
    26fc:	c7 01       	movw	r24, r14
    26fe:	b6 01       	movw	r22, r12
    2700:	20 e1       	ldi	r18, 0x10	; 16
    2702:	30 e0       	ldi	r19, 0x00	; 0
    2704:	40 e0       	ldi	r20, 0x00	; 0
    2706:	50 e0       	ldi	r21, 0x00	; 0
    2708:	0e 94 26 3a 	call	0x744c	; 0x744c <__divmodsi4>
    270c:	c1 2c       	mov	r12, r1
    270e:	d1 2c       	mov	r13, r1
    2710:	76 01       	movw	r14, r12
    2712:	6c 15       	cp	r22, r12
    2714:	7d 05       	cpc	r23, r13
    2716:	8e 05       	cpc	r24, r14
    2718:	9f 05       	cpc	r25, r15
    271a:	9c f0       	brlt	.+38     	; 0x2742 <_ZN4UTFT13_fast_fill_16Eiil+0x24a>
    271c:	ea 89       	ldd	r30, Y+18	; 0x12
    271e:	fb 89       	ldd	r31, Y+19	; 0x13
    2720:	30 81       	ld	r19, Z
    2722:	2f 8d       	ldd	r18, Y+31	; 0x1f
    2724:	20 95       	com	r18
    2726:	23 23       	and	r18, r19
    2728:	20 83       	st	Z, r18
    272a:	ea 89       	ldd	r30, Y+18	; 0x12
    272c:	fb 89       	ldd	r31, Y+19	; 0x13
    272e:	30 81       	ld	r19, Z
    2730:	2f 8d       	ldd	r18, Y+31	; 0x1f
    2732:	23 2b       	or	r18, r19
    2734:	20 83       	st	Z, r18
    2736:	2f ef       	ldi	r18, 0xFF	; 255
    2738:	c2 1a       	sub	r12, r18
    273a:	d2 0a       	sbc	r13, r18
    273c:	e2 0a       	sbc	r14, r18
    273e:	f2 0a       	sbc	r15, r18
    2740:	e8 cf       	rjmp	.-48     	; 0x2712 <_ZN4UTFT13_fast_fill_16Eiil+0x21a>
    2742:	df 91       	pop	r29
    2744:	cf 91       	pop	r28
    2746:	1f 91       	pop	r17
    2748:	0f 91       	pop	r16
    274a:	ff 90       	pop	r15
    274c:	ef 90       	pop	r14
    274e:	df 90       	pop	r13
    2750:	cf 90       	pop	r12
    2752:	bf 90       	pop	r11
    2754:	af 90       	pop	r10
    2756:	9f 90       	pop	r9
    2758:	8f 90       	pop	r8
    275a:	08 95       	ret

0000275c <_ZN4UTFT12_fast_fill_8Eil>:
    275c:	8f 92       	push	r8
    275e:	9f 92       	push	r9
    2760:	af 92       	push	r10
    2762:	bf 92       	push	r11
    2764:	cf 92       	push	r12
    2766:	df 92       	push	r13
    2768:	ef 92       	push	r14
    276a:	ff 92       	push	r15
    276c:	cf 93       	push	r28
    276e:	df 93       	push	r29
    2770:	ec 01       	movw	r28, r24
    2772:	69 01       	movw	r12, r18
    2774:	7a 01       	movw	r14, r20
    2776:	62 b9       	out	0x02, r22	; 2
    2778:	ca 01       	movw	r24, r20
    277a:	b9 01       	movw	r22, r18
    277c:	20 e1       	ldi	r18, 0x10	; 16
    277e:	30 e0       	ldi	r19, 0x00	; 0
    2780:	40 e0       	ldi	r20, 0x00	; 0
    2782:	50 e0       	ldi	r21, 0x00	; 0
    2784:	0e 94 26 3a 	call	0x744c	; 0x744c <__divmodsi4>
    2788:	49 01       	movw	r8, r18
    278a:	5a 01       	movw	r10, r20
    278c:	80 e0       	ldi	r24, 0x00	; 0
    278e:	90 e0       	ldi	r25, 0x00	; 0
    2790:	dc 01       	movw	r26, r24
    2792:	88 15       	cp	r24, r8
    2794:	99 05       	cpc	r25, r9
    2796:	aa 05       	cpc	r26, r10
    2798:	bb 05       	cpc	r27, r11
    279a:	0c f0       	brlt	.+2      	; 0x279e <_ZN4UTFT12_fast_fill_8Eil+0x42>
    279c:	a4 c1       	rjmp	.+840    	; 0x2ae6 <_ZN4UTFT12_fast_fill_8Eil+0x38a>
    279e:	ea 89       	ldd	r30, Y+18	; 0x12
    27a0:	fb 89       	ldd	r31, Y+19	; 0x13
    27a2:	30 81       	ld	r19, Z
    27a4:	2f 8d       	ldd	r18, Y+31	; 0x1f
    27a6:	20 95       	com	r18
    27a8:	23 23       	and	r18, r19
    27aa:	20 83       	st	Z, r18
    27ac:	ea 89       	ldd	r30, Y+18	; 0x12
    27ae:	fb 89       	ldd	r31, Y+19	; 0x13
    27b0:	30 81       	ld	r19, Z
    27b2:	2f 8d       	ldd	r18, Y+31	; 0x1f
    27b4:	23 2b       	or	r18, r19
    27b6:	20 83       	st	Z, r18
    27b8:	ea 89       	ldd	r30, Y+18	; 0x12
    27ba:	fb 89       	ldd	r31, Y+19	; 0x13
    27bc:	30 81       	ld	r19, Z
    27be:	2f 8d       	ldd	r18, Y+31	; 0x1f
    27c0:	20 95       	com	r18
    27c2:	23 23       	and	r18, r19
    27c4:	20 83       	st	Z, r18
    27c6:	ea 89       	ldd	r30, Y+18	; 0x12
    27c8:	fb 89       	ldd	r31, Y+19	; 0x13
    27ca:	30 81       	ld	r19, Z
    27cc:	2f 8d       	ldd	r18, Y+31	; 0x1f
    27ce:	23 2b       	or	r18, r19
    27d0:	20 83       	st	Z, r18
    27d2:	ea 89       	ldd	r30, Y+18	; 0x12
    27d4:	fb 89       	ldd	r31, Y+19	; 0x13
    27d6:	30 81       	ld	r19, Z
    27d8:	2f 8d       	ldd	r18, Y+31	; 0x1f
    27da:	20 95       	com	r18
    27dc:	23 23       	and	r18, r19
    27de:	20 83       	st	Z, r18
    27e0:	ea 89       	ldd	r30, Y+18	; 0x12
    27e2:	fb 89       	ldd	r31, Y+19	; 0x13
    27e4:	30 81       	ld	r19, Z
    27e6:	2f 8d       	ldd	r18, Y+31	; 0x1f
    27e8:	23 2b       	or	r18, r19
    27ea:	20 83       	st	Z, r18
    27ec:	ea 89       	ldd	r30, Y+18	; 0x12
    27ee:	fb 89       	ldd	r31, Y+19	; 0x13
    27f0:	30 81       	ld	r19, Z
    27f2:	2f 8d       	ldd	r18, Y+31	; 0x1f
    27f4:	20 95       	com	r18
    27f6:	23 23       	and	r18, r19
    27f8:	20 83       	st	Z, r18
    27fa:	ea 89       	ldd	r30, Y+18	; 0x12
    27fc:	fb 89       	ldd	r31, Y+19	; 0x13
    27fe:	30 81       	ld	r19, Z
    2800:	2f 8d       	ldd	r18, Y+31	; 0x1f
    2802:	23 2b       	or	r18, r19
    2804:	20 83       	st	Z, r18
    2806:	ea 89       	ldd	r30, Y+18	; 0x12
    2808:	fb 89       	ldd	r31, Y+19	; 0x13
    280a:	30 81       	ld	r19, Z
    280c:	2f 8d       	ldd	r18, Y+31	; 0x1f
    280e:	20 95       	com	r18
    2810:	23 23       	and	r18, r19
    2812:	20 83       	st	Z, r18
    2814:	ea 89       	ldd	r30, Y+18	; 0x12
    2816:	fb 89       	ldd	r31, Y+19	; 0x13
    2818:	30 81       	ld	r19, Z
    281a:	2f 8d       	ldd	r18, Y+31	; 0x1f
    281c:	23 2b       	or	r18, r19
    281e:	20 83       	st	Z, r18
    2820:	ea 89       	ldd	r30, Y+18	; 0x12
    2822:	fb 89       	ldd	r31, Y+19	; 0x13
    2824:	30 81       	ld	r19, Z
    2826:	2f 8d       	ldd	r18, Y+31	; 0x1f
    2828:	20 95       	com	r18
    282a:	23 23       	and	r18, r19
    282c:	20 83       	st	Z, r18
    282e:	ea 89       	ldd	r30, Y+18	; 0x12
    2830:	fb 89       	ldd	r31, Y+19	; 0x13
    2832:	30 81       	ld	r19, Z
    2834:	2f 8d       	ldd	r18, Y+31	; 0x1f
    2836:	23 2b       	or	r18, r19
    2838:	20 83       	st	Z, r18
    283a:	ea 89       	ldd	r30, Y+18	; 0x12
    283c:	fb 89       	ldd	r31, Y+19	; 0x13
    283e:	30 81       	ld	r19, Z
    2840:	2f 8d       	ldd	r18, Y+31	; 0x1f
    2842:	20 95       	com	r18
    2844:	23 23       	and	r18, r19
    2846:	20 83       	st	Z, r18
    2848:	ea 89       	ldd	r30, Y+18	; 0x12
    284a:	fb 89       	ldd	r31, Y+19	; 0x13
    284c:	30 81       	ld	r19, Z
    284e:	2f 8d       	ldd	r18, Y+31	; 0x1f
    2850:	23 2b       	or	r18, r19
    2852:	20 83       	st	Z, r18
    2854:	ea 89       	ldd	r30, Y+18	; 0x12
    2856:	fb 89       	ldd	r31, Y+19	; 0x13
    2858:	30 81       	ld	r19, Z
    285a:	2f 8d       	ldd	r18, Y+31	; 0x1f
    285c:	20 95       	com	r18
    285e:	23 23       	and	r18, r19
    2860:	20 83       	st	Z, r18
    2862:	ea 89       	ldd	r30, Y+18	; 0x12
    2864:	fb 89       	ldd	r31, Y+19	; 0x13
    2866:	30 81       	ld	r19, Z
    2868:	2f 8d       	ldd	r18, Y+31	; 0x1f
    286a:	23 2b       	or	r18, r19
    286c:	20 83       	st	Z, r18
    286e:	ea 89       	ldd	r30, Y+18	; 0x12
    2870:	fb 89       	ldd	r31, Y+19	; 0x13
    2872:	30 81       	ld	r19, Z
    2874:	2f 8d       	ldd	r18, Y+31	; 0x1f
    2876:	20 95       	com	r18
    2878:	23 23       	and	r18, r19
    287a:	20 83       	st	Z, r18
    287c:	ea 89       	ldd	r30, Y+18	; 0x12
    287e:	fb 89       	ldd	r31, Y+19	; 0x13
    2880:	30 81       	ld	r19, Z
    2882:	2f 8d       	ldd	r18, Y+31	; 0x1f
    2884:	23 2b       	or	r18, r19
    2886:	20 83       	st	Z, r18
    2888:	ea 89       	ldd	r30, Y+18	; 0x12
    288a:	fb 89       	ldd	r31, Y+19	; 0x13
    288c:	30 81       	ld	r19, Z
    288e:	2f 8d       	ldd	r18, Y+31	; 0x1f
    2890:	20 95       	com	r18
    2892:	23 23       	and	r18, r19
    2894:	20 83       	st	Z, r18
    2896:	ea 89       	ldd	r30, Y+18	; 0x12
    2898:	fb 89       	ldd	r31, Y+19	; 0x13
    289a:	30 81       	ld	r19, Z
    289c:	2f 8d       	ldd	r18, Y+31	; 0x1f
    289e:	23 2b       	or	r18, r19
    28a0:	20 83       	st	Z, r18
    28a2:	ea 89       	ldd	r30, Y+18	; 0x12
    28a4:	fb 89       	ldd	r31, Y+19	; 0x13
    28a6:	30 81       	ld	r19, Z
    28a8:	2f 8d       	ldd	r18, Y+31	; 0x1f
    28aa:	20 95       	com	r18
    28ac:	23 23       	and	r18, r19
    28ae:	20 83       	st	Z, r18
    28b0:	ea 89       	ldd	r30, Y+18	; 0x12
    28b2:	fb 89       	ldd	r31, Y+19	; 0x13
    28b4:	30 81       	ld	r19, Z
    28b6:	2f 8d       	ldd	r18, Y+31	; 0x1f
    28b8:	23 2b       	or	r18, r19
    28ba:	20 83       	st	Z, r18
    28bc:	ea 89       	ldd	r30, Y+18	; 0x12
    28be:	fb 89       	ldd	r31, Y+19	; 0x13
    28c0:	30 81       	ld	r19, Z
    28c2:	2f 8d       	ldd	r18, Y+31	; 0x1f
    28c4:	20 95       	com	r18
    28c6:	23 23       	and	r18, r19
    28c8:	20 83       	st	Z, r18
    28ca:	ea 89       	ldd	r30, Y+18	; 0x12
    28cc:	fb 89       	ldd	r31, Y+19	; 0x13
    28ce:	30 81       	ld	r19, Z
    28d0:	2f 8d       	ldd	r18, Y+31	; 0x1f
    28d2:	23 2b       	or	r18, r19
    28d4:	20 83       	st	Z, r18
    28d6:	ea 89       	ldd	r30, Y+18	; 0x12
    28d8:	fb 89       	ldd	r31, Y+19	; 0x13
    28da:	30 81       	ld	r19, Z
    28dc:	2f 8d       	ldd	r18, Y+31	; 0x1f
    28de:	20 95       	com	r18
    28e0:	23 23       	and	r18, r19
    28e2:	20 83       	st	Z, r18
    28e4:	ea 89       	ldd	r30, Y+18	; 0x12
    28e6:	fb 89       	ldd	r31, Y+19	; 0x13
    28e8:	30 81       	ld	r19, Z
    28ea:	2f 8d       	ldd	r18, Y+31	; 0x1f
    28ec:	23 2b       	or	r18, r19
    28ee:	20 83       	st	Z, r18
    28f0:	ea 89       	ldd	r30, Y+18	; 0x12
    28f2:	fb 89       	ldd	r31, Y+19	; 0x13
    28f4:	30 81       	ld	r19, Z
    28f6:	2f 8d       	ldd	r18, Y+31	; 0x1f
    28f8:	20 95       	com	r18
    28fa:	23 23       	and	r18, r19
    28fc:	20 83       	st	Z, r18
    28fe:	ea 89       	ldd	r30, Y+18	; 0x12
    2900:	fb 89       	ldd	r31, Y+19	; 0x13
    2902:	30 81       	ld	r19, Z
    2904:	2f 8d       	ldd	r18, Y+31	; 0x1f
    2906:	23 2b       	or	r18, r19
    2908:	20 83       	st	Z, r18
    290a:	ea 89       	ldd	r30, Y+18	; 0x12
    290c:	fb 89       	ldd	r31, Y+19	; 0x13
    290e:	30 81       	ld	r19, Z
    2910:	2f 8d       	ldd	r18, Y+31	; 0x1f
    2912:	20 95       	com	r18
    2914:	23 23       	and	r18, r19
    2916:	20 83       	st	Z, r18
    2918:	ea 89       	ldd	r30, Y+18	; 0x12
    291a:	fb 89       	ldd	r31, Y+19	; 0x13
    291c:	30 81       	ld	r19, Z
    291e:	2f 8d       	ldd	r18, Y+31	; 0x1f
    2920:	23 2b       	or	r18, r19
    2922:	20 83       	st	Z, r18
    2924:	ea 89       	ldd	r30, Y+18	; 0x12
    2926:	fb 89       	ldd	r31, Y+19	; 0x13
    2928:	30 81       	ld	r19, Z
    292a:	2f 8d       	ldd	r18, Y+31	; 0x1f
    292c:	20 95       	com	r18
    292e:	23 23       	and	r18, r19
    2930:	20 83       	st	Z, r18
    2932:	ea 89       	ldd	r30, Y+18	; 0x12
    2934:	fb 89       	ldd	r31, Y+19	; 0x13
    2936:	30 81       	ld	r19, Z
    2938:	2f 8d       	ldd	r18, Y+31	; 0x1f
    293a:	23 2b       	or	r18, r19
    293c:	20 83       	st	Z, r18
    293e:	ea 89       	ldd	r30, Y+18	; 0x12
    2940:	fb 89       	ldd	r31, Y+19	; 0x13
    2942:	30 81       	ld	r19, Z
    2944:	2f 8d       	ldd	r18, Y+31	; 0x1f
    2946:	20 95       	com	r18
    2948:	23 23       	and	r18, r19
    294a:	20 83       	st	Z, r18
    294c:	ea 89       	ldd	r30, Y+18	; 0x12
    294e:	fb 89       	ldd	r31, Y+19	; 0x13
    2950:	30 81       	ld	r19, Z
    2952:	2f 8d       	ldd	r18, Y+31	; 0x1f
    2954:	23 2b       	or	r18, r19
    2956:	20 83       	st	Z, r18
    2958:	ea 89       	ldd	r30, Y+18	; 0x12
    295a:	fb 89       	ldd	r31, Y+19	; 0x13
    295c:	30 81       	ld	r19, Z
    295e:	2f 8d       	ldd	r18, Y+31	; 0x1f
    2960:	20 95       	com	r18
    2962:	23 23       	and	r18, r19
    2964:	20 83       	st	Z, r18
    2966:	ea 89       	ldd	r30, Y+18	; 0x12
    2968:	fb 89       	ldd	r31, Y+19	; 0x13
    296a:	30 81       	ld	r19, Z
    296c:	2f 8d       	ldd	r18, Y+31	; 0x1f
    296e:	23 2b       	or	r18, r19
    2970:	20 83       	st	Z, r18
    2972:	ea 89       	ldd	r30, Y+18	; 0x12
    2974:	fb 89       	ldd	r31, Y+19	; 0x13
    2976:	30 81       	ld	r19, Z
    2978:	2f 8d       	ldd	r18, Y+31	; 0x1f
    297a:	20 95       	com	r18
    297c:	23 23       	and	r18, r19
    297e:	20 83       	st	Z, r18
    2980:	ea 89       	ldd	r30, Y+18	; 0x12
    2982:	fb 89       	ldd	r31, Y+19	; 0x13
    2984:	30 81       	ld	r19, Z
    2986:	2f 8d       	ldd	r18, Y+31	; 0x1f
    2988:	23 2b       	or	r18, r19
    298a:	20 83       	st	Z, r18
    298c:	ea 89       	ldd	r30, Y+18	; 0x12
    298e:	fb 89       	ldd	r31, Y+19	; 0x13
    2990:	30 81       	ld	r19, Z
    2992:	2f 8d       	ldd	r18, Y+31	; 0x1f
    2994:	20 95       	com	r18
    2996:	23 23       	and	r18, r19
    2998:	20 83       	st	Z, r18
    299a:	ea 89       	ldd	r30, Y+18	; 0x12
    299c:	fb 89       	ldd	r31, Y+19	; 0x13
    299e:	30 81       	ld	r19, Z
    29a0:	2f 8d       	ldd	r18, Y+31	; 0x1f
    29a2:	23 2b       	or	r18, r19
    29a4:	20 83       	st	Z, r18
    29a6:	ea 89       	ldd	r30, Y+18	; 0x12
    29a8:	fb 89       	ldd	r31, Y+19	; 0x13
    29aa:	30 81       	ld	r19, Z
    29ac:	2f 8d       	ldd	r18, Y+31	; 0x1f
    29ae:	20 95       	com	r18
    29b0:	23 23       	and	r18, r19
    29b2:	20 83       	st	Z, r18
    29b4:	ea 89       	ldd	r30, Y+18	; 0x12
    29b6:	fb 89       	ldd	r31, Y+19	; 0x13
    29b8:	30 81       	ld	r19, Z
    29ba:	2f 8d       	ldd	r18, Y+31	; 0x1f
    29bc:	23 2b       	or	r18, r19
    29be:	20 83       	st	Z, r18
    29c0:	ea 89       	ldd	r30, Y+18	; 0x12
    29c2:	fb 89       	ldd	r31, Y+19	; 0x13
    29c4:	30 81       	ld	r19, Z
    29c6:	2f 8d       	ldd	r18, Y+31	; 0x1f
    29c8:	20 95       	com	r18
    29ca:	23 23       	and	r18, r19
    29cc:	20 83       	st	Z, r18
    29ce:	ea 89       	ldd	r30, Y+18	; 0x12
    29d0:	fb 89       	ldd	r31, Y+19	; 0x13
    29d2:	30 81       	ld	r19, Z
    29d4:	2f 8d       	ldd	r18, Y+31	; 0x1f
    29d6:	23 2b       	or	r18, r19
    29d8:	20 83       	st	Z, r18
    29da:	ea 89       	ldd	r30, Y+18	; 0x12
    29dc:	fb 89       	ldd	r31, Y+19	; 0x13
    29de:	30 81       	ld	r19, Z
    29e0:	2f 8d       	ldd	r18, Y+31	; 0x1f
    29e2:	20 95       	com	r18
    29e4:	23 23       	and	r18, r19
    29e6:	20 83       	st	Z, r18
    29e8:	ea 89       	ldd	r30, Y+18	; 0x12
    29ea:	fb 89       	ldd	r31, Y+19	; 0x13
    29ec:	30 81       	ld	r19, Z
    29ee:	2f 8d       	ldd	r18, Y+31	; 0x1f
    29f0:	23 2b       	or	r18, r19
    29f2:	20 83       	st	Z, r18
    29f4:	ea 89       	ldd	r30, Y+18	; 0x12
    29f6:	fb 89       	ldd	r31, Y+19	; 0x13
    29f8:	30 81       	ld	r19, Z
    29fa:	2f 8d       	ldd	r18, Y+31	; 0x1f
    29fc:	20 95       	com	r18
    29fe:	23 23       	and	r18, r19
    2a00:	20 83       	st	Z, r18
    2a02:	ea 89       	ldd	r30, Y+18	; 0x12
    2a04:	fb 89       	ldd	r31, Y+19	; 0x13
    2a06:	30 81       	ld	r19, Z
    2a08:	2f 8d       	ldd	r18, Y+31	; 0x1f
    2a0a:	23 2b       	or	r18, r19
    2a0c:	20 83       	st	Z, r18
    2a0e:	ea 89       	ldd	r30, Y+18	; 0x12
    2a10:	fb 89       	ldd	r31, Y+19	; 0x13
    2a12:	30 81       	ld	r19, Z
    2a14:	2f 8d       	ldd	r18, Y+31	; 0x1f
    2a16:	20 95       	com	r18
    2a18:	23 23       	and	r18, r19
    2a1a:	20 83       	st	Z, r18
    2a1c:	ea 89       	ldd	r30, Y+18	; 0x12
    2a1e:	fb 89       	ldd	r31, Y+19	; 0x13
    2a20:	30 81       	ld	r19, Z
    2a22:	2f 8d       	ldd	r18, Y+31	; 0x1f
    2a24:	23 2b       	or	r18, r19
    2a26:	20 83       	st	Z, r18
    2a28:	ea 89       	ldd	r30, Y+18	; 0x12
    2a2a:	fb 89       	ldd	r31, Y+19	; 0x13
    2a2c:	30 81       	ld	r19, Z
    2a2e:	2f 8d       	ldd	r18, Y+31	; 0x1f
    2a30:	20 95       	com	r18
    2a32:	23 23       	and	r18, r19
    2a34:	20 83       	st	Z, r18
    2a36:	ea 89       	ldd	r30, Y+18	; 0x12
    2a38:	fb 89       	ldd	r31, Y+19	; 0x13
    2a3a:	30 81       	ld	r19, Z
    2a3c:	2f 8d       	ldd	r18, Y+31	; 0x1f
    2a3e:	23 2b       	or	r18, r19
    2a40:	20 83       	st	Z, r18
    2a42:	ea 89       	ldd	r30, Y+18	; 0x12
    2a44:	fb 89       	ldd	r31, Y+19	; 0x13
    2a46:	30 81       	ld	r19, Z
    2a48:	2f 8d       	ldd	r18, Y+31	; 0x1f
    2a4a:	20 95       	com	r18
    2a4c:	23 23       	and	r18, r19
    2a4e:	20 83       	st	Z, r18
    2a50:	ea 89       	ldd	r30, Y+18	; 0x12
    2a52:	fb 89       	ldd	r31, Y+19	; 0x13
    2a54:	30 81       	ld	r19, Z
    2a56:	2f 8d       	ldd	r18, Y+31	; 0x1f
    2a58:	23 2b       	or	r18, r19
    2a5a:	20 83       	st	Z, r18
    2a5c:	ea 89       	ldd	r30, Y+18	; 0x12
    2a5e:	fb 89       	ldd	r31, Y+19	; 0x13
    2a60:	30 81       	ld	r19, Z
    2a62:	2f 8d       	ldd	r18, Y+31	; 0x1f
    2a64:	20 95       	com	r18
    2a66:	23 23       	and	r18, r19
    2a68:	20 83       	st	Z, r18
    2a6a:	ea 89       	ldd	r30, Y+18	; 0x12
    2a6c:	fb 89       	ldd	r31, Y+19	; 0x13
    2a6e:	30 81       	ld	r19, Z
    2a70:	2f 8d       	ldd	r18, Y+31	; 0x1f
    2a72:	23 2b       	or	r18, r19
    2a74:	20 83       	st	Z, r18
    2a76:	ea 89       	ldd	r30, Y+18	; 0x12
    2a78:	fb 89       	ldd	r31, Y+19	; 0x13
    2a7a:	30 81       	ld	r19, Z
    2a7c:	2f 8d       	ldd	r18, Y+31	; 0x1f
    2a7e:	20 95       	com	r18
    2a80:	23 23       	and	r18, r19
    2a82:	20 83       	st	Z, r18
    2a84:	ea 89       	ldd	r30, Y+18	; 0x12
    2a86:	fb 89       	ldd	r31, Y+19	; 0x13
    2a88:	30 81       	ld	r19, Z
    2a8a:	2f 8d       	ldd	r18, Y+31	; 0x1f
    2a8c:	23 2b       	or	r18, r19
    2a8e:	20 83       	st	Z, r18
    2a90:	ea 89       	ldd	r30, Y+18	; 0x12
    2a92:	fb 89       	ldd	r31, Y+19	; 0x13
    2a94:	30 81       	ld	r19, Z
    2a96:	2f 8d       	ldd	r18, Y+31	; 0x1f
    2a98:	20 95       	com	r18
    2a9a:	23 23       	and	r18, r19
    2a9c:	20 83       	st	Z, r18
    2a9e:	ea 89       	ldd	r30, Y+18	; 0x12
    2aa0:	fb 89       	ldd	r31, Y+19	; 0x13
    2aa2:	30 81       	ld	r19, Z
    2aa4:	2f 8d       	ldd	r18, Y+31	; 0x1f
    2aa6:	23 2b       	or	r18, r19
    2aa8:	20 83       	st	Z, r18
    2aaa:	ea 89       	ldd	r30, Y+18	; 0x12
    2aac:	fb 89       	ldd	r31, Y+19	; 0x13
    2aae:	30 81       	ld	r19, Z
    2ab0:	2f 8d       	ldd	r18, Y+31	; 0x1f
    2ab2:	20 95       	com	r18
    2ab4:	23 23       	and	r18, r19
    2ab6:	20 83       	st	Z, r18
    2ab8:	ea 89       	ldd	r30, Y+18	; 0x12
    2aba:	fb 89       	ldd	r31, Y+19	; 0x13
    2abc:	30 81       	ld	r19, Z
    2abe:	2f 8d       	ldd	r18, Y+31	; 0x1f
    2ac0:	23 2b       	or	r18, r19
    2ac2:	20 83       	st	Z, r18
    2ac4:	ea 89       	ldd	r30, Y+18	; 0x12
    2ac6:	fb 89       	ldd	r31, Y+19	; 0x13
    2ac8:	40 81       	ld	r20, Z
    2aca:	3f 8d       	ldd	r19, Y+31	; 0x1f
    2acc:	30 95       	com	r19
    2ace:	34 23       	and	r19, r20
    2ad0:	30 83       	st	Z, r19
    2ad2:	ea 89       	ldd	r30, Y+18	; 0x12
    2ad4:	fb 89       	ldd	r31, Y+19	; 0x13
    2ad6:	20 81       	ld	r18, Z
    2ad8:	3f 8d       	ldd	r19, Y+31	; 0x1f
    2ada:	32 2b       	or	r19, r18
    2adc:	30 83       	st	Z, r19
    2ade:	01 96       	adiw	r24, 0x01	; 1
    2ae0:	a1 1d       	adc	r26, r1
    2ae2:	b1 1d       	adc	r27, r1
    2ae4:	56 ce       	rjmp	.-852    	; 0x2792 <_ZN4UTFT12_fast_fill_8Eil+0x36>
    2ae6:	d7 01       	movw	r26, r14
    2ae8:	c6 01       	movw	r24, r12
    2aea:	8f 70       	andi	r24, 0x0F	; 15
    2aec:	99 27       	eor	r25, r25
    2aee:	aa 27       	eor	r26, r26
    2af0:	bb 27       	eor	r27, r27
    2af2:	89 2b       	or	r24, r25
    2af4:	8a 2b       	or	r24, r26
    2af6:	8b 2b       	or	r24, r27
    2af8:	81 f1       	breq	.+96     	; 0x2b5a <_ZN4UTFT12_fast_fill_8Eil+0x3fe>
    2afa:	c7 01       	movw	r24, r14
    2afc:	b6 01       	movw	r22, r12
    2afe:	20 e1       	ldi	r18, 0x10	; 16
    2b00:	30 e0       	ldi	r19, 0x00	; 0
    2b02:	40 e0       	ldi	r20, 0x00	; 0
    2b04:	50 e0       	ldi	r21, 0x00	; 0
    2b06:	0e 94 26 3a 	call	0x744c	; 0x744c <__divmodsi4>
    2b0a:	c1 2c       	mov	r12, r1
    2b0c:	d1 2c       	mov	r13, r1
    2b0e:	76 01       	movw	r14, r12
    2b10:	6c 15       	cp	r22, r12
    2b12:	7d 05       	cpc	r23, r13
    2b14:	8e 05       	cpc	r24, r14
    2b16:	9f 05       	cpc	r25, r15
    2b18:	04 f1       	brlt	.+64     	; 0x2b5a <_ZN4UTFT12_fast_fill_8Eil+0x3fe>
    2b1a:	ea 89       	ldd	r30, Y+18	; 0x12
    2b1c:	fb 89       	ldd	r31, Y+19	; 0x13
    2b1e:	30 81       	ld	r19, Z
    2b20:	2f 8d       	ldd	r18, Y+31	; 0x1f
    2b22:	20 95       	com	r18
    2b24:	23 23       	and	r18, r19
    2b26:	20 83       	st	Z, r18
    2b28:	ea 89       	ldd	r30, Y+18	; 0x12
    2b2a:	fb 89       	ldd	r31, Y+19	; 0x13
    2b2c:	30 81       	ld	r19, Z
    2b2e:	2f 8d       	ldd	r18, Y+31	; 0x1f
    2b30:	23 2b       	or	r18, r19
    2b32:	20 83       	st	Z, r18
    2b34:	ea 89       	ldd	r30, Y+18	; 0x12
    2b36:	fb 89       	ldd	r31, Y+19	; 0x13
    2b38:	30 81       	ld	r19, Z
    2b3a:	2f 8d       	ldd	r18, Y+31	; 0x1f
    2b3c:	20 95       	com	r18
    2b3e:	23 23       	and	r18, r19
    2b40:	20 83       	st	Z, r18
    2b42:	ea 89       	ldd	r30, Y+18	; 0x12
    2b44:	fb 89       	ldd	r31, Y+19	; 0x13
    2b46:	30 81       	ld	r19, Z
    2b48:	2f 8d       	ldd	r18, Y+31	; 0x1f
    2b4a:	23 2b       	or	r18, r19
    2b4c:	20 83       	st	Z, r18
    2b4e:	2f ef       	ldi	r18, 0xFF	; 255
    2b50:	c2 1a       	sub	r12, r18
    2b52:	d2 0a       	sbc	r13, r18
    2b54:	e2 0a       	sbc	r14, r18
    2b56:	f2 0a       	sbc	r15, r18
    2b58:	db cf       	rjmp	.-74     	; 0x2b10 <_ZN4UTFT12_fast_fill_8Eil+0x3b4>
    2b5a:	df 91       	pop	r29
    2b5c:	cf 91       	pop	r28
    2b5e:	ff 90       	pop	r15
    2b60:	ef 90       	pop	r14
    2b62:	df 90       	pop	r13
    2b64:	cf 90       	pop	r12
    2b66:	bf 90       	pop	r11
    2b68:	af 90       	pop	r10
    2b6a:	9f 90       	pop	r9
    2b6c:	8f 90       	pop	r8
    2b6e:	08 95       	ret

00002b70 <_ZN4UTFTC1Ev>:
    2b70:	08 95       	ret

00002b72 <_ZN4UTFTC1Ehiiiii>:
    2b72:	4f 92       	push	r4
    2b74:	5f 92       	push	r5
    2b76:	6f 92       	push	r6
    2b78:	7f 92       	push	r7
    2b7a:	8f 92       	push	r8
    2b7c:	9f 92       	push	r9
    2b7e:	af 92       	push	r10
    2b80:	bf 92       	push	r11
    2b82:	cf 92       	push	r12
    2b84:	df 92       	push	r13
    2b86:	ef 92       	push	r14
    2b88:	ff 92       	push	r15
    2b8a:	0f 93       	push	r16
    2b8c:	1f 93       	push	r17
    2b8e:	cf 93       	push	r28
    2b90:	df 93       	push	r29
    2b92:	cd b7       	in	r28, 0x3d	; 61
    2b94:	de b7       	in	r29, 0x3e	; 62
    2b96:	c0 5a       	subi	r28, 0xA0	; 160
    2b98:	d1 09       	sbc	r29, r1
    2b9a:	0f b6       	in	r0, 0x3f	; 63
    2b9c:	f8 94       	cli
    2b9e:	de bf       	out	0x3e, r29	; 62
    2ba0:	0f be       	out	0x3f, r0	; 63
    2ba2:	cd bf       	out	0x3d, r28	; 61
    2ba4:	70 e4       	ldi	r23, 0x40	; 64
    2ba6:	e6 e0       	ldi	r30, 0x06	; 6
    2ba8:	f2 e0       	ldi	r31, 0x02	; 2
    2baa:	de 01       	movw	r26, r28
    2bac:	af 5b       	subi	r26, 0xBF	; 191
    2bae:	bf 4f       	sbci	r27, 0xFF	; 255
    2bb0:	01 90       	ld	r0, Z+
    2bb2:	0d 92       	st	X+, r0
    2bb4:	7a 95       	dec	r23
    2bb6:	e1 f7       	brne	.-8      	; 0x2bb0 <_ZN4UTFTC1Ehiiiii+0x3e>
    2bb8:	70 e4       	ldi	r23, 0x40	; 64
    2bba:	e6 e4       	ldi	r30, 0x46	; 70
    2bbc:	f2 e0       	ldi	r31, 0x02	; 2
    2bbe:	de 01       	movw	r26, r28
    2bc0:	11 96       	adiw	r26, 0x01	; 1
    2bc2:	01 90       	ld	r0, Z+
    2bc4:	0d 92       	st	X+, r0
    2bc6:	7a 95       	dec	r23
    2bc8:	e1 f7       	brne	.-8      	; 0x2bc2 <_ZN4UTFTC1Ehiiiii+0x50>
    2bca:	70 e2       	ldi	r23, 0x20	; 32
    2bcc:	e6 e8       	ldi	r30, 0x86	; 134
    2bce:	f2 e0       	ldi	r31, 0x02	; 2
    2bd0:	de 01       	movw	r26, r28
    2bd2:	af 57       	subi	r26, 0x7F	; 127
    2bd4:	bf 4f       	sbci	r27, 0xFF	; 255
    2bd6:	01 90       	ld	r0, Z+
    2bd8:	0d 92       	st	X+, r0
    2bda:	7a 95       	dec	r23
    2bdc:	e1 f7       	brne	.-8      	; 0x2bd6 <_ZN4UTFTC1Ehiiiii+0x64>
    2bde:	e6 2f       	mov	r30, r22
    2be0:	f0 e0       	ldi	r31, 0x00	; 0
    2be2:	5f 01       	movw	r10, r30
    2be4:	aa 0c       	add	r10, r10
    2be6:	bb 1c       	adc	r11, r11
    2be8:	a1 e4       	ldi	r26, 0x41	; 65
    2bea:	b0 e0       	ldi	r27, 0x00	; 0
    2bec:	ac 0f       	add	r26, r28
    2bee:	bd 1f       	adc	r27, r29
    2bf0:	aa 0d       	add	r26, r10
    2bf2:	bb 1d       	adc	r27, r11
    2bf4:	0d 90       	ld	r0, X+
    2bf6:	bc 91       	ld	r27, X
    2bf8:	a0 2d       	mov	r26, r0
    2bfa:	2d 01       	movw	r4, r26
    2bfc:	61 2c       	mov	r6, r1
    2bfe:	71 2c       	mov	r7, r1
    2c00:	dc 01       	movw	r26, r24
    2c02:	15 96       	adiw	r26, 0x05	; 5
    2c04:	4d 92       	st	X+, r4
    2c06:	5d 92       	st	X+, r5
    2c08:	6d 92       	st	X+, r6
    2c0a:	7c 92       	st	X, r7
    2c0c:	18 97       	sbiw	r26, 0x08	; 8
    2c0e:	a1 e0       	ldi	r26, 0x01	; 1
    2c10:	b0 e0       	ldi	r27, 0x00	; 0
    2c12:	ac 0f       	add	r26, r28
    2c14:	bd 1f       	adc	r27, r29
    2c16:	aa 0d       	add	r26, r10
    2c18:	bb 1d       	adc	r27, r11
    2c1a:	0d 90       	ld	r0, X+
    2c1c:	bc 91       	ld	r27, X
    2c1e:	a0 2d       	mov	r26, r0
    2c20:	4d 01       	movw	r8, r26
    2c22:	a1 2c       	mov	r10, r1
    2c24:	b1 2c       	mov	r11, r1
    2c26:	dc 01       	movw	r26, r24
    2c28:	19 96       	adiw	r26, 0x09	; 9
    2c2a:	8d 92       	st	X+, r8
    2c2c:	9d 92       	st	X+, r9
    2c2e:	ad 92       	st	X+, r10
    2c30:	bc 92       	st	X, r11
    2c32:	1c 97       	sbiw	r26, 0x0c	; 12
    2c34:	a1 e8       	ldi	r26, 0x81	; 129
    2c36:	b0 e0       	ldi	r27, 0x00	; 0
    2c38:	ac 0f       	add	r26, r28
    2c3a:	bd 1f       	adc	r27, r29
    2c3c:	ea 0f       	add	r30, r26
    2c3e:	fb 1f       	adc	r31, r27
    2c40:	70 81       	ld	r23, Z
    2c42:	fc 01       	movw	r30, r24
    2c44:	76 87       	std	Z+14, r23	; 0x0e
    2c46:	65 87       	std	Z+13, r22	; 0x0d
    2c48:	45 a3       	std	Z+37, r20	; 0x25
    2c4a:	26 a3       	std	Z+38, r18	; 0x26
    2c4c:	07 a3       	std	Z+39, r16	; 0x27
    2c4e:	e0 a6       	std	Z+40, r14	; 0x28
    2c50:	c1 a6       	std	Z+41, r12	; 0x29
    2c52:	74 30       	cpi	r23, 0x04	; 4
    2c54:	19 f4       	brne	.+6      	; 0x2c5c <_ZN4UTFTC1Ehiiiii+0xea>
    2c56:	61 e0       	ldi	r22, 0x01	; 1
    2c58:	66 87       	std	Z+14, r22	; 0x0e
    2c5a:	77 87       	std	Z+15, r23	; 0x0f
    2c5c:	dc 01       	movw	r26, r24
    2c5e:	1e 96       	adiw	r26, 0x0e	; 14
    2c60:	6c 91       	ld	r22, X
    2c62:	1e 97       	sbiw	r26, 0x0e	; 14
    2c64:	65 30       	cpi	r22, 0x05	; 5
    2c66:	31 f4       	brne	.+12     	; 0x2c74 <_ZN4UTFTC1Ehiiiii+0x102>
    2c68:	71 e0       	ldi	r23, 0x01	; 1
    2c6a:	1e 96       	adiw	r26, 0x0e	; 14
    2c6c:	7c 93       	st	X, r23
    2c6e:	1e 97       	sbiw	r26, 0x0e	; 14
    2c70:	1f 96       	adiw	r26, 0x0f	; 15
    2c72:	6c 93       	st	X, r22
    2c74:	fc 01       	movw	r30, r24
    2c76:	66 85       	ldd	r22, Z+14	; 0x0e
    2c78:	61 30       	cpi	r22, 0x01	; 1
    2c7a:	09 f4       	brne	.+2      	; 0x2c7e <_ZN4UTFTC1Ehiiiii+0x10c>
    2c7c:	98 c0       	rjmp	.+304    	; 0x2dae <_ZN4UTFTC1Ehiiiii+0x23c>
    2c7e:	49 01       	movw	r8, r18
    2c80:	3a 01       	movw	r6, r20
    2c82:	5c 01       	movw	r10, r24
    2c84:	29 dc       	rcall	.-1966   	; 0x24d8 <_ZN4UTFT24_set_direction_registersEh>
    2c86:	f3 01       	movw	r30, r6
    2c88:	ea 57       	subi	r30, 0x7A	; 122
    2c8a:	fd 4e       	sbci	r31, 0xED	; 237
    2c8c:	e4 91       	lpm	r30, Z
    2c8e:	f0 e0       	ldi	r31, 0x00	; 0
    2c90:	ee 0f       	add	r30, r30
    2c92:	ff 1f       	adc	r31, r31
    2c94:	ea 51       	subi	r30, 0x1A	; 26
    2c96:	fd 4e       	sbci	r31, 0xED	; 237
    2c98:	25 91       	lpm	r18, Z+
    2c9a:	34 91       	lpm	r19, Z
    2c9c:	d5 01       	movw	r26, r10
    2c9e:	51 96       	adiw	r26, 0x11	; 17
    2ca0:	3c 93       	st	X, r19
    2ca2:	2e 93       	st	-X, r18
    2ca4:	50 97       	sbiw	r26, 0x10	; 16
    2ca6:	f3 01       	movw	r30, r6
    2ca8:	e0 5c       	subi	r30, 0xC0	; 192
    2caa:	fd 4e       	sbci	r31, 0xED	; 237
    2cac:	e4 91       	lpm	r30, Z
    2cae:	5e 96       	adiw	r26, 0x1e	; 30
    2cb0:	ec 93       	st	X, r30
    2cb2:	5e 97       	sbiw	r26, 0x1e	; 30
    2cb4:	f4 01       	movw	r30, r8
    2cb6:	ea 57       	subi	r30, 0x7A	; 122
    2cb8:	fd 4e       	sbci	r31, 0xED	; 237
    2cba:	e4 91       	lpm	r30, Z
    2cbc:	f0 e0       	ldi	r31, 0x00	; 0
    2cbe:	ee 0f       	add	r30, r30
    2cc0:	ff 1f       	adc	r31, r31
    2cc2:	ea 51       	subi	r30, 0x1A	; 26
    2cc4:	fd 4e       	sbci	r31, 0xED	; 237
    2cc6:	25 91       	lpm	r18, Z+
    2cc8:	34 91       	lpm	r19, Z
    2cca:	f5 01       	movw	r30, r10
    2ccc:	33 8b       	std	Z+19, r19	; 0x13
    2cce:	22 8b       	std	Z+18, r18	; 0x12
    2cd0:	f4 01       	movw	r30, r8
    2cd2:	e0 5c       	subi	r30, 0xC0	; 192
    2cd4:	fd 4e       	sbci	r31, 0xED	; 237
    2cd6:	e4 91       	lpm	r30, Z
    2cd8:	5f 96       	adiw	r26, 0x1f	; 31
    2cda:	ec 93       	st	X, r30
    2cdc:	5f 97       	sbiw	r26, 0x1f	; 31
    2cde:	c8 01       	movw	r24, r16
    2ce0:	f8 01       	movw	r30, r16
    2ce2:	ea 57       	subi	r30, 0x7A	; 122
    2ce4:	fd 4e       	sbci	r31, 0xED	; 237
    2ce6:	e4 91       	lpm	r30, Z
    2ce8:	f0 e0       	ldi	r31, 0x00	; 0
    2cea:	ee 0f       	add	r30, r30
    2cec:	ff 1f       	adc	r31, r31
    2cee:	ea 51       	subi	r30, 0x1A	; 26
    2cf0:	fd 4e       	sbci	r31, 0xED	; 237
    2cf2:	25 91       	lpm	r18, Z+
    2cf4:	34 91       	lpm	r19, Z
    2cf6:	f5 01       	movw	r30, r10
    2cf8:	35 8b       	std	Z+21, r19	; 0x15
    2cfa:	24 8b       	std	Z+20, r18	; 0x14
    2cfc:	fc 01       	movw	r30, r24
    2cfe:	e0 5c       	subi	r30, 0xC0	; 192
    2d00:	fd 4e       	sbci	r31, 0xED	; 237
    2d02:	e4 91       	lpm	r30, Z
    2d04:	90 96       	adiw	r26, 0x20	; 32
    2d06:	ec 93       	st	X, r30
    2d08:	90 97       	sbiw	r26, 0x20	; 32
    2d0a:	f7 01       	movw	r30, r14
    2d0c:	ea 57       	subi	r30, 0x7A	; 122
    2d0e:	fd 4e       	sbci	r31, 0xED	; 237
    2d10:	e4 91       	lpm	r30, Z
    2d12:	f0 e0       	ldi	r31, 0x00	; 0
    2d14:	ee 0f       	add	r30, r30
    2d16:	ff 1f       	adc	r31, r31
    2d18:	ea 51       	subi	r30, 0x1A	; 26
    2d1a:	fd 4e       	sbci	r31, 0xED	; 237
    2d1c:	85 91       	lpm	r24, Z+
    2d1e:	94 91       	lpm	r25, Z
    2d20:	f5 01       	movw	r30, r10
    2d22:	97 8b       	std	Z+23, r25	; 0x17
    2d24:	86 8b       	std	Z+22, r24	; 0x16
    2d26:	f7 01       	movw	r30, r14
    2d28:	e0 5c       	subi	r30, 0xC0	; 192
    2d2a:	fd 4e       	sbci	r31, 0xED	; 237
    2d2c:	e4 90       	lpm	r14, Z
    2d2e:	91 96       	adiw	r26, 0x21	; 33
    2d30:	ec 92       	st	X, r14
    2d32:	91 97       	sbiw	r26, 0x21	; 33
    2d34:	1e 96       	adiw	r26, 0x0e	; 14
    2d36:	8c 91       	ld	r24, X
    2d38:	81 31       	cpi	r24, 0x11	; 17
    2d3a:	09 f0       	breq	.+2      	; 0x2d3e <_ZN4UTFTC1Ehiiiii+0x1cc>
    2d3c:	ad c0       	rjmp	.+346    	; 0x2e98 <_ZN4UTFTC1Ehiiiii+0x326>
    2d3e:	f6 01       	movw	r30, r12
    2d40:	ea 57       	subi	r30, 0x7A	; 122
    2d42:	fd 4e       	sbci	r31, 0xED	; 237
    2d44:	e4 91       	lpm	r30, Z
    2d46:	f0 e0       	ldi	r31, 0x00	; 0
    2d48:	ee 0f       	add	r30, r30
    2d4a:	ff 1f       	adc	r31, r31
    2d4c:	ea 51       	subi	r30, 0x1A	; 26
    2d4e:	fd 4e       	sbci	r31, 0xED	; 237
    2d50:	a5 91       	lpm	r26, Z+
    2d52:	b4 91       	lpm	r27, Z
    2d54:	f5 01       	movw	r30, r10
    2d56:	b5 8f       	std	Z+29, r27	; 0x1d
    2d58:	a4 8f       	std	Z+28, r26	; 0x1c
    2d5a:	f6 01       	movw	r30, r12
    2d5c:	e0 5c       	subi	r30, 0xC0	; 192
    2d5e:	fd 4e       	sbci	r31, 0xED	; 237
    2d60:	94 91       	lpm	r25, Z
    2d62:	f5 01       	movw	r30, r10
    2d64:	94 a3       	std	Z+36, r25	; 0x24
    2d66:	8c 91       	ld	r24, X
    2d68:	e9 2f       	mov	r30, r25
    2d6a:	e0 95       	com	r30
    2d6c:	e8 23       	and	r30, r24
    2d6e:	ec 93       	st	X, r30
    2d70:	61 e0       	ldi	r22, 0x01	; 1
    2d72:	88 e0       	ldi	r24, 0x08	; 8
    2d74:	0e 94 96 37 	call	0x6f2c	; 0x6f2c <pinMode>
    2d78:	60 e0       	ldi	r22, 0x00	; 0
    2d7a:	88 e0       	ldi	r24, 0x08	; 8
    2d7c:	c0 56       	subi	r28, 0x60	; 96
    2d7e:	df 4f       	sbci	r29, 0xFF	; 255
    2d80:	0f b6       	in	r0, 0x3f	; 63
    2d82:	f8 94       	cli
    2d84:	de bf       	out	0x3e, r29	; 62
    2d86:	0f be       	out	0x3f, r0	; 63
    2d88:	cd bf       	out	0x3d, r28	; 61
    2d8a:	df 91       	pop	r29
    2d8c:	cf 91       	pop	r28
    2d8e:	1f 91       	pop	r17
    2d90:	0f 91       	pop	r16
    2d92:	ff 90       	pop	r15
    2d94:	ef 90       	pop	r14
    2d96:	df 90       	pop	r13
    2d98:	cf 90       	pop	r12
    2d9a:	bf 90       	pop	r11
    2d9c:	af 90       	pop	r10
    2d9e:	9f 90       	pop	r9
    2da0:	8f 90       	pop	r8
    2da2:	7f 90       	pop	r7
    2da4:	6f 90       	pop	r6
    2da6:	5f 90       	pop	r5
    2da8:	4f 90       	pop	r4
    2daa:	0c 94 d2 37 	jmp	0x6fa4	; 0x6fa4 <digitalWrite>
    2dae:	ba 01       	movw	r22, r20
    2db0:	fa 01       	movw	r30, r20
    2db2:	ea 57       	subi	r30, 0x7A	; 122
    2db4:	fd 4e       	sbci	r31, 0xED	; 237
    2db6:	e4 91       	lpm	r30, Z
    2db8:	f0 e0       	ldi	r31, 0x00	; 0
    2dba:	ee 0f       	add	r30, r30
    2dbc:	ff 1f       	adc	r31, r31
    2dbe:	ea 51       	subi	r30, 0x1A	; 26
    2dc0:	fd 4e       	sbci	r31, 0xED	; 237
    2dc2:	45 91       	lpm	r20, Z+
    2dc4:	54 91       	lpm	r21, Z
    2dc6:	dc 01       	movw	r26, r24
    2dc8:	59 96       	adiw	r26, 0x19	; 25
    2dca:	5c 93       	st	X, r21
    2dcc:	4e 93       	st	-X, r20
    2dce:	58 97       	sbiw	r26, 0x18	; 24
    2dd0:	fb 01       	movw	r30, r22
    2dd2:	e0 5c       	subi	r30, 0xC0	; 192
    2dd4:	fd 4e       	sbci	r31, 0xED	; 237
    2dd6:	e4 91       	lpm	r30, Z
    2dd8:	92 96       	adiw	r26, 0x22	; 34
    2dda:	ec 93       	st	X, r30
    2ddc:	92 97       	sbiw	r26, 0x22	; 34
    2dde:	a9 01       	movw	r20, r18
    2de0:	f9 01       	movw	r30, r18
    2de2:	ea 57       	subi	r30, 0x7A	; 122
    2de4:	fd 4e       	sbci	r31, 0xED	; 237
    2de6:	e4 91       	lpm	r30, Z
    2de8:	f0 e0       	ldi	r31, 0x00	; 0
    2dea:	ee 0f       	add	r30, r30
    2dec:	ff 1f       	adc	r31, r31
    2dee:	ea 51       	subi	r30, 0x1A	; 26
    2df0:	fd 4e       	sbci	r31, 0xED	; 237
    2df2:	25 91       	lpm	r18, Z+
    2df4:	34 91       	lpm	r19, Z
    2df6:	fc 01       	movw	r30, r24
    2df8:	33 8f       	std	Z+27, r19	; 0x1b
    2dfa:	22 8f       	std	Z+26, r18	; 0x1a
    2dfc:	fa 01       	movw	r30, r20
    2dfe:	e0 5c       	subi	r30, 0xC0	; 192
    2e00:	fd 4e       	sbci	r31, 0xED	; 237
    2e02:	e4 91       	lpm	r30, Z
    2e04:	93 96       	adiw	r26, 0x23	; 35
    2e06:	ec 93       	st	X, r30
    2e08:	93 97       	sbiw	r26, 0x23	; 35
    2e0a:	f8 01       	movw	r30, r16
    2e0c:	ea 57       	subi	r30, 0x7A	; 122
    2e0e:	fd 4e       	sbci	r31, 0xED	; 237
    2e10:	e4 91       	lpm	r30, Z
    2e12:	f0 e0       	ldi	r31, 0x00	; 0
    2e14:	ee 0f       	add	r30, r30
    2e16:	ff 1f       	adc	r31, r31
    2e18:	ea 51       	subi	r30, 0x1A	; 26
    2e1a:	fd 4e       	sbci	r31, 0xED	; 237
    2e1c:	45 91       	lpm	r20, Z+
    2e1e:	54 91       	lpm	r21, Z
    2e20:	fc 01       	movw	r30, r24
    2e22:	55 8b       	std	Z+21, r21	; 0x15
    2e24:	44 8b       	std	Z+20, r20	; 0x14
    2e26:	f8 01       	movw	r30, r16
    2e28:	e0 5c       	subi	r30, 0xC0	; 192
    2e2a:	fd 4e       	sbci	r31, 0xED	; 237
    2e2c:	e4 91       	lpm	r30, Z
    2e2e:	90 96       	adiw	r26, 0x20	; 32
    2e30:	ec 93       	st	X, r30
    2e32:	bf ef       	ldi	r27, 0xFF	; 255
    2e34:	eb 16       	cp	r14, r27
    2e36:	f1 04       	cpc	r15, r1
    2e38:	a9 f0       	breq	.+42     	; 0x2e64 <_ZN4UTFTC1Ehiiiii+0x2f2>
    2e3a:	f7 01       	movw	r30, r14
    2e3c:	ea 57       	subi	r30, 0x7A	; 122
    2e3e:	fd 4e       	sbci	r31, 0xED	; 237
    2e40:	e4 91       	lpm	r30, Z
    2e42:	f0 e0       	ldi	r31, 0x00	; 0
    2e44:	ee 0f       	add	r30, r30
    2e46:	ff 1f       	adc	r31, r31
    2e48:	ea 51       	subi	r30, 0x1A	; 26
    2e4a:	fd 4e       	sbci	r31, 0xED	; 237
    2e4c:	25 91       	lpm	r18, Z+
    2e4e:	34 91       	lpm	r19, Z
    2e50:	fc 01       	movw	r30, r24
    2e52:	37 8b       	std	Z+23, r19	; 0x17
    2e54:	26 8b       	std	Z+22, r18	; 0x16
    2e56:	f7 01       	movw	r30, r14
    2e58:	e0 5c       	subi	r30, 0xC0	; 192
    2e5a:	fd 4e       	sbci	r31, 0xED	; 237
    2e5c:	e4 90       	lpm	r14, Z
    2e5e:	dc 01       	movw	r26, r24
    2e60:	91 96       	adiw	r26, 0x21	; 33
    2e62:	ec 92       	st	X, r14
    2e64:	fc 01       	movw	r30, r24
    2e66:	27 85       	ldd	r18, Z+15	; 0x0f
    2e68:	24 30       	cpi	r18, 0x04	; 4
    2e6a:	b1 f0       	breq	.+44     	; 0x2e98 <_ZN4UTFTC1Ehiiiii+0x326>
    2e6c:	f6 01       	movw	r30, r12
    2e6e:	ea 57       	subi	r30, 0x7A	; 122
    2e70:	fd 4e       	sbci	r31, 0xED	; 237
    2e72:	e4 91       	lpm	r30, Z
    2e74:	f0 e0       	ldi	r31, 0x00	; 0
    2e76:	ee 0f       	add	r30, r30
    2e78:	ff 1f       	adc	r31, r31
    2e7a:	ea 51       	subi	r30, 0x1A	; 26
    2e7c:	fd 4e       	sbci	r31, 0xED	; 237
    2e7e:	45 91       	lpm	r20, Z+
    2e80:	54 91       	lpm	r21, Z
    2e82:	dc 01       	movw	r26, r24
    2e84:	51 96       	adiw	r26, 0x11	; 17
    2e86:	5c 93       	st	X, r21
    2e88:	4e 93       	st	-X, r20
    2e8a:	50 97       	sbiw	r26, 0x10	; 16
    2e8c:	f6 01       	movw	r30, r12
    2e8e:	e0 5c       	subi	r30, 0xC0	; 192
    2e90:	fd 4e       	sbci	r31, 0xED	; 237
    2e92:	e4 91       	lpm	r30, Z
    2e94:	5e 96       	adiw	r26, 0x1e	; 30
    2e96:	ec 93       	st	X, r30
    2e98:	c0 56       	subi	r28, 0x60	; 96
    2e9a:	df 4f       	sbci	r29, 0xFF	; 255
    2e9c:	0f b6       	in	r0, 0x3f	; 63
    2e9e:	f8 94       	cli
    2ea0:	de bf       	out	0x3e, r29	; 62
    2ea2:	0f be       	out	0x3f, r0	; 63
    2ea4:	cd bf       	out	0x3d, r28	; 61
    2ea6:	df 91       	pop	r29
    2ea8:	cf 91       	pop	r28
    2eaa:	1f 91       	pop	r17
    2eac:	0f 91       	pop	r16
    2eae:	ff 90       	pop	r15
    2eb0:	ef 90       	pop	r14
    2eb2:	df 90       	pop	r13
    2eb4:	cf 90       	pop	r12
    2eb6:	bf 90       	pop	r11
    2eb8:	af 90       	pop	r10
    2eba:	9f 90       	pop	r9
    2ebc:	8f 90       	pop	r8
    2ebe:	7f 90       	pop	r7
    2ec0:	6f 90       	pop	r6
    2ec2:	5f 90       	pop	r5
    2ec4:	4f 90       	pop	r4
    2ec6:	08 95       	ret

00002ec8 <_ZN4UTFT13LCD_Write_COMEc>:
    2ec8:	46 2f       	mov	r20, r22
    2eca:	dc 01       	movw	r26, r24
    2ecc:	1e 96       	adiw	r26, 0x0e	; 14
    2ece:	2c 91       	ld	r18, X
    2ed0:	1e 97       	sbiw	r26, 0x0e	; 14
    2ed2:	21 30       	cpi	r18, 0x01	; 1
    2ed4:	71 f0       	breq	.+28     	; 0x2ef2 <_ZN4UTFT13LCD_Write_COMEc+0x2a>
    2ed6:	50 96       	adiw	r26, 0x10	; 16
    2ed8:	ed 91       	ld	r30, X+
    2eda:	fc 91       	ld	r31, X
    2edc:	51 97       	sbiw	r26, 0x11	; 17
    2ede:	30 81       	ld	r19, Z
    2ee0:	5e 96       	adiw	r26, 0x1e	; 30
    2ee2:	2c 91       	ld	r18, X
    2ee4:	5e 97       	sbiw	r26, 0x1e	; 30
    2ee6:	20 95       	com	r18
    2ee8:	23 23       	and	r18, r19
    2eea:	20 83       	st	Z, r18
    2eec:	1e 96       	adiw	r26, 0x0e	; 14
    2eee:	2c 91       	ld	r18, X
    2ef0:	01 c0       	rjmp	.+2      	; 0x2ef4 <_ZN4UTFT13LCD_Write_COMEc+0x2c>
    2ef2:	21 e0       	ldi	r18, 0x01	; 1
    2ef4:	60 e0       	ldi	r22, 0x00	; 0
    2ef6:	59 c9       	rjmp	.-3406   	; 0x21aa <_ZN4UTFT12LCD_Writ_BusEcch>

00002ef8 <_ZN4UTFT14LCD_Write_DATAEcc>:
    2ef8:	1f 93       	push	r17
    2efa:	cf 93       	push	r28
    2efc:	df 93       	push	r29
    2efe:	dc 01       	movw	r26, r24
    2f00:	1e 96       	adiw	r26, 0x0e	; 14
    2f02:	2c 91       	ld	r18, X
    2f04:	1e 97       	sbiw	r26, 0x0e	; 14
    2f06:	21 30       	cpi	r18, 0x01	; 1
    2f08:	69 f0       	breq	.+26     	; 0x2f24 <_ZN4UTFT14LCD_Write_DATAEcc+0x2c>
    2f0a:	50 96       	adiw	r26, 0x10	; 16
    2f0c:	ed 91       	ld	r30, X+
    2f0e:	fc 91       	ld	r31, X
    2f10:	51 97       	sbiw	r26, 0x11	; 17
    2f12:	30 81       	ld	r19, Z
    2f14:	5e 96       	adiw	r26, 0x1e	; 30
    2f16:	2c 91       	ld	r18, X
    2f18:	5e 97       	sbiw	r26, 0x1e	; 30
    2f1a:	23 2b       	or	r18, r19
    2f1c:	20 83       	st	Z, r18
    2f1e:	1e 96       	adiw	r26, 0x0e	; 14
    2f20:	2c 91       	ld	r18, X
    2f22:	0a c0       	rjmp	.+20     	; 0x2f38 <_ZN4UTFT14LCD_Write_DATAEcc+0x40>
    2f24:	14 2f       	mov	r17, r20
    2f26:	46 2f       	mov	r20, r22
    2f28:	ec 01       	movw	r28, r24
    2f2a:	21 e0       	ldi	r18, 0x01	; 1
    2f2c:	61 e0       	ldi	r22, 0x01	; 1
    2f2e:	3d d9       	rcall	.-3462   	; 0x21aa <_ZN4UTFT12LCD_Writ_BusEcch>
    2f30:	2e 85       	ldd	r18, Y+14	; 0x0e
    2f32:	41 2f       	mov	r20, r17
    2f34:	61 e0       	ldi	r22, 0x01	; 1
    2f36:	ce 01       	movw	r24, r28
    2f38:	df 91       	pop	r29
    2f3a:	cf 91       	pop	r28
    2f3c:	1f 91       	pop	r17
    2f3e:	35 c9       	rjmp	.-3478   	; 0x21aa <_ZN4UTFT12LCD_Writ_BusEcch>

00002f40 <_ZN4UTFT14LCD_Write_DATAEc>:
    2f40:	46 2f       	mov	r20, r22
    2f42:	dc 01       	movw	r26, r24
    2f44:	1e 96       	adiw	r26, 0x0e	; 14
    2f46:	2c 91       	ld	r18, X
    2f48:	1e 97       	sbiw	r26, 0x0e	; 14
    2f4a:	21 30       	cpi	r18, 0x01	; 1
    2f4c:	71 f0       	breq	.+28     	; 0x2f6a <_ZN4UTFT14LCD_Write_DATAEc+0x2a>
    2f4e:	50 96       	adiw	r26, 0x10	; 16
    2f50:	ed 91       	ld	r30, X+
    2f52:	fc 91       	ld	r31, X
    2f54:	51 97       	sbiw	r26, 0x11	; 17
    2f56:	30 81       	ld	r19, Z
    2f58:	5e 96       	adiw	r26, 0x1e	; 30
    2f5a:	2c 91       	ld	r18, X
    2f5c:	5e 97       	sbiw	r26, 0x1e	; 30
    2f5e:	23 2b       	or	r18, r19
    2f60:	20 83       	st	Z, r18
    2f62:	1e 96       	adiw	r26, 0x0e	; 14
    2f64:	2c 91       	ld	r18, X
    2f66:	60 e0       	ldi	r22, 0x00	; 0
    2f68:	02 c0       	rjmp	.+4      	; 0x2f6e <_ZN4UTFT14LCD_Write_DATAEc+0x2e>
    2f6a:	21 e0       	ldi	r18, 0x01	; 1
    2f6c:	61 e0       	ldi	r22, 0x01	; 1
    2f6e:	1d c9       	rjmp	.-3526   	; 0x21aa <_ZN4UTFT12LCD_Writ_BusEcch>

00002f70 <_ZN4UTFT18LCD_Write_COM_DATAEci>:
    2f70:	0f 93       	push	r16
    2f72:	1f 93       	push	r17
    2f74:	cf 93       	push	r28
    2f76:	df 93       	push	r29
    2f78:	ec 01       	movw	r28, r24
    2f7a:	8a 01       	movw	r16, r20
    2f7c:	a5 df       	rcall	.-182    	; 0x2ec8 <_ZN4UTFT13LCD_Write_COMEc>
    2f7e:	40 2f       	mov	r20, r16
    2f80:	61 2f       	mov	r22, r17
    2f82:	ce 01       	movw	r24, r28
    2f84:	df 91       	pop	r29
    2f86:	cf 91       	pop	r28
    2f88:	1f 91       	pop	r17
    2f8a:	0f 91       	pop	r16
    2f8c:	b5 cf       	rjmp	.-150    	; 0x2ef8 <_ZN4UTFT14LCD_Write_DATAEcc>

00002f8e <_ZN4UTFT5setXYEjjjj>:
    2f8e:	af 92       	push	r10
    2f90:	bf 92       	push	r11
    2f92:	cf 92       	push	r12
    2f94:	df 92       	push	r13
    2f96:	ef 92       	push	r14
    2f98:	ff 92       	push	r15
    2f9a:	0f 93       	push	r16
    2f9c:	1f 93       	push	r17
    2f9e:	cf 93       	push	r28
    2fa0:	df 93       	push	r29
    2fa2:	ec 01       	movw	r28, r24
    2fa4:	6b 01       	movw	r12, r22
    2fa6:	b4 2e       	mov	r11, r20
    2fa8:	a5 2e       	mov	r10, r21
    2faa:	79 01       	movw	r14, r18
    2fac:	8c 81       	ldd	r24, Y+4	; 0x04
    2fae:	81 30       	cpi	r24, 0x01	; 1
    2fb0:	69 f4       	brne	.+26     	; 0x2fcc <_ZN4UTFT5setXYEjjjj+0x3e>
    2fb2:	89 85       	ldd	r24, Y+9	; 0x09
    2fb4:	9a 85       	ldd	r25, Y+10	; 0x0a
    2fb6:	9c 01       	movw	r18, r24
    2fb8:	26 1b       	sub	r18, r22
    2fba:	37 0b       	sbc	r19, r23
    2fbc:	8e 19       	sub	r24, r14
    2fbe:	9f 09       	sbc	r25, r15
    2fc0:	78 01       	movw	r14, r16
    2fc2:	89 01       	movw	r16, r18
    2fc4:	c4 2e       	mov	r12, r20
    2fc6:	d5 2e       	mov	r13, r21
    2fc8:	b8 2e       	mov	r11, r24
    2fca:	a9 2e       	mov	r10, r25
    2fcc:	ed 85       	ldd	r30, Y+13	; 0x0d
    2fce:	8e 2f       	mov	r24, r30
    2fd0:	90 e0       	ldi	r25, 0x00	; 0
    2fd2:	fc 01       	movw	r30, r24
    2fd4:	32 97       	sbiw	r30, 0x02	; 2
    2fd6:	ee 31       	cpi	r30, 0x1E	; 30
    2fd8:	f1 05       	cpc	r31, r1
    2fda:	08 f0       	brcs	.+2      	; 0x2fde <_ZN4UTFT5setXYEjjjj+0x50>
    2fdc:	0e c1       	rjmp	.+540    	; 0x31fa <_ZN4UTFT5setXYEjjjj+0x26c>
    2fde:	88 27       	eor	r24, r24
    2fe0:	ee 58       	subi	r30, 0x8E	; 142
    2fe2:	ff 4f       	sbci	r31, 0xFF	; 255
    2fe4:	8f 4f       	sbci	r24, 0xFF	; 255
    2fe6:	0c 94 42 3a 	jmp	0x7484	; 0x7484 <__tablejump2__>
    2fea:	4d 2d       	mov	r20, r13
    2fec:	50 e0       	ldi	r21, 0x00	; 0
    2fee:	62 e0       	ldi	r22, 0x02	; 2
    2ff0:	ce 01       	movw	r24, r28
    2ff2:	be df       	rcall	.-132    	; 0x2f70 <_ZN4UTFT18LCD_Write_COM_DATAEci>
    2ff4:	a6 01       	movw	r20, r12
    2ff6:	63 e0       	ldi	r22, 0x03	; 3
    2ff8:	ce 01       	movw	r24, r28
    2ffa:	ba df       	rcall	.-140    	; 0x2f70 <_ZN4UTFT18LCD_Write_COM_DATAEci>
    2ffc:	4f 2d       	mov	r20, r15
    2ffe:	50 e0       	ldi	r21, 0x00	; 0
    3000:	64 e0       	ldi	r22, 0x04	; 4
    3002:	ce 01       	movw	r24, r28
    3004:	b5 df       	rcall	.-150    	; 0x2f70 <_ZN4UTFT18LCD_Write_COM_DATAEci>
    3006:	a7 01       	movw	r20, r14
    3008:	65 e0       	ldi	r22, 0x05	; 5
    300a:	ce 01       	movw	r24, r28
    300c:	b1 df       	rcall	.-158    	; 0x2f70 <_ZN4UTFT18LCD_Write_COM_DATAEci>
    300e:	4a 2d       	mov	r20, r10
    3010:	50 e0       	ldi	r21, 0x00	; 0
    3012:	66 e0       	ldi	r22, 0x06	; 6
    3014:	ce 01       	movw	r24, r28
    3016:	ac df       	rcall	.-168    	; 0x2f70 <_ZN4UTFT18LCD_Write_COM_DATAEci>
    3018:	4b 2d       	mov	r20, r11
    301a:	5a 2d       	mov	r21, r10
    301c:	67 e0       	ldi	r22, 0x07	; 7
    301e:	ce 01       	movw	r24, r28
    3020:	a7 df       	rcall	.-178    	; 0x2f70 <_ZN4UTFT18LCD_Write_COM_DATAEci>
    3022:	41 2f       	mov	r20, r17
    3024:	50 e0       	ldi	r21, 0x00	; 0
    3026:	52 c0       	rjmp	.+164    	; 0x30cc <_ZN4UTFT5setXYEjjjj+0x13e>
    3028:	5e 2d       	mov	r21, r14
    302a:	44 27       	eor	r20, r20
    302c:	4c 0d       	add	r20, r12
    302e:	5d 1d       	adc	r21, r13
    3030:	64 e4       	ldi	r22, 0x44	; 68
    3032:	ce 01       	movw	r24, r28
    3034:	9d df       	rcall	.-198    	; 0x2f70 <_ZN4UTFT18LCD_Write_COM_DATAEci>
    3036:	4b 2d       	mov	r20, r11
    3038:	5a 2d       	mov	r21, r10
    303a:	65 e4       	ldi	r22, 0x45	; 69
    303c:	ce 01       	movw	r24, r28
    303e:	98 df       	rcall	.-208    	; 0x2f70 <_ZN4UTFT18LCD_Write_COM_DATAEci>
    3040:	a8 01       	movw	r20, r16
    3042:	66 e4       	ldi	r22, 0x46	; 70
    3044:	ce 01       	movw	r24, r28
    3046:	94 df       	rcall	.-216    	; 0x2f70 <_ZN4UTFT18LCD_Write_COM_DATAEci>
    3048:	a6 01       	movw	r20, r12
    304a:	6e e4       	ldi	r22, 0x4E	; 78
    304c:	ce 01       	movw	r24, r28
    304e:	90 df       	rcall	.-224    	; 0x2f70 <_ZN4UTFT18LCD_Write_COM_DATAEci>
    3050:	4b 2d       	mov	r20, r11
    3052:	5a 2d       	mov	r21, r10
    3054:	6f e4       	ldi	r22, 0x4F	; 79
    3056:	ce 01       	movw	r24, r28
    3058:	8b df       	rcall	.-234    	; 0x2f70 <_ZN4UTFT18LCD_Write_COM_DATAEci>
    305a:	62 e2       	ldi	r22, 0x22	; 34
    305c:	c2 c0       	rjmp	.+388    	; 0x31e2 <_ZN4UTFT5setXYEjjjj+0x254>
    305e:	a6 01       	movw	r20, r12
    3060:	60 e2       	ldi	r22, 0x20	; 32
    3062:	ce 01       	movw	r24, r28
    3064:	85 df       	rcall	.-246    	; 0x2f70 <_ZN4UTFT18LCD_Write_COM_DATAEci>
    3066:	4b 2d       	mov	r20, r11
    3068:	5a 2d       	mov	r21, r10
    306a:	61 e2       	ldi	r22, 0x21	; 33
    306c:	ce 01       	movw	r24, r28
    306e:	80 df       	rcall	.-256    	; 0x2f70 <_ZN4UTFT18LCD_Write_COM_DATAEci>
    3070:	a6 01       	movw	r20, r12
    3072:	60 e5       	ldi	r22, 0x50	; 80
    3074:	ce 01       	movw	r24, r28
    3076:	7c df       	rcall	.-264    	; 0x2f70 <_ZN4UTFT18LCD_Write_COM_DATAEci>
    3078:	4b 2d       	mov	r20, r11
    307a:	5a 2d       	mov	r21, r10
    307c:	62 e5       	ldi	r22, 0x52	; 82
    307e:	ce 01       	movw	r24, r28
    3080:	77 df       	rcall	.-274    	; 0x2f70 <_ZN4UTFT18LCD_Write_COM_DATAEci>
    3082:	a7 01       	movw	r20, r14
    3084:	61 e5       	ldi	r22, 0x51	; 81
    3086:	ce 01       	movw	r24, r28
    3088:	73 df       	rcall	.-282    	; 0x2f70 <_ZN4UTFT18LCD_Write_COM_DATAEci>
    308a:	a8 01       	movw	r20, r16
    308c:	63 e5       	ldi	r22, 0x53	; 83
    308e:	e3 cf       	rjmp	.-58     	; 0x3056 <_ZN4UTFT5setXYEjjjj+0xc8>
    3090:	40 e0       	ldi	r20, 0x00	; 0
    3092:	50 e0       	ldi	r21, 0x00	; 0
    3094:	62 e0       	ldi	r22, 0x02	; 2
    3096:	ce 01       	movw	r24, r28
    3098:	6b df       	rcall	.-298    	; 0x2f70 <_ZN4UTFT18LCD_Write_COM_DATAEci>
    309a:	a6 01       	movw	r20, r12
    309c:	63 e0       	ldi	r22, 0x03	; 3
    309e:	ce 01       	movw	r24, r28
    30a0:	67 df       	rcall	.-306    	; 0x2f70 <_ZN4UTFT18LCD_Write_COM_DATAEci>
    30a2:	40 e0       	ldi	r20, 0x00	; 0
    30a4:	50 e0       	ldi	r21, 0x00	; 0
    30a6:	64 e0       	ldi	r22, 0x04	; 4
    30a8:	ce 01       	movw	r24, r28
    30aa:	62 df       	rcall	.-316    	; 0x2f70 <_ZN4UTFT18LCD_Write_COM_DATAEci>
    30ac:	a7 01       	movw	r20, r14
    30ae:	65 e0       	ldi	r22, 0x05	; 5
    30b0:	ce 01       	movw	r24, r28
    30b2:	5e df       	rcall	.-324    	; 0x2f70 <_ZN4UTFT18LCD_Write_COM_DATAEci>
    30b4:	40 e0       	ldi	r20, 0x00	; 0
    30b6:	50 e0       	ldi	r21, 0x00	; 0
    30b8:	66 e0       	ldi	r22, 0x06	; 6
    30ba:	ce 01       	movw	r24, r28
    30bc:	59 df       	rcall	.-334    	; 0x2f70 <_ZN4UTFT18LCD_Write_COM_DATAEci>
    30be:	4b 2d       	mov	r20, r11
    30c0:	5a 2d       	mov	r21, r10
    30c2:	67 e0       	ldi	r22, 0x07	; 7
    30c4:	ce 01       	movw	r24, r28
    30c6:	54 df       	rcall	.-344    	; 0x2f70 <_ZN4UTFT18LCD_Write_COM_DATAEci>
    30c8:	40 e0       	ldi	r20, 0x00	; 0
    30ca:	50 e0       	ldi	r21, 0x00	; 0
    30cc:	68 e0       	ldi	r22, 0x08	; 8
    30ce:	ce 01       	movw	r24, r28
    30d0:	4f df       	rcall	.-354    	; 0x2f70 <_ZN4UTFT18LCD_Write_COM_DATAEci>
    30d2:	a8 01       	movw	r20, r16
    30d4:	69 e0       	ldi	r22, 0x09	; 9
    30d6:	bf cf       	rjmp	.-130    	; 0x3056 <_ZN4UTFT5setXYEjjjj+0xc8>
    30d8:	6a e2       	ldi	r22, 0x2A	; 42
    30da:	ce 01       	movw	r24, r28
    30dc:	f5 de       	rcall	.-534    	; 0x2ec8 <_ZN4UTFT13LCD_Write_COMEc>
    30de:	6c 2d       	mov	r22, r12
    30e0:	ce 01       	movw	r24, r28
    30e2:	2e df       	rcall	.-420    	; 0x2f40 <_ZN4UTFT14LCD_Write_DATAEc>
    30e4:	6e 2d       	mov	r22, r14
    30e6:	ce 01       	movw	r24, r28
    30e8:	2b df       	rcall	.-426    	; 0x2f40 <_ZN4UTFT14LCD_Write_DATAEc>
    30ea:	6b e2       	ldi	r22, 0x2B	; 43
    30ec:	ce 01       	movw	r24, r28
    30ee:	ec de       	rcall	.-552    	; 0x2ec8 <_ZN4UTFT13LCD_Write_COMEc>
    30f0:	6b 2d       	mov	r22, r11
    30f2:	71 c0       	rjmp	.+226    	; 0x31d6 <_ZN4UTFT5setXYEjjjj+0x248>
    30f4:	6a e2       	ldi	r22, 0x2A	; 42
    30f6:	ce 01       	movw	r24, r28
    30f8:	e7 de       	rcall	.-562    	; 0x2ec8 <_ZN4UTFT13LCD_Write_COMEc>
    30fa:	6a 2d       	mov	r22, r10
    30fc:	ce 01       	movw	r24, r28
    30fe:	20 df       	rcall	.-448    	; 0x2f40 <_ZN4UTFT14LCD_Write_DATAEc>
    3100:	6b 2d       	mov	r22, r11
    3102:	ce 01       	movw	r24, r28
    3104:	1d df       	rcall	.-454    	; 0x2f40 <_ZN4UTFT14LCD_Write_DATAEc>
    3106:	61 2f       	mov	r22, r17
    3108:	ce 01       	movw	r24, r28
    310a:	1a df       	rcall	.-460    	; 0x2f40 <_ZN4UTFT14LCD_Write_DATAEc>
    310c:	60 2f       	mov	r22, r16
    310e:	ce 01       	movw	r24, r28
    3110:	17 df       	rcall	.-466    	; 0x2f40 <_ZN4UTFT14LCD_Write_DATAEc>
    3112:	6b e2       	ldi	r22, 0x2B	; 43
    3114:	ce 01       	movw	r24, r28
    3116:	d8 de       	rcall	.-592    	; 0x2ec8 <_ZN4UTFT13LCD_Write_COMEc>
    3118:	6d 2d       	mov	r22, r13
    311a:	ce 01       	movw	r24, r28
    311c:	11 df       	rcall	.-478    	; 0x2f40 <_ZN4UTFT14LCD_Write_DATAEc>
    311e:	6c 2d       	mov	r22, r12
    3120:	ce 01       	movw	r24, r28
    3122:	0e df       	rcall	.-484    	; 0x2f40 <_ZN4UTFT14LCD_Write_DATAEc>
    3124:	6f 2d       	mov	r22, r15
    3126:	ce 01       	movw	r24, r28
    3128:	0b df       	rcall	.-490    	; 0x2f40 <_ZN4UTFT14LCD_Write_DATAEc>
    312a:	6e 2d       	mov	r22, r14
    312c:	57 c0       	rjmp	.+174    	; 0x31dc <_ZN4UTFT5setXYEjjjj+0x24e>
    312e:	5e 2d       	mov	r21, r14
    3130:	44 27       	eor	r20, r20
    3132:	4c 29       	or	r20, r12
    3134:	5d 29       	or	r21, r13
    3136:	66 e4       	ldi	r22, 0x46	; 70
    3138:	ce 01       	movw	r24, r28
    313a:	1a df       	rcall	.-460    	; 0x2f70 <_ZN4UTFT18LCD_Write_COM_DATAEci>
    313c:	a8 01       	movw	r20, r16
    313e:	67 e4       	ldi	r22, 0x47	; 71
    3140:	ce 01       	movw	r24, r28
    3142:	16 df       	rcall	.-468    	; 0x2f70 <_ZN4UTFT18LCD_Write_COM_DATAEci>
    3144:	4b 2d       	mov	r20, r11
    3146:	5a 2d       	mov	r21, r10
    3148:	68 e4       	ldi	r22, 0x48	; 72
    314a:	0f c0       	rjmp	.+30     	; 0x316a <_ZN4UTFT5setXYEjjjj+0x1dc>
    314c:	a7 01       	movw	r20, r14
    314e:	66 e3       	ldi	r22, 0x36	; 54
    3150:	ce 01       	movw	r24, r28
    3152:	0e df       	rcall	.-484    	; 0x2f70 <_ZN4UTFT18LCD_Write_COM_DATAEci>
    3154:	a6 01       	movw	r20, r12
    3156:	67 e3       	ldi	r22, 0x37	; 55
    3158:	ce 01       	movw	r24, r28
    315a:	0a df       	rcall	.-492    	; 0x2f70 <_ZN4UTFT18LCD_Write_COM_DATAEci>
    315c:	a8 01       	movw	r20, r16
    315e:	68 e3       	ldi	r22, 0x38	; 56
    3160:	ce 01       	movw	r24, r28
    3162:	06 df       	rcall	.-500    	; 0x2f70 <_ZN4UTFT18LCD_Write_COM_DATAEci>
    3164:	4b 2d       	mov	r20, r11
    3166:	5a 2d       	mov	r21, r10
    3168:	69 e3       	ldi	r22, 0x39	; 57
    316a:	ce 01       	movw	r24, r28
    316c:	01 df       	rcall	.-510    	; 0x2f70 <_ZN4UTFT18LCD_Write_COM_DATAEci>
    316e:	a6 01       	movw	r20, r12
    3170:	60 e2       	ldi	r22, 0x20	; 32
    3172:	ce 01       	movw	r24, r28
    3174:	fd de       	rcall	.-518    	; 0x2f70 <_ZN4UTFT18LCD_Write_COM_DATAEci>
    3176:	4b 2d       	mov	r20, r11
    3178:	5a 2d       	mov	r21, r10
    317a:	61 e2       	ldi	r22, 0x21	; 33
    317c:	6c cf       	rjmp	.-296    	; 0x3056 <_ZN4UTFT5setXYEjjjj+0xc8>
    317e:	4b 2d       	mov	r20, r11
    3180:	5a 2d       	mov	r21, r10
    3182:	62 e0       	ldi	r22, 0x02	; 2
    3184:	ce 01       	movw	r24, r28
    3186:	f4 de       	rcall	.-536    	; 0x2f70 <_ZN4UTFT18LCD_Write_COM_DATAEci>
    3188:	a6 01       	movw	r20, r12
    318a:	63 e0       	ldi	r22, 0x03	; 3
    318c:	ce 01       	movw	r24, r28
    318e:	f0 de       	rcall	.-544    	; 0x2f70 <_ZN4UTFT18LCD_Write_COM_DATAEci>
    3190:	a8 01       	movw	r20, r16
    3192:	66 e0       	ldi	r22, 0x06	; 6
    3194:	ce 01       	movw	r24, r28
    3196:	ec de       	rcall	.-552    	; 0x2f70 <_ZN4UTFT18LCD_Write_COM_DATAEci>
    3198:	a7 01       	movw	r20, r14
    319a:	67 e0       	ldi	r22, 0x07	; 7
    319c:	ce 01       	movw	r24, r28
    319e:	e8 de       	rcall	.-560    	; 0x2f70 <_ZN4UTFT18LCD_Write_COM_DATAEci>
    31a0:	6f e0       	ldi	r22, 0x0F	; 15
    31a2:	1f c0       	rjmp	.+62     	; 0x31e2 <_ZN4UTFT5setXYEjjjj+0x254>
    31a4:	6a e2       	ldi	r22, 0x2A	; 42
    31a6:	ce 01       	movw	r24, r28
    31a8:	8f de       	rcall	.-738    	; 0x2ec8 <_ZN4UTFT13LCD_Write_COMEc>
    31aa:	6d 2d       	mov	r22, r13
    31ac:	ce 01       	movw	r24, r28
    31ae:	c8 de       	rcall	.-624    	; 0x2f40 <_ZN4UTFT14LCD_Write_DATAEc>
    31b0:	6c 2d       	mov	r22, r12
    31b2:	ce 01       	movw	r24, r28
    31b4:	c5 de       	rcall	.-630    	; 0x2f40 <_ZN4UTFT14LCD_Write_DATAEc>
    31b6:	6f 2d       	mov	r22, r15
    31b8:	ce 01       	movw	r24, r28
    31ba:	c2 de       	rcall	.-636    	; 0x2f40 <_ZN4UTFT14LCD_Write_DATAEc>
    31bc:	6e 2d       	mov	r22, r14
    31be:	ce 01       	movw	r24, r28
    31c0:	bf de       	rcall	.-642    	; 0x2f40 <_ZN4UTFT14LCD_Write_DATAEc>
    31c2:	6b e2       	ldi	r22, 0x2B	; 43
    31c4:	ce 01       	movw	r24, r28
    31c6:	80 de       	rcall	.-768    	; 0x2ec8 <_ZN4UTFT13LCD_Write_COMEc>
    31c8:	6a 2d       	mov	r22, r10
    31ca:	ce 01       	movw	r24, r28
    31cc:	b9 de       	rcall	.-654    	; 0x2f40 <_ZN4UTFT14LCD_Write_DATAEc>
    31ce:	6b 2d       	mov	r22, r11
    31d0:	ce 01       	movw	r24, r28
    31d2:	b6 de       	rcall	.-660    	; 0x2f40 <_ZN4UTFT14LCD_Write_DATAEc>
    31d4:	61 2f       	mov	r22, r17
    31d6:	ce 01       	movw	r24, r28
    31d8:	b3 de       	rcall	.-666    	; 0x2f40 <_ZN4UTFT14LCD_Write_DATAEc>
    31da:	60 2f       	mov	r22, r16
    31dc:	ce 01       	movw	r24, r28
    31de:	b0 de       	rcall	.-672    	; 0x2f40 <_ZN4UTFT14LCD_Write_DATAEc>
    31e0:	6c e2       	ldi	r22, 0x2C	; 44
    31e2:	ce 01       	movw	r24, r28
    31e4:	df 91       	pop	r29
    31e6:	cf 91       	pop	r28
    31e8:	1f 91       	pop	r17
    31ea:	0f 91       	pop	r16
    31ec:	ff 90       	pop	r15
    31ee:	ef 90       	pop	r14
    31f0:	df 90       	pop	r13
    31f2:	cf 90       	pop	r12
    31f4:	bf 90       	pop	r11
    31f6:	af 90       	pop	r10
    31f8:	67 ce       	rjmp	.-818    	; 0x2ec8 <_ZN4UTFT13LCD_Write_COMEc>
    31fa:	df 91       	pop	r29
    31fc:	cf 91       	pop	r28
    31fe:	1f 91       	pop	r17
    3200:	0f 91       	pop	r16
    3202:	ff 90       	pop	r15
    3204:	ef 90       	pop	r14
    3206:	df 90       	pop	r13
    3208:	cf 90       	pop	r12
    320a:	bf 90       	pop	r11
    320c:	af 90       	pop	r10
    320e:	08 95       	ret

00003210 <_ZN4UTFT7InitLCDEh>:
    3210:	0f 93       	push	r16
    3212:	1f 93       	push	r17
    3214:	cf 93       	push	r28
    3216:	df 93       	push	r29
    3218:	ec 01       	movw	r28, r24
    321a:	6c 83       	std	Y+4, r22	; 0x04
    321c:	61 e0       	ldi	r22, 0x01	; 1
    321e:	8d a1       	ldd	r24, Y+37	; 0x25
    3220:	0e 94 96 37 	call	0x6f2c	; 0x6f2c <pinMode>
    3224:	61 e0       	ldi	r22, 0x01	; 1
    3226:	8e a1       	ldd	r24, Y+38	; 0x26
    3228:	0e 94 96 37 	call	0x6f2c	; 0x6f2c <pinMode>
    322c:	61 e0       	ldi	r22, 0x01	; 1
    322e:	8f a1       	ldd	r24, Y+39	; 0x27
    3230:	0e 94 96 37 	call	0x6f2c	; 0x6f2c <pinMode>
    3234:	88 a5       	ldd	r24, Y+40	; 0x28
    3236:	8f 3f       	cpi	r24, 0xFF	; 255
    3238:	19 f0       	breq	.+6      	; 0x3240 <_ZN4UTFT7InitLCDEh+0x30>
    323a:	61 e0       	ldi	r22, 0x01	; 1
    323c:	0e 94 96 37 	call	0x6f2c	; 0x6f2c <pinMode>
    3240:	8e 85       	ldd	r24, Y+14	; 0x0e
    3242:	81 31       	cpi	r24, 0x11	; 17
    3244:	29 f0       	breq	.+10     	; 0x3250 <_ZN4UTFT7InitLCDEh+0x40>
    3246:	81 30       	cpi	r24, 0x01	; 1
    3248:	39 f4       	brne	.+14     	; 0x3258 <_ZN4UTFT7InitLCDEh+0x48>
    324a:	8f 85       	ldd	r24, Y+15	; 0x0f
    324c:	85 30       	cpi	r24, 0x05	; 5
    324e:	21 f4       	brne	.+8      	; 0x3258 <_ZN4UTFT7InitLCDEh+0x48>
    3250:	61 e0       	ldi	r22, 0x01	; 1
    3252:	89 a5       	ldd	r24, Y+41	; 0x29
    3254:	0e 94 96 37 	call	0x6f2c	; 0x6f2c <pinMode>
    3258:	6e 85       	ldd	r22, Y+14	; 0x0e
    325a:	61 30       	cpi	r22, 0x01	; 1
    325c:	11 f0       	breq	.+4      	; 0x3262 <_ZN4UTFT7InitLCDEh+0x52>
    325e:	ce 01       	movw	r24, r28
    3260:	3b d9       	rcall	.-3466   	; 0x24d8 <_ZN4UTFT24_set_direction_registersEh>
    3262:	ee 89       	ldd	r30, Y+22	; 0x16
    3264:	ff 89       	ldd	r31, Y+23	; 0x17
    3266:	90 81       	ld	r25, Z
    3268:	89 a1       	ldd	r24, Y+33	; 0x21
    326a:	89 2b       	or	r24, r25
    326c:	80 83       	st	Z, r24
    326e:	65 e0       	ldi	r22, 0x05	; 5
    3270:	70 e0       	ldi	r23, 0x00	; 0
    3272:	80 e0       	ldi	r24, 0x00	; 0
    3274:	90 e0       	ldi	r25, 0x00	; 0
    3276:	0e 94 a6 36 	call	0x6d4c	; 0x6d4c <delay>
    327a:	ee 89       	ldd	r30, Y+22	; 0x16
    327c:	ff 89       	ldd	r31, Y+23	; 0x17
    327e:	90 81       	ld	r25, Z
    3280:	89 a1       	ldd	r24, Y+33	; 0x21
    3282:	80 95       	com	r24
    3284:	89 23       	and	r24, r25
    3286:	80 83       	st	Z, r24
    3288:	6f e0       	ldi	r22, 0x0F	; 15
    328a:	70 e0       	ldi	r23, 0x00	; 0
    328c:	80 e0       	ldi	r24, 0x00	; 0
    328e:	90 e0       	ldi	r25, 0x00	; 0
    3290:	0e 94 a6 36 	call	0x6d4c	; 0x6d4c <delay>
    3294:	ee 89       	ldd	r30, Y+22	; 0x16
    3296:	ff 89       	ldd	r31, Y+23	; 0x17
    3298:	90 81       	ld	r25, Z
    329a:	89 a1       	ldd	r24, Y+33	; 0x21
    329c:	89 2b       	or	r24, r25
    329e:	80 83       	st	Z, r24
    32a0:	6f e0       	ldi	r22, 0x0F	; 15
    32a2:	70 e0       	ldi	r23, 0x00	; 0
    32a4:	80 e0       	ldi	r24, 0x00	; 0
    32a6:	90 e0       	ldi	r25, 0x00	; 0
    32a8:	0e 94 a6 36 	call	0x6d4c	; 0x6d4c <delay>
    32ac:	ec 89       	ldd	r30, Y+20	; 0x14
    32ae:	fd 89       	ldd	r31, Y+21	; 0x15
    32b0:	90 81       	ld	r25, Z
    32b2:	88 a1       	ldd	r24, Y+32	; 0x20
    32b4:	80 95       	com	r24
    32b6:	89 23       	and	r24, r25
    32b8:	80 83       	st	Z, r24
    32ba:	ed 85       	ldd	r30, Y+13	; 0x0d
    32bc:	8e 2f       	mov	r24, r30
    32be:	90 e0       	ldi	r25, 0x00	; 0
    32c0:	fc 01       	movw	r30, r24
    32c2:	32 97       	sbiw	r30, 0x02	; 2
    32c4:	ee 31       	cpi	r30, 0x1E	; 30
    32c6:	f1 05       	cpc	r31, r1
    32c8:	10 f0       	brcs	.+4      	; 0x32ce <_ZN4UTFT7InitLCDEh+0xbe>
    32ca:	0c 94 db 2b 	jmp	0x57b6	; 0x57b6 <_ZN4UTFT7InitLCDEh+0x25a6>
    32ce:	88 27       	eor	r24, r24
    32d0:	e0 57       	subi	r30, 0x70	; 112
    32d2:	ff 4f       	sbci	r31, 0xFF	; 255
    32d4:	8f 4f       	sbci	r24, 0xFF	; 255
    32d6:	0c 94 42 3a 	jmp	0x7484	; 0x7484 <__tablejump2__>
    32da:	41 e0       	ldi	r20, 0x01	; 1
    32dc:	50 e0       	ldi	r21, 0x00	; 0
    32de:	60 e0       	ldi	r22, 0x00	; 0
    32e0:	ce 01       	movw	r24, r28
    32e2:	46 de       	rcall	.-884    	; 0x2f70 <_ZN4UTFT18LCD_Write_COM_DATAEci>
    32e4:	44 ea       	ldi	r20, 0xA4	; 164
    32e6:	58 ea       	ldi	r21, 0xA8	; 168
    32e8:	63 e0       	ldi	r22, 0x03	; 3
    32ea:	ce 01       	movw	r24, r28
    32ec:	41 de       	rcall	.-894    	; 0x2f70 <_ZN4UTFT18LCD_Write_COM_DATAEci>
    32ee:	40 e0       	ldi	r20, 0x00	; 0
    32f0:	50 e0       	ldi	r21, 0x00	; 0
    32f2:	6c e0       	ldi	r22, 0x0C	; 12
    32f4:	ce 01       	movw	r24, r28
    32f6:	3c de       	rcall	.-904    	; 0x2f70 <_ZN4UTFT18LCD_Write_COM_DATAEci>
    32f8:	4c e0       	ldi	r20, 0x0C	; 12
    32fa:	58 e0       	ldi	r21, 0x08	; 8
    32fc:	6d e0       	ldi	r22, 0x0D	; 13
    32fe:	ce 01       	movw	r24, r28
    3300:	37 de       	rcall	.-914    	; 0x2f70 <_ZN4UTFT18LCD_Write_COM_DATAEci>
    3302:	40 e0       	ldi	r20, 0x00	; 0
    3304:	5b e2       	ldi	r21, 0x2B	; 43
    3306:	6e e0       	ldi	r22, 0x0E	; 14
    3308:	ce 01       	movw	r24, r28
    330a:	32 de       	rcall	.-924    	; 0x2f70 <_ZN4UTFT18LCD_Write_COM_DATAEci>
    330c:	47 eb       	ldi	r20, 0xB7	; 183
    330e:	50 e0       	ldi	r21, 0x00	; 0
    3310:	6e e1       	ldi	r22, 0x1E	; 30
    3312:	ce 01       	movw	r24, r28
    3314:	2d de       	rcall	.-934    	; 0x2f70 <_ZN4UTFT18LCD_Write_COM_DATAEci>
    3316:	4f e3       	ldi	r20, 0x3F	; 63
    3318:	5b e2       	ldi	r21, 0x2B	; 43
    331a:	61 e0       	ldi	r22, 0x01	; 1
    331c:	ce 01       	movw	r24, r28
    331e:	28 de       	rcall	.-944    	; 0x2f70 <_ZN4UTFT18LCD_Write_COM_DATAEci>
    3320:	40 e0       	ldi	r20, 0x00	; 0
    3322:	56 e0       	ldi	r21, 0x06	; 6
    3324:	62 e0       	ldi	r22, 0x02	; 2
    3326:	ce 01       	movw	r24, r28
    3328:	23 de       	rcall	.-954    	; 0x2f70 <_ZN4UTFT18LCD_Write_COM_DATAEci>
    332a:	40 e0       	ldi	r20, 0x00	; 0
    332c:	50 e0       	ldi	r21, 0x00	; 0
    332e:	60 e1       	ldi	r22, 0x10	; 16
    3330:	ce 01       	movw	r24, r28
    3332:	1e de       	rcall	.-964    	; 0x2f70 <_ZN4UTFT18LCD_Write_COM_DATAEci>
    3334:	40 e7       	ldi	r20, 0x70	; 112
    3336:	50 e6       	ldi	r21, 0x60	; 96
    3338:	61 e1       	ldi	r22, 0x11	; 17
    333a:	ce 01       	movw	r24, r28
    333c:	19 de       	rcall	.-974    	; 0x2f70 <_ZN4UTFT18LCD_Write_COM_DATAEci>
    333e:	40 e0       	ldi	r20, 0x00	; 0
    3340:	50 e0       	ldi	r21, 0x00	; 0
    3342:	65 e0       	ldi	r22, 0x05	; 5
    3344:	ce 01       	movw	r24, r28
    3346:	14 de       	rcall	.-984    	; 0x2f70 <_ZN4UTFT18LCD_Write_COM_DATAEci>
    3348:	40 e0       	ldi	r20, 0x00	; 0
    334a:	50 e0       	ldi	r21, 0x00	; 0
    334c:	66 e0       	ldi	r22, 0x06	; 6
    334e:	ce 01       	movw	r24, r28
    3350:	0f de       	rcall	.-994    	; 0x2f70 <_ZN4UTFT18LCD_Write_COM_DATAEci>
    3352:	4c e1       	ldi	r20, 0x1C	; 28
    3354:	5f ee       	ldi	r21, 0xEF	; 239
    3356:	66 e1       	ldi	r22, 0x16	; 22
    3358:	ce 01       	movw	r24, r28
    335a:	0a de       	rcall	.-1004   	; 0x2f70 <_ZN4UTFT18LCD_Write_COM_DATAEci>
    335c:	43 e0       	ldi	r20, 0x03	; 3
    335e:	50 e0       	ldi	r21, 0x00	; 0
    3360:	67 e1       	ldi	r22, 0x17	; 23
    3362:	ce 01       	movw	r24, r28
    3364:	05 de       	rcall	.-1014   	; 0x2f70 <_ZN4UTFT18LCD_Write_COM_DATAEci>
    3366:	43 e3       	ldi	r20, 0x33	; 51
    3368:	52 e0       	ldi	r21, 0x02	; 2
    336a:	67 e0       	ldi	r22, 0x07	; 7
    336c:	ce 01       	movw	r24, r28
    336e:	00 de       	rcall	.-1024   	; 0x2f70 <_ZN4UTFT18LCD_Write_COM_DATAEci>
    3370:	40 e0       	ldi	r20, 0x00	; 0
    3372:	50 e0       	ldi	r21, 0x00	; 0
    3374:	6b e0       	ldi	r22, 0x0B	; 11
    3376:	ce 01       	movw	r24, r28
    3378:	fb dd       	rcall	.-1034   	; 0x2f70 <_ZN4UTFT18LCD_Write_COM_DATAEci>
    337a:	40 e0       	ldi	r20, 0x00	; 0
    337c:	50 e0       	ldi	r21, 0x00	; 0
    337e:	6f e0       	ldi	r22, 0x0F	; 15
    3380:	ce 01       	movw	r24, r28
    3382:	f6 dd       	rcall	.-1044   	; 0x2f70 <_ZN4UTFT18LCD_Write_COM_DATAEci>
    3384:	40 e0       	ldi	r20, 0x00	; 0
    3386:	50 e0       	ldi	r21, 0x00	; 0
    3388:	61 e4       	ldi	r22, 0x41	; 65
    338a:	ce 01       	movw	r24, r28
    338c:	f1 dd       	rcall	.-1054   	; 0x2f70 <_ZN4UTFT18LCD_Write_COM_DATAEci>
    338e:	40 e0       	ldi	r20, 0x00	; 0
    3390:	50 e0       	ldi	r21, 0x00	; 0
    3392:	62 e4       	ldi	r22, 0x42	; 66
    3394:	ce 01       	movw	r24, r28
    3396:	ec dd       	rcall	.-1064   	; 0x2f70 <_ZN4UTFT18LCD_Write_COM_DATAEci>
    3398:	40 e0       	ldi	r20, 0x00	; 0
    339a:	50 e0       	ldi	r21, 0x00	; 0
    339c:	68 e4       	ldi	r22, 0x48	; 72
    339e:	ce 01       	movw	r24, r28
    33a0:	e7 dd       	rcall	.-1074   	; 0x2f70 <_ZN4UTFT18LCD_Write_COM_DATAEci>
    33a2:	4f e3       	ldi	r20, 0x3F	; 63
    33a4:	51 e0       	ldi	r21, 0x01	; 1
    33a6:	69 e4       	ldi	r22, 0x49	; 73
    33a8:	ce 01       	movw	r24, r28
    33aa:	e2 dd       	rcall	.-1084   	; 0x2f70 <_ZN4UTFT18LCD_Write_COM_DATAEci>
    33ac:	40 e0       	ldi	r20, 0x00	; 0
    33ae:	50 e0       	ldi	r21, 0x00	; 0
    33b0:	6a e4       	ldi	r22, 0x4A	; 74
    33b2:	ce 01       	movw	r24, r28
    33b4:	dd dd       	rcall	.-1094   	; 0x2f70 <_ZN4UTFT18LCD_Write_COM_DATAEci>
    33b6:	40 e0       	ldi	r20, 0x00	; 0
    33b8:	50 e0       	ldi	r21, 0x00	; 0
    33ba:	6b e4       	ldi	r22, 0x4B	; 75
    33bc:	ce 01       	movw	r24, r28
    33be:	d8 dd       	rcall	.-1104   	; 0x2f70 <_ZN4UTFT18LCD_Write_COM_DATAEci>
    33c0:	40 e0       	ldi	r20, 0x00	; 0
    33c2:	5f ee       	ldi	r21, 0xEF	; 239
    33c4:	64 e4       	ldi	r22, 0x44	; 68
    33c6:	ce 01       	movw	r24, r28
    33c8:	d3 dd       	rcall	.-1114   	; 0x2f70 <_ZN4UTFT18LCD_Write_COM_DATAEci>
    33ca:	40 e0       	ldi	r20, 0x00	; 0
    33cc:	50 e0       	ldi	r21, 0x00	; 0
    33ce:	65 e4       	ldi	r22, 0x45	; 69
    33d0:	ce 01       	movw	r24, r28
    33d2:	ce dd       	rcall	.-1124   	; 0x2f70 <_ZN4UTFT18LCD_Write_COM_DATAEci>
    33d4:	4f e3       	ldi	r20, 0x3F	; 63
    33d6:	51 e0       	ldi	r21, 0x01	; 1
    33d8:	66 e4       	ldi	r22, 0x46	; 70
    33da:	ce 01       	movw	r24, r28
    33dc:	c9 dd       	rcall	.-1134   	; 0x2f70 <_ZN4UTFT18LCD_Write_COM_DATAEci>
    33de:	47 e0       	ldi	r20, 0x07	; 7
    33e0:	57 e0       	ldi	r21, 0x07	; 7
    33e2:	60 e3       	ldi	r22, 0x30	; 48
    33e4:	ce 01       	movw	r24, r28
    33e6:	c4 dd       	rcall	.-1144   	; 0x2f70 <_ZN4UTFT18LCD_Write_COM_DATAEci>
    33e8:	44 e0       	ldi	r20, 0x04	; 4
    33ea:	52 e0       	ldi	r21, 0x02	; 2
    33ec:	61 e3       	ldi	r22, 0x31	; 49
    33ee:	ce 01       	movw	r24, r28
    33f0:	bf dd       	rcall	.-1154   	; 0x2f70 <_ZN4UTFT18LCD_Write_COM_DATAEci>
    33f2:	44 e0       	ldi	r20, 0x04	; 4
    33f4:	52 e0       	ldi	r21, 0x02	; 2
    33f6:	62 e3       	ldi	r22, 0x32	; 50
    33f8:	ce 01       	movw	r24, r28
    33fa:	ba dd       	rcall	.-1164   	; 0x2f70 <_ZN4UTFT18LCD_Write_COM_DATAEci>
    33fc:	42 e0       	ldi	r20, 0x02	; 2
    33fe:	55 e0       	ldi	r21, 0x05	; 5
    3400:	63 e3       	ldi	r22, 0x33	; 51
    3402:	ce 01       	movw	r24, r28
    3404:	b5 dd       	rcall	.-1174   	; 0x2f70 <_ZN4UTFT18LCD_Write_COM_DATAEci>
    3406:	47 e0       	ldi	r20, 0x07	; 7
    3408:	55 e0       	ldi	r21, 0x05	; 5
    340a:	64 e3       	ldi	r22, 0x34	; 52
    340c:	ce 01       	movw	r24, r28
    340e:	b0 dd       	rcall	.-1184   	; 0x2f70 <_ZN4UTFT18LCD_Write_COM_DATAEci>
    3410:	44 e0       	ldi	r20, 0x04	; 4
    3412:	52 e0       	ldi	r21, 0x02	; 2
    3414:	65 e3       	ldi	r22, 0x35	; 53
    3416:	ce 01       	movw	r24, r28
    3418:	ab dd       	rcall	.-1194   	; 0x2f70 <_ZN4UTFT18LCD_Write_COM_DATAEci>
    341a:	44 e0       	ldi	r20, 0x04	; 4
    341c:	52 e0       	ldi	r21, 0x02	; 2
    341e:	66 e3       	ldi	r22, 0x36	; 54
    3420:	ce 01       	movw	r24, r28
    3422:	a6 dd       	rcall	.-1204   	; 0x2f70 <_ZN4UTFT18LCD_Write_COM_DATAEci>
    3424:	42 e0       	ldi	r20, 0x02	; 2
    3426:	55 e0       	ldi	r21, 0x05	; 5
    3428:	67 e3       	ldi	r22, 0x37	; 55
    342a:	ce 01       	movw	r24, r28
    342c:	a1 dd       	rcall	.-1214   	; 0x2f70 <_ZN4UTFT18LCD_Write_COM_DATAEci>
    342e:	42 e0       	ldi	r20, 0x02	; 2
    3430:	53 e0       	ldi	r21, 0x03	; 3
    3432:	6a e3       	ldi	r22, 0x3A	; 58
    3434:	ce 01       	movw	r24, r28
    3436:	9c dd       	rcall	.-1224   	; 0x2f70 <_ZN4UTFT18LCD_Write_COM_DATAEci>
    3438:	42 e0       	ldi	r20, 0x02	; 2
    343a:	53 e0       	ldi	r21, 0x03	; 3
    343c:	6b e3       	ldi	r22, 0x3B	; 59
    343e:	ce 01       	movw	r24, r28
    3440:	97 dd       	rcall	.-1234   	; 0x2f70 <_ZN4UTFT18LCD_Write_COM_DATAEci>
    3442:	40 e0       	ldi	r20, 0x00	; 0
    3444:	50 e0       	ldi	r21, 0x00	; 0
    3446:	63 e2       	ldi	r22, 0x23	; 35
    3448:	ce 01       	movw	r24, r28
    344a:	92 dd       	rcall	.-1244   	; 0x2f70 <_ZN4UTFT18LCD_Write_COM_DATAEci>
    344c:	40 e0       	ldi	r20, 0x00	; 0
    344e:	50 e0       	ldi	r21, 0x00	; 0
    3450:	64 e2       	ldi	r22, 0x24	; 36
    3452:	ce 01       	movw	r24, r28
    3454:	8d dd       	rcall	.-1254   	; 0x2f70 <_ZN4UTFT18LCD_Write_COM_DATAEci>
    3456:	40 e0       	ldi	r20, 0x00	; 0
    3458:	50 e8       	ldi	r21, 0x80	; 128
    345a:	65 e2       	ldi	r22, 0x25	; 37
    345c:	ce 01       	movw	r24, r28
    345e:	88 dd       	rcall	.-1264   	; 0x2f70 <_ZN4UTFT18LCD_Write_COM_DATAEci>
    3460:	40 e0       	ldi	r20, 0x00	; 0
    3462:	50 e0       	ldi	r21, 0x00	; 0
    3464:	6f e4       	ldi	r22, 0x4F	; 79
    3466:	ce 01       	movw	r24, r28
    3468:	83 dd       	rcall	.-1274   	; 0x2f70 <_ZN4UTFT18LCD_Write_COM_DATAEci>
    346a:	40 e0       	ldi	r20, 0x00	; 0
    346c:	50 e0       	ldi	r21, 0x00	; 0
    346e:	6e e4       	ldi	r22, 0x4E	; 78
    3470:	0c 94 73 25 	jmp	0x4ae6	; 0x4ae6 <_ZN4UTFT7InitLCDEh+0x18d6>
    3474:	40 ef       	ldi	r20, 0xF0	; 240
    3476:	58 e7       	ldi	r21, 0x78	; 120
    3478:	65 ee       	ldi	r22, 0xE5	; 229
    347a:	ce 01       	movw	r24, r28
    347c:	79 dd       	rcall	.-1294   	; 0x2f70 <_ZN4UTFT18LCD_Write_COM_DATAEci>
    347e:	40 e0       	ldi	r20, 0x00	; 0
    3480:	51 e0       	ldi	r21, 0x01	; 1
    3482:	61 e0       	ldi	r22, 0x01	; 1
    3484:	ce 01       	movw	r24, r28
    3486:	74 dd       	rcall	.-1304   	; 0x2f70 <_ZN4UTFT18LCD_Write_COM_DATAEci>
    3488:	40 e0       	ldi	r20, 0x00	; 0
    348a:	52 e0       	ldi	r21, 0x02	; 2
    348c:	62 e0       	ldi	r22, 0x02	; 2
    348e:	ce 01       	movw	r24, r28
    3490:	6f dd       	rcall	.-1314   	; 0x2f70 <_ZN4UTFT18LCD_Write_COM_DATAEci>
    3492:	40 e3       	ldi	r20, 0x30	; 48
    3494:	50 e1       	ldi	r21, 0x10	; 16
    3496:	63 e0       	ldi	r22, 0x03	; 3
    3498:	ce 01       	movw	r24, r28
    349a:	6a dd       	rcall	.-1324   	; 0x2f70 <_ZN4UTFT18LCD_Write_COM_DATAEci>
    349c:	40 e0       	ldi	r20, 0x00	; 0
    349e:	50 e0       	ldi	r21, 0x00	; 0
    34a0:	64 e0       	ldi	r22, 0x04	; 4
    34a2:	ce 01       	movw	r24, r28
    34a4:	65 dd       	rcall	.-1334   	; 0x2f70 <_ZN4UTFT18LCD_Write_COM_DATAEci>
    34a6:	47 e0       	ldi	r20, 0x07	; 7
    34a8:	52 e0       	ldi	r21, 0x02	; 2
    34aa:	68 e0       	ldi	r22, 0x08	; 8
    34ac:	ce 01       	movw	r24, r28
    34ae:	60 dd       	rcall	.-1344   	; 0x2f70 <_ZN4UTFT18LCD_Write_COM_DATAEci>
    34b0:	40 e0       	ldi	r20, 0x00	; 0
    34b2:	50 e0       	ldi	r21, 0x00	; 0
    34b4:	69 e0       	ldi	r22, 0x09	; 9
    34b6:	ce 01       	movw	r24, r28
    34b8:	5b dd       	rcall	.-1354   	; 0x2f70 <_ZN4UTFT18LCD_Write_COM_DATAEci>
    34ba:	40 e0       	ldi	r20, 0x00	; 0
    34bc:	50 e0       	ldi	r21, 0x00	; 0
    34be:	6a e0       	ldi	r22, 0x0A	; 10
    34c0:	ce 01       	movw	r24, r28
    34c2:	56 dd       	rcall	.-1364   	; 0x2f70 <_ZN4UTFT18LCD_Write_COM_DATAEci>
    34c4:	40 e0       	ldi	r20, 0x00	; 0
    34c6:	50 e0       	ldi	r21, 0x00	; 0
    34c8:	6c e0       	ldi	r22, 0x0C	; 12
    34ca:	ce 01       	movw	r24, r28
    34cc:	51 dd       	rcall	.-1374   	; 0x2f70 <_ZN4UTFT18LCD_Write_COM_DATAEci>
    34ce:	40 e0       	ldi	r20, 0x00	; 0
    34d0:	50 e0       	ldi	r21, 0x00	; 0
    34d2:	6d e0       	ldi	r22, 0x0D	; 13
    34d4:	ce 01       	movw	r24, r28
    34d6:	4c dd       	rcall	.-1384   	; 0x2f70 <_ZN4UTFT18LCD_Write_COM_DATAEci>
    34d8:	40 e0       	ldi	r20, 0x00	; 0
    34da:	50 e0       	ldi	r21, 0x00	; 0
    34dc:	6f e0       	ldi	r22, 0x0F	; 15
    34de:	ce 01       	movw	r24, r28
    34e0:	47 dd       	rcall	.-1394   	; 0x2f70 <_ZN4UTFT18LCD_Write_COM_DATAEci>
    34e2:	40 e0       	ldi	r20, 0x00	; 0
    34e4:	50 e0       	ldi	r21, 0x00	; 0
    34e6:	60 e1       	ldi	r22, 0x10	; 16
    34e8:	ce 01       	movw	r24, r28
    34ea:	42 dd       	rcall	.-1404   	; 0x2f70 <_ZN4UTFT18LCD_Write_COM_DATAEci>
    34ec:	47 e0       	ldi	r20, 0x07	; 7
    34ee:	50 e0       	ldi	r21, 0x00	; 0
    34f0:	61 e1       	ldi	r22, 0x11	; 17
    34f2:	ce 01       	movw	r24, r28
    34f4:	3d dd       	rcall	.-1414   	; 0x2f70 <_ZN4UTFT18LCD_Write_COM_DATAEci>
    34f6:	40 e0       	ldi	r20, 0x00	; 0
    34f8:	50 e0       	ldi	r21, 0x00	; 0
    34fa:	62 e1       	ldi	r22, 0x12	; 18
    34fc:	ce 01       	movw	r24, r28
    34fe:	38 dd       	rcall	.-1424   	; 0x2f70 <_ZN4UTFT18LCD_Write_COM_DATAEci>
    3500:	40 e0       	ldi	r20, 0x00	; 0
    3502:	50 e0       	ldi	r21, 0x00	; 0
    3504:	63 e1       	ldi	r22, 0x13	; 19
    3506:	ce 01       	movw	r24, r28
    3508:	33 dd       	rcall	.-1434   	; 0x2f70 <_ZN4UTFT18LCD_Write_COM_DATAEci>
    350a:	41 e0       	ldi	r20, 0x01	; 1
    350c:	50 e0       	ldi	r21, 0x00	; 0
    350e:	67 e0       	ldi	r22, 0x07	; 7
    3510:	ce 01       	movw	r24, r28
    3512:	2e dd       	rcall	.-1444   	; 0x2f70 <_ZN4UTFT18LCD_Write_COM_DATAEci>
    3514:	68 ec       	ldi	r22, 0xC8	; 200
    3516:	70 e0       	ldi	r23, 0x00	; 0
    3518:	80 e0       	ldi	r24, 0x00	; 0
    351a:	90 e0       	ldi	r25, 0x00	; 0
    351c:	0e 94 a6 36 	call	0x6d4c	; 0x6d4c <delay>
    3520:	40 e9       	ldi	r20, 0x90	; 144
    3522:	56 e1       	ldi	r21, 0x16	; 22
    3524:	60 e1       	ldi	r22, 0x10	; 16
    3526:	ce 01       	movw	r24, r28
    3528:	23 dd       	rcall	.-1466   	; 0x2f70 <_ZN4UTFT18LCD_Write_COM_DATAEci>
    352a:	47 e2       	ldi	r20, 0x27	; 39
    352c:	52 e0       	ldi	r21, 0x02	; 2
    352e:	61 e1       	ldi	r22, 0x11	; 17
    3530:	ce 01       	movw	r24, r28
    3532:	1e dd       	rcall	.-1476   	; 0x2f70 <_ZN4UTFT18LCD_Write_COM_DATAEci>
    3534:	62 e3       	ldi	r22, 0x32	; 50
    3536:	70 e0       	ldi	r23, 0x00	; 0
    3538:	80 e0       	ldi	r24, 0x00	; 0
    353a:	90 e0       	ldi	r25, 0x00	; 0
    353c:	0e 94 a6 36 	call	0x6d4c	; 0x6d4c <delay>
    3540:	4d e0       	ldi	r20, 0x0D	; 13
    3542:	50 e0       	ldi	r21, 0x00	; 0
    3544:	62 e1       	ldi	r22, 0x12	; 18
    3546:	ce 01       	movw	r24, r28
    3548:	13 dd       	rcall	.-1498   	; 0x2f70 <_ZN4UTFT18LCD_Write_COM_DATAEci>
    354a:	62 e3       	ldi	r22, 0x32	; 50
    354c:	70 e0       	ldi	r23, 0x00	; 0
    354e:	80 e0       	ldi	r24, 0x00	; 0
    3550:	90 e0       	ldi	r25, 0x00	; 0
    3552:	0e 94 a6 36 	call	0x6d4c	; 0x6d4c <delay>
    3556:	40 e0       	ldi	r20, 0x00	; 0
    3558:	52 e1       	ldi	r21, 0x12	; 18
    355a:	63 e1       	ldi	r22, 0x13	; 19
    355c:	ce 01       	movw	r24, r28
    355e:	08 dd       	rcall	.-1520   	; 0x2f70 <_ZN4UTFT18LCD_Write_COM_DATAEci>
    3560:	4a e0       	ldi	r20, 0x0A	; 10
    3562:	50 e0       	ldi	r21, 0x00	; 0
    3564:	69 e2       	ldi	r22, 0x29	; 41
    3566:	ce 01       	movw	r24, r28
    3568:	03 dd       	rcall	.-1530   	; 0x2f70 <_ZN4UTFT18LCD_Write_COM_DATAEci>
    356a:	4d e0       	ldi	r20, 0x0D	; 13
    356c:	50 e0       	ldi	r21, 0x00	; 0
    356e:	7d c0       	rjmp	.+250    	; 0x366a <_ZN4UTFT7InitLCDEh+0x45a>
    3570:	40 ef       	ldi	r20, 0xF0	; 240
    3572:	58 e7       	ldi	r21, 0x78	; 120
    3574:	65 ee       	ldi	r22, 0xE5	; 229
    3576:	ce 01       	movw	r24, r28
    3578:	fb dc       	rcall	.-1546   	; 0x2f70 <_ZN4UTFT18LCD_Write_COM_DATAEci>
    357a:	40 e0       	ldi	r20, 0x00	; 0
    357c:	51 e0       	ldi	r21, 0x01	; 1
    357e:	61 e0       	ldi	r22, 0x01	; 1
    3580:	ce 01       	movw	r24, r28
    3582:	f6 dc       	rcall	.-1556   	; 0x2f70 <_ZN4UTFT18LCD_Write_COM_DATAEci>
    3584:	40 e0       	ldi	r20, 0x00	; 0
    3586:	57 e0       	ldi	r21, 0x07	; 7
    3588:	62 e0       	ldi	r22, 0x02	; 2
    358a:	ce 01       	movw	r24, r28
    358c:	f1 dc       	rcall	.-1566   	; 0x2f70 <_ZN4UTFT18LCD_Write_COM_DATAEci>
    358e:	40 e3       	ldi	r20, 0x30	; 48
    3590:	50 e1       	ldi	r21, 0x10	; 16
    3592:	63 e0       	ldi	r22, 0x03	; 3
    3594:	ce 01       	movw	r24, r28
    3596:	ec dc       	rcall	.-1576   	; 0x2f70 <_ZN4UTFT18LCD_Write_COM_DATAEci>
    3598:	40 e0       	ldi	r20, 0x00	; 0
    359a:	50 e0       	ldi	r21, 0x00	; 0
    359c:	64 e0       	ldi	r22, 0x04	; 4
    359e:	ce 01       	movw	r24, r28
    35a0:	e7 dc       	rcall	.-1586   	; 0x2f70 <_ZN4UTFT18LCD_Write_COM_DATAEci>
    35a2:	47 e0       	ldi	r20, 0x07	; 7
    35a4:	52 e0       	ldi	r21, 0x02	; 2
    35a6:	68 e0       	ldi	r22, 0x08	; 8
    35a8:	ce 01       	movw	r24, r28
    35aa:	e2 dc       	rcall	.-1596   	; 0x2f70 <_ZN4UTFT18LCD_Write_COM_DATAEci>
    35ac:	40 e0       	ldi	r20, 0x00	; 0
    35ae:	50 e0       	ldi	r21, 0x00	; 0
    35b0:	69 e0       	ldi	r22, 0x09	; 9
    35b2:	ce 01       	movw	r24, r28
    35b4:	dd dc       	rcall	.-1606   	; 0x2f70 <_ZN4UTFT18LCD_Write_COM_DATAEci>
    35b6:	40 e0       	ldi	r20, 0x00	; 0
    35b8:	50 e0       	ldi	r21, 0x00	; 0
    35ba:	6a e0       	ldi	r22, 0x0A	; 10
    35bc:	ce 01       	movw	r24, r28
    35be:	d8 dc       	rcall	.-1616   	; 0x2f70 <_ZN4UTFT18LCD_Write_COM_DATAEci>
    35c0:	40 e0       	ldi	r20, 0x00	; 0
    35c2:	50 e0       	ldi	r21, 0x00	; 0
    35c4:	6c e0       	ldi	r22, 0x0C	; 12
    35c6:	ce 01       	movw	r24, r28
    35c8:	d3 dc       	rcall	.-1626   	; 0x2f70 <_ZN4UTFT18LCD_Write_COM_DATAEci>
    35ca:	40 e0       	ldi	r20, 0x00	; 0
    35cc:	50 e0       	ldi	r21, 0x00	; 0
    35ce:	6d e0       	ldi	r22, 0x0D	; 13
    35d0:	ce 01       	movw	r24, r28
    35d2:	ce dc       	rcall	.-1636   	; 0x2f70 <_ZN4UTFT18LCD_Write_COM_DATAEci>
    35d4:	40 e0       	ldi	r20, 0x00	; 0
    35d6:	50 e0       	ldi	r21, 0x00	; 0
    35d8:	6f e0       	ldi	r22, 0x0F	; 15
    35da:	ce 01       	movw	r24, r28
    35dc:	c9 dc       	rcall	.-1646   	; 0x2f70 <_ZN4UTFT18LCD_Write_COM_DATAEci>
    35de:	40 e0       	ldi	r20, 0x00	; 0
    35e0:	50 e0       	ldi	r21, 0x00	; 0
    35e2:	60 e1       	ldi	r22, 0x10	; 16
    35e4:	ce 01       	movw	r24, r28
    35e6:	c4 dc       	rcall	.-1656   	; 0x2f70 <_ZN4UTFT18LCD_Write_COM_DATAEci>
    35e8:	47 e0       	ldi	r20, 0x07	; 7
    35ea:	50 e0       	ldi	r21, 0x00	; 0
    35ec:	61 e1       	ldi	r22, 0x11	; 17
    35ee:	ce 01       	movw	r24, r28
    35f0:	bf dc       	rcall	.-1666   	; 0x2f70 <_ZN4UTFT18LCD_Write_COM_DATAEci>
    35f2:	40 e0       	ldi	r20, 0x00	; 0
    35f4:	50 e0       	ldi	r21, 0x00	; 0
    35f6:	62 e1       	ldi	r22, 0x12	; 18
    35f8:	ce 01       	movw	r24, r28
    35fa:	ba dc       	rcall	.-1676   	; 0x2f70 <_ZN4UTFT18LCD_Write_COM_DATAEci>
    35fc:	40 e0       	ldi	r20, 0x00	; 0
    35fe:	50 e0       	ldi	r21, 0x00	; 0
    3600:	63 e1       	ldi	r22, 0x13	; 19
    3602:	ce 01       	movw	r24, r28
    3604:	b5 dc       	rcall	.-1686   	; 0x2f70 <_ZN4UTFT18LCD_Write_COM_DATAEci>
    3606:	41 e0       	ldi	r20, 0x01	; 1
    3608:	50 e0       	ldi	r21, 0x00	; 0
    360a:	67 e0       	ldi	r22, 0x07	; 7
    360c:	ce 01       	movw	r24, r28
    360e:	b0 dc       	rcall	.-1696   	; 0x2f70 <_ZN4UTFT18LCD_Write_COM_DATAEci>
    3610:	68 ec       	ldi	r22, 0xC8	; 200
    3612:	70 e0       	ldi	r23, 0x00	; 0
    3614:	80 e0       	ldi	r24, 0x00	; 0
    3616:	90 e0       	ldi	r25, 0x00	; 0
    3618:	0e 94 a6 36 	call	0x6d4c	; 0x6d4c <delay>
    361c:	40 e9       	ldi	r20, 0x90	; 144
    361e:	55 e1       	ldi	r21, 0x15	; 21
    3620:	60 e1       	ldi	r22, 0x10	; 16
    3622:	ce 01       	movw	r24, r28
    3624:	a5 dc       	rcall	.-1718   	; 0x2f70 <_ZN4UTFT18LCD_Write_COM_DATAEci>
    3626:	47 e2       	ldi	r20, 0x27	; 39
    3628:	52 e0       	ldi	r21, 0x02	; 2
    362a:	61 e1       	ldi	r22, 0x11	; 17
    362c:	ce 01       	movw	r24, r28
    362e:	a0 dc       	rcall	.-1728   	; 0x2f70 <_ZN4UTFT18LCD_Write_COM_DATAEci>
    3630:	62 e3       	ldi	r22, 0x32	; 50
    3632:	70 e0       	ldi	r23, 0x00	; 0
    3634:	80 e0       	ldi	r24, 0x00	; 0
    3636:	90 e0       	ldi	r25, 0x00	; 0
    3638:	0e 94 a6 36 	call	0x6d4c	; 0x6d4c <delay>
    363c:	4c e9       	ldi	r20, 0x9C	; 156
    363e:	50 e0       	ldi	r21, 0x00	; 0
    3640:	62 e1       	ldi	r22, 0x12	; 18
    3642:	ce 01       	movw	r24, r28
    3644:	95 dc       	rcall	.-1750   	; 0x2f70 <_ZN4UTFT18LCD_Write_COM_DATAEci>
    3646:	62 e3       	ldi	r22, 0x32	; 50
    3648:	70 e0       	ldi	r23, 0x00	; 0
    364a:	80 e0       	ldi	r24, 0x00	; 0
    364c:	90 e0       	ldi	r25, 0x00	; 0
    364e:	0e 94 a6 36 	call	0x6d4c	; 0x6d4c <delay>
    3652:	40 e0       	ldi	r20, 0x00	; 0
    3654:	59 e1       	ldi	r21, 0x19	; 25
    3656:	63 e1       	ldi	r22, 0x13	; 19
    3658:	ce 01       	movw	r24, r28
    365a:	8a dc       	rcall	.-1772   	; 0x2f70 <_ZN4UTFT18LCD_Write_COM_DATAEci>
    365c:	43 e2       	ldi	r20, 0x23	; 35
    365e:	50 e0       	ldi	r21, 0x00	; 0
    3660:	69 e2       	ldi	r22, 0x29	; 41
    3662:	ce 01       	movw	r24, r28
    3664:	85 dc       	rcall	.-1782   	; 0x2f70 <_ZN4UTFT18LCD_Write_COM_DATAEci>
    3666:	4e e0       	ldi	r20, 0x0E	; 14
    3668:	50 e0       	ldi	r21, 0x00	; 0
    366a:	6b e2       	ldi	r22, 0x2B	; 43
    366c:	ce 01       	movw	r24, r28
    366e:	80 dc       	rcall	.-1792   	; 0x2f70 <_ZN4UTFT18LCD_Write_COM_DATAEci>
    3670:	62 e3       	ldi	r22, 0x32	; 50
    3672:	70 e0       	ldi	r23, 0x00	; 0
    3674:	80 e0       	ldi	r24, 0x00	; 0
    3676:	90 e0       	ldi	r25, 0x00	; 0
    3678:	0e 94 a6 36 	call	0x6d4c	; 0x6d4c <delay>
    367c:	40 e0       	ldi	r20, 0x00	; 0
    367e:	50 e0       	ldi	r21, 0x00	; 0
    3680:	60 e2       	ldi	r22, 0x20	; 32
    3682:	ce 01       	movw	r24, r28
    3684:	75 dc       	rcall	.-1814   	; 0x2f70 <_ZN4UTFT18LCD_Write_COM_DATAEci>
    3686:	40 e0       	ldi	r20, 0x00	; 0
    3688:	50 e0       	ldi	r21, 0x00	; 0
    368a:	61 e2       	ldi	r22, 0x21	; 33
    368c:	ce 01       	movw	r24, r28
    368e:	70 dc       	rcall	.-1824   	; 0x2f70 <_ZN4UTFT18LCD_Write_COM_DATAEci>
    3690:	40 e0       	ldi	r20, 0x00	; 0
    3692:	50 e0       	ldi	r21, 0x00	; 0
    3694:	60 e3       	ldi	r22, 0x30	; 48
    3696:	ce 01       	movw	r24, r28
    3698:	6b dc       	rcall	.-1834   	; 0x2f70 <_ZN4UTFT18LCD_Write_COM_DATAEci>
    369a:	44 e0       	ldi	r20, 0x04	; 4
    369c:	54 e0       	ldi	r21, 0x04	; 4
    369e:	61 e3       	ldi	r22, 0x31	; 49
    36a0:	ce 01       	movw	r24, r28
    36a2:	66 dc       	rcall	.-1844   	; 0x2f70 <_ZN4UTFT18LCD_Write_COM_DATAEci>
    36a4:	43 e0       	ldi	r20, 0x03	; 3
    36a6:	50 e0       	ldi	r21, 0x00	; 0
    36a8:	62 e3       	ldi	r22, 0x32	; 50
    36aa:	ce 01       	movw	r24, r28
    36ac:	61 dc       	rcall	.-1854   	; 0x2f70 <_ZN4UTFT18LCD_Write_COM_DATAEci>
    36ae:	45 e0       	ldi	r20, 0x05	; 5
    36b0:	54 e0       	ldi	r21, 0x04	; 4
    36b2:	65 e3       	ldi	r22, 0x35	; 53
    36b4:	ce 01       	movw	r24, r28
    36b6:	5c dc       	rcall	.-1864   	; 0x2f70 <_ZN4UTFT18LCD_Write_COM_DATAEci>
    36b8:	48 e0       	ldi	r20, 0x08	; 8
    36ba:	58 e0       	ldi	r21, 0x08	; 8
    36bc:	66 e3       	ldi	r22, 0x36	; 54
    36be:	ce 01       	movw	r24, r28
    36c0:	57 dc       	rcall	.-1874   	; 0x2f70 <_ZN4UTFT18LCD_Write_COM_DATAEci>
    36c2:	47 e0       	ldi	r20, 0x07	; 7
    36c4:	54 e0       	ldi	r21, 0x04	; 4
    36c6:	67 e3       	ldi	r22, 0x37	; 55
    36c8:	ce 01       	movw	r24, r28
    36ca:	52 dc       	rcall	.-1884   	; 0x2f70 <_ZN4UTFT18LCD_Write_COM_DATAEci>
    36cc:	43 e0       	ldi	r20, 0x03	; 3
    36ce:	53 e0       	ldi	r21, 0x03	; 3
    36d0:	68 e3       	ldi	r22, 0x38	; 56
    36d2:	ce 01       	movw	r24, r28
    36d4:	4d dc       	rcall	.-1894   	; 0x2f70 <_ZN4UTFT18LCD_Write_COM_DATAEci>
    36d6:	47 e0       	ldi	r20, 0x07	; 7
    36d8:	57 e0       	ldi	r21, 0x07	; 7
    36da:	69 e3       	ldi	r22, 0x39	; 57
    36dc:	ce 01       	movw	r24, r28
    36de:	48 dc       	rcall	.-1904   	; 0x2f70 <_ZN4UTFT18LCD_Write_COM_DATAEci>
    36e0:	44 e0       	ldi	r20, 0x04	; 4
    36e2:	55 e0       	ldi	r21, 0x05	; 5
    36e4:	6c e3       	ldi	r22, 0x3C	; 60
    36e6:	ce 01       	movw	r24, r28
    36e8:	43 dc       	rcall	.-1914   	; 0x2f70 <_ZN4UTFT18LCD_Write_COM_DATAEci>
    36ea:	48 e0       	ldi	r20, 0x08	; 8
    36ec:	58 e0       	ldi	r21, 0x08	; 8
    36ee:	6d e3       	ldi	r22, 0x3D	; 61
    36f0:	ce 01       	movw	r24, r28
    36f2:	3e dc       	rcall	.-1924   	; 0x2f70 <_ZN4UTFT18LCD_Write_COM_DATAEci>
    36f4:	40 e0       	ldi	r20, 0x00	; 0
    36f6:	50 e0       	ldi	r21, 0x00	; 0
    36f8:	60 e5       	ldi	r22, 0x50	; 80
    36fa:	ce 01       	movw	r24, r28
    36fc:	39 dc       	rcall	.-1934   	; 0x2f70 <_ZN4UTFT18LCD_Write_COM_DATAEci>
    36fe:	4f ee       	ldi	r20, 0xEF	; 239
    3700:	50 e0       	ldi	r21, 0x00	; 0
    3702:	61 e5       	ldi	r22, 0x51	; 81
    3704:	ce 01       	movw	r24, r28
    3706:	34 dc       	rcall	.-1944   	; 0x2f70 <_ZN4UTFT18LCD_Write_COM_DATAEci>
    3708:	40 e0       	ldi	r20, 0x00	; 0
    370a:	50 e0       	ldi	r21, 0x00	; 0
    370c:	62 e5       	ldi	r22, 0x52	; 82
    370e:	ce 01       	movw	r24, r28
    3710:	2f dc       	rcall	.-1954   	; 0x2f70 <_ZN4UTFT18LCD_Write_COM_DATAEci>
    3712:	4f e3       	ldi	r20, 0x3F	; 63
    3714:	51 e0       	ldi	r21, 0x01	; 1
    3716:	63 e5       	ldi	r22, 0x53	; 83
    3718:	ce 01       	movw	r24, r28
    371a:	2a dc       	rcall	.-1964   	; 0x2f70 <_ZN4UTFT18LCD_Write_COM_DATAEci>
    371c:	40 e0       	ldi	r20, 0x00	; 0
    371e:	57 ea       	ldi	r21, 0xA7	; 167
    3720:	60 e6       	ldi	r22, 0x60	; 96
    3722:	ce 01       	movw	r24, r28
    3724:	25 dc       	rcall	.-1974   	; 0x2f70 <_ZN4UTFT18LCD_Write_COM_DATAEci>
    3726:	41 e0       	ldi	r20, 0x01	; 1
    3728:	50 e0       	ldi	r21, 0x00	; 0
    372a:	61 e6       	ldi	r22, 0x61	; 97
    372c:	ce 01       	movw	r24, r28
    372e:	20 dc       	rcall	.-1984   	; 0x2f70 <_ZN4UTFT18LCD_Write_COM_DATAEci>
    3730:	40 e0       	ldi	r20, 0x00	; 0
    3732:	50 e0       	ldi	r21, 0x00	; 0
    3734:	6a e6       	ldi	r22, 0x6A	; 106
    3736:	ce 01       	movw	r24, r28
    3738:	1b dc       	rcall	.-1994   	; 0x2f70 <_ZN4UTFT18LCD_Write_COM_DATAEci>
    373a:	40 e0       	ldi	r20, 0x00	; 0
    373c:	50 e0       	ldi	r21, 0x00	; 0
    373e:	60 e8       	ldi	r22, 0x80	; 128
    3740:	ce 01       	movw	r24, r28
    3742:	16 dc       	rcall	.-2004   	; 0x2f70 <_ZN4UTFT18LCD_Write_COM_DATAEci>
    3744:	40 e0       	ldi	r20, 0x00	; 0
    3746:	50 e0       	ldi	r21, 0x00	; 0
    3748:	61 e8       	ldi	r22, 0x81	; 129
    374a:	ce 01       	movw	r24, r28
    374c:	11 dc       	rcall	.-2014   	; 0x2f70 <_ZN4UTFT18LCD_Write_COM_DATAEci>
    374e:	40 e0       	ldi	r20, 0x00	; 0
    3750:	50 e0       	ldi	r21, 0x00	; 0
    3752:	62 e8       	ldi	r22, 0x82	; 130
    3754:	ce 01       	movw	r24, r28
    3756:	0c dc       	rcall	.-2024   	; 0x2f70 <_ZN4UTFT18LCD_Write_COM_DATAEci>
    3758:	40 e0       	ldi	r20, 0x00	; 0
    375a:	50 e0       	ldi	r21, 0x00	; 0
    375c:	63 e8       	ldi	r22, 0x83	; 131
    375e:	ce 01       	movw	r24, r28
    3760:	07 dc       	rcall	.-2034   	; 0x2f70 <_ZN4UTFT18LCD_Write_COM_DATAEci>
    3762:	40 e0       	ldi	r20, 0x00	; 0
    3764:	50 e0       	ldi	r21, 0x00	; 0
    3766:	64 e8       	ldi	r22, 0x84	; 132
    3768:	ce 01       	movw	r24, r28
    376a:	02 dc       	rcall	.-2044   	; 0x2f70 <_ZN4UTFT18LCD_Write_COM_DATAEci>
    376c:	40 e0       	ldi	r20, 0x00	; 0
    376e:	50 e0       	ldi	r21, 0x00	; 0
    3770:	65 e8       	ldi	r22, 0x85	; 133
    3772:	ce 01       	movw	r24, r28
    3774:	fd db       	rcall	.-2054   	; 0x2f70 <_ZN4UTFT18LCD_Write_COM_DATAEci>
    3776:	40 e1       	ldi	r20, 0x10	; 16
    3778:	50 e0       	ldi	r21, 0x00	; 0
    377a:	60 e9       	ldi	r22, 0x90	; 144
    377c:	ce 01       	movw	r24, r28
    377e:	f8 db       	rcall	.-2064   	; 0x2f70 <_ZN4UTFT18LCD_Write_COM_DATAEci>
    3780:	40 e0       	ldi	r20, 0x00	; 0
    3782:	50 e0       	ldi	r21, 0x00	; 0
    3784:	62 e9       	ldi	r22, 0x92	; 146
    3786:	ce 01       	movw	r24, r28
    3788:	f3 db       	rcall	.-2074   	; 0x2f70 <_ZN4UTFT18LCD_Write_COM_DATAEci>
    378a:	43 e3       	ldi	r20, 0x33	; 51
    378c:	51 e0       	ldi	r21, 0x01	; 1
    378e:	67 e0       	ldi	r22, 0x07	; 7
    3790:	ce 01       	movw	r24, r28
    3792:	ee db       	rcall	.-2084   	; 0x2f70 <_ZN4UTFT18LCD_Write_COM_DATAEci>
    3794:	0c 94 db 2b 	jmp	0x57b6	; 0x57b6 <_ZN4UTFT7InitLCDEh+0x25a6>
    3798:	44 e8       	ldi	r20, 0x84	; 132
    379a:	50 e0       	ldi	r21, 0x00	; 0
    379c:	66 e2       	ldi	r22, 0x26	; 38
    379e:	ce 01       	movw	r24, r28
    37a0:	e7 db       	rcall	.-2098   	; 0x2f70 <_ZN4UTFT18LCD_Write_COM_DATAEci>
    37a2:	68 e2       	ldi	r22, 0x28	; 40
    37a4:	70 e0       	ldi	r23, 0x00	; 0
    37a6:	80 e0       	ldi	r24, 0x00	; 0
    37a8:	90 e0       	ldi	r25, 0x00	; 0
    37aa:	0e 94 a6 36 	call	0x6d4c	; 0x6d4c <delay>
    37ae:	48 eb       	ldi	r20, 0xB8	; 184
    37b0:	50 e0       	ldi	r21, 0x00	; 0
    37b2:	66 e2       	ldi	r22, 0x26	; 38
    37b4:	ce 01       	movw	r24, r28
    37b6:	dc db       	rcall	.-2120   	; 0x2f70 <_ZN4UTFT18LCD_Write_COM_DATAEci>
    37b8:	68 e2       	ldi	r22, 0x28	; 40
    37ba:	70 e0       	ldi	r23, 0x00	; 0
    37bc:	80 e0       	ldi	r24, 0x00	; 0
    37be:	90 e0       	ldi	r25, 0x00	; 0
    37c0:	0e 94 a6 36 	call	0x6d4c	; 0x6d4c <delay>
    37c4:	4c eb       	ldi	r20, 0xBC	; 188
    37c6:	50 e0       	ldi	r21, 0x00	; 0
    37c8:	66 e2       	ldi	r22, 0x26	; 38
    37ca:	ce 01       	movw	r24, r28
    37cc:	d1 db       	rcall	.-2142   	; 0x2f70 <_ZN4UTFT18LCD_Write_COM_DATAEci>
    37ce:	64 e1       	ldi	r22, 0x14	; 20
    37d0:	70 e0       	ldi	r23, 0x00	; 0
    37d2:	80 e0       	ldi	r24, 0x00	; 0
    37d4:	90 e0       	ldi	r25, 0x00	; 0
    37d6:	0e 94 a6 36 	call	0x6d4c	; 0x6d4c <delay>
    37da:	40 e0       	ldi	r20, 0x00	; 0
    37dc:	50 e0       	ldi	r21, 0x00	; 0
    37de:	60 e6       	ldi	r22, 0x60	; 96
    37e0:	ce 01       	movw	r24, r28
    37e2:	c6 db       	rcall	.-2164   	; 0x2f70 <_ZN4UTFT18LCD_Write_COM_DATAEci>
    37e4:	46 e0       	ldi	r20, 0x06	; 6
    37e6:	50 e0       	ldi	r21, 0x00	; 0
    37e8:	61 e6       	ldi	r22, 0x61	; 97
    37ea:	ce 01       	movw	r24, r28
    37ec:	c1 db       	rcall	.-2174   	; 0x2f70 <_ZN4UTFT18LCD_Write_COM_DATAEci>
    37ee:	40 e0       	ldi	r20, 0x00	; 0
    37f0:	50 e0       	ldi	r21, 0x00	; 0
    37f2:	62 e6       	ldi	r22, 0x62	; 98
    37f4:	ce 01       	movw	r24, r28
    37f6:	bc db       	rcall	.-2184   	; 0x2f70 <_ZN4UTFT18LCD_Write_COM_DATAEci>
    37f8:	48 ec       	ldi	r20, 0xC8	; 200
    37fa:	50 e0       	ldi	r21, 0x00	; 0
    37fc:	63 e6       	ldi	r22, 0x63	; 99
    37fe:	ce 01       	movw	r24, r28
    3800:	b7 db       	rcall	.-2194   	; 0x2f70 <_ZN4UTFT18LCD_Write_COM_DATAEci>
    3802:	64 e1       	ldi	r22, 0x14	; 20
    3804:	70 e0       	ldi	r23, 0x00	; 0
    3806:	80 e0       	ldi	r24, 0x00	; 0
    3808:	90 e0       	ldi	r25, 0x00	; 0
    380a:	0e 94 a6 36 	call	0x6d4c	; 0x6d4c <delay>
    380e:	40 e7       	ldi	r20, 0x70	; 112
    3810:	50 e0       	ldi	r21, 0x00	; 0
    3812:	63 e7       	ldi	r22, 0x73	; 115
    3814:	ce 01       	movw	r24, r28
    3816:	ac db       	rcall	.-2216   	; 0x2f70 <_ZN4UTFT18LCD_Write_COM_DATAEci>
    3818:	40 e0       	ldi	r20, 0x00	; 0
    381a:	50 e0       	ldi	r21, 0x00	; 0
    381c:	60 e4       	ldi	r22, 0x40	; 64
    381e:	ce 01       	movw	r24, r28
    3820:	a7 db       	rcall	.-2226   	; 0x2f70 <_ZN4UTFT18LCD_Write_COM_DATAEci>
    3822:	40 e4       	ldi	r20, 0x40	; 64
    3824:	50 e0       	ldi	r21, 0x00	; 0
    3826:	61 e4       	ldi	r22, 0x41	; 65
    3828:	ce 01       	movw	r24, r28
    382a:	a2 db       	rcall	.-2236   	; 0x2f70 <_ZN4UTFT18LCD_Write_COM_DATAEci>
    382c:	45 e4       	ldi	r20, 0x45	; 69
    382e:	50 e0       	ldi	r21, 0x00	; 0
    3830:	62 e4       	ldi	r22, 0x42	; 66
    3832:	ce 01       	movw	r24, r28
    3834:	9d db       	rcall	.-2246   	; 0x2f70 <_ZN4UTFT18LCD_Write_COM_DATAEci>
    3836:	41 e0       	ldi	r20, 0x01	; 1
    3838:	50 e0       	ldi	r21, 0x00	; 0
    383a:	63 e4       	ldi	r22, 0x43	; 67
    383c:	ce 01       	movw	r24, r28
    383e:	98 db       	rcall	.-2256   	; 0x2f70 <_ZN4UTFT18LCD_Write_COM_DATAEci>
    3840:	40 e6       	ldi	r20, 0x60	; 96
    3842:	50 e0       	ldi	r21, 0x00	; 0
    3844:	64 e4       	ldi	r22, 0x44	; 68
    3846:	ce 01       	movw	r24, r28
    3848:	93 db       	rcall	.-2266   	; 0x2f70 <_ZN4UTFT18LCD_Write_COM_DATAEci>
    384a:	45 e0       	ldi	r20, 0x05	; 5
    384c:	50 e0       	ldi	r21, 0x00	; 0
    384e:	65 e4       	ldi	r22, 0x45	; 69
    3850:	ce 01       	movw	r24, r28
    3852:	8e db       	rcall	.-2276   	; 0x2f70 <_ZN4UTFT18LCD_Write_COM_DATAEci>
    3854:	4c e0       	ldi	r20, 0x0C	; 12
    3856:	50 e0       	ldi	r21, 0x00	; 0
    3858:	66 e4       	ldi	r22, 0x46	; 70
    385a:	ce 01       	movw	r24, r28
    385c:	89 db       	rcall	.-2286   	; 0x2f70 <_ZN4UTFT18LCD_Write_COM_DATAEci>
    385e:	41 ed       	ldi	r20, 0xD1	; 209
    3860:	50 e0       	ldi	r21, 0x00	; 0
    3862:	67 e4       	ldi	r22, 0x47	; 71
    3864:	ce 01       	movw	r24, r28
    3866:	84 db       	rcall	.-2296   	; 0x2f70 <_ZN4UTFT18LCD_Write_COM_DATAEci>
    3868:	45 e0       	ldi	r20, 0x05	; 5
    386a:	50 e0       	ldi	r21, 0x00	; 0
    386c:	68 e4       	ldi	r22, 0x48	; 72
    386e:	ce 01       	movw	r24, r28
    3870:	7f db       	rcall	.-2306   	; 0x2f70 <_ZN4UTFT18LCD_Write_COM_DATAEci>
    3872:	45 e7       	ldi	r20, 0x75	; 117
    3874:	50 e0       	ldi	r21, 0x00	; 0
    3876:	60 e5       	ldi	r22, 0x50	; 80
    3878:	ce 01       	movw	r24, r28
    387a:	7a db       	rcall	.-2316   	; 0x2f70 <_ZN4UTFT18LCD_Write_COM_DATAEci>
    387c:	41 e0       	ldi	r20, 0x01	; 1
    387e:	50 e0       	ldi	r21, 0x00	; 0
    3880:	61 e5       	ldi	r22, 0x51	; 81
    3882:	ce 01       	movw	r24, r28
    3884:	75 db       	rcall	.-2326   	; 0x2f70 <_ZN4UTFT18LCD_Write_COM_DATAEci>
    3886:	47 e6       	ldi	r20, 0x67	; 103
    3888:	50 e0       	ldi	r21, 0x00	; 0
    388a:	62 e5       	ldi	r22, 0x52	; 82
    388c:	ce 01       	movw	r24, r28
    388e:	70 db       	rcall	.-2336   	; 0x2f70 <_ZN4UTFT18LCD_Write_COM_DATAEci>
    3890:	44 e1       	ldi	r20, 0x14	; 20
    3892:	50 e0       	ldi	r21, 0x00	; 0
    3894:	63 e5       	ldi	r22, 0x53	; 83
    3896:	ce 01       	movw	r24, r28
    3898:	6b db       	rcall	.-2346   	; 0x2f70 <_ZN4UTFT18LCD_Write_COM_DATAEci>
    389a:	42 ef       	ldi	r20, 0xF2	; 242
    389c:	50 e0       	ldi	r21, 0x00	; 0
    389e:	64 e5       	ldi	r22, 0x54	; 84
    38a0:	ce 01       	movw	r24, r28
    38a2:	66 db       	rcall	.-2356   	; 0x2f70 <_ZN4UTFT18LCD_Write_COM_DATAEci>
    38a4:	47 e0       	ldi	r20, 0x07	; 7
    38a6:	50 e0       	ldi	r21, 0x00	; 0
    38a8:	65 e5       	ldi	r22, 0x55	; 85
    38aa:	ce 01       	movw	r24, r28
    38ac:	61 db       	rcall	.-2366   	; 0x2f70 <_ZN4UTFT18LCD_Write_COM_DATAEci>
    38ae:	43 e0       	ldi	r20, 0x03	; 3
    38b0:	50 e0       	ldi	r21, 0x00	; 0
    38b2:	66 e5       	ldi	r22, 0x56	; 86
    38b4:	ce 01       	movw	r24, r28
    38b6:	5c db       	rcall	.-2376   	; 0x2f70 <_ZN4UTFT18LCD_Write_COM_DATAEci>
    38b8:	49 e4       	ldi	r20, 0x49	; 73
    38ba:	50 e0       	ldi	r21, 0x00	; 0
    38bc:	67 e5       	ldi	r22, 0x57	; 87
    38be:	ce 01       	movw	r24, r28
    38c0:	57 db       	rcall	.-2386   	; 0x2f70 <_ZN4UTFT18LCD_Write_COM_DATAEci>
    38c2:	64 e1       	ldi	r22, 0x14	; 20
    38c4:	70 e0       	ldi	r23, 0x00	; 0
    38c6:	80 e0       	ldi	r24, 0x00	; 0
    38c8:	90 e0       	ldi	r25, 0x00	; 0
    38ca:	0e 94 a6 36 	call	0x6d4c	; 0x6d4c <delay>
    38ce:	43 e0       	ldi	r20, 0x03	; 3
    38d0:	50 e0       	ldi	r21, 0x00	; 0
    38d2:	6f e1       	ldi	r22, 0x1F	; 31
    38d4:	ce 01       	movw	r24, r28
    38d6:	4c db       	rcall	.-2408   	; 0x2f70 <_ZN4UTFT18LCD_Write_COM_DATAEci>
    38d8:	40 e0       	ldi	r20, 0x00	; 0
    38da:	50 e0       	ldi	r21, 0x00	; 0
    38dc:	60 e2       	ldi	r22, 0x20	; 32
    38de:	ce 01       	movw	r24, r28
    38e0:	47 db       	rcall	.-2418   	; 0x2f70 <_ZN4UTFT18LCD_Write_COM_DATAEci>
    38e2:	44 e2       	ldi	r20, 0x24	; 36
    38e4:	50 e0       	ldi	r21, 0x00	; 0
    38e6:	64 e2       	ldi	r22, 0x24	; 36
    38e8:	ce 01       	movw	r24, r28
    38ea:	42 db       	rcall	.-2428   	; 0x2f70 <_ZN4UTFT18LCD_Write_COM_DATAEci>
    38ec:	44 e3       	ldi	r20, 0x34	; 52
    38ee:	50 e0       	ldi	r21, 0x00	; 0
    38f0:	65 e2       	ldi	r22, 0x25	; 37
    38f2:	ce 01       	movw	r24, r28
    38f4:	3d db       	rcall	.-2438   	; 0x2f70 <_ZN4UTFT18LCD_Write_COM_DATAEci>
    38f6:	4f e2       	ldi	r20, 0x2F	; 47
    38f8:	50 e0       	ldi	r21, 0x00	; 0
    38fa:	63 e2       	ldi	r22, 0x23	; 35
    38fc:	ce 01       	movw	r24, r28
    38fe:	38 db       	rcall	.-2448   	; 0x2f70 <_ZN4UTFT18LCD_Write_COM_DATAEci>
    3900:	64 e1       	ldi	r22, 0x14	; 20
    3902:	70 e0       	ldi	r23, 0x00	; 0
    3904:	80 e0       	ldi	r24, 0x00	; 0
    3906:	90 e0       	ldi	r25, 0x00	; 0
    3908:	0e 94 a6 36 	call	0x6d4c	; 0x6d4c <delay>
    390c:	44 e4       	ldi	r20, 0x44	; 68
    390e:	50 e0       	ldi	r21, 0x00	; 0
    3910:	68 e1       	ldi	r22, 0x18	; 24
    3912:	ce 01       	movw	r24, r28
    3914:	2d db       	rcall	.-2470   	; 0x2f70 <_ZN4UTFT18LCD_Write_COM_DATAEci>
    3916:	41 e0       	ldi	r20, 0x01	; 1
    3918:	50 e0       	ldi	r21, 0x00	; 0
    391a:	61 e2       	ldi	r22, 0x21	; 33
    391c:	ce 01       	movw	r24, r28
    391e:	28 db       	rcall	.-2480   	; 0x2f70 <_ZN4UTFT18LCD_Write_COM_DATAEci>
    3920:	40 e0       	ldi	r20, 0x00	; 0
    3922:	50 e0       	ldi	r21, 0x00	; 0
    3924:	61 e0       	ldi	r22, 0x01	; 1
    3926:	ce 01       	movw	r24, r28
    3928:	23 db       	rcall	.-2490   	; 0x2f70 <_ZN4UTFT18LCD_Write_COM_DATAEci>
    392a:	43 e0       	ldi	r20, 0x03	; 3
    392c:	50 e0       	ldi	r21, 0x00	; 0
    392e:	6c e1       	ldi	r22, 0x1C	; 28
    3930:	ce 01       	movw	r24, r28
    3932:	1e db       	rcall	.-2500   	; 0x2f70 <_ZN4UTFT18LCD_Write_COM_DATAEci>
    3934:	46 e0       	ldi	r20, 0x06	; 6
    3936:	50 e0       	ldi	r21, 0x00	; 0
    3938:	69 e1       	ldi	r22, 0x19	; 25
    393a:	ce 01       	movw	r24, r28
    393c:	19 db       	rcall	.-2510   	; 0x2f70 <_ZN4UTFT18LCD_Write_COM_DATAEci>
    393e:	64 e1       	ldi	r22, 0x14	; 20
    3940:	70 e0       	ldi	r23, 0x00	; 0
    3942:	80 e0       	ldi	r24, 0x00	; 0
    3944:	90 e0       	ldi	r25, 0x00	; 0
    3946:	0e 94 a6 36 	call	0x6d4c	; 0x6d4c <delay>
    394a:	44 e8       	ldi	r20, 0x84	; 132
    394c:	50 e0       	ldi	r21, 0x00	; 0
    394e:	66 e2       	ldi	r22, 0x26	; 38
    3950:	ce 01       	movw	r24, r28
    3952:	0e db       	rcall	.-2532   	; 0x2f70 <_ZN4UTFT18LCD_Write_COM_DATAEci>
    3954:	68 e2       	ldi	r22, 0x28	; 40
    3956:	70 e0       	ldi	r23, 0x00	; 0
    3958:	80 e0       	ldi	r24, 0x00	; 0
    395a:	90 e0       	ldi	r25, 0x00	; 0
    395c:	0e 94 a6 36 	call	0x6d4c	; 0x6d4c <delay>
    3960:	48 eb       	ldi	r20, 0xB8	; 184
    3962:	50 e0       	ldi	r21, 0x00	; 0
    3964:	66 e2       	ldi	r22, 0x26	; 38
    3966:	ce 01       	movw	r24, r28
    3968:	03 db       	rcall	.-2554   	; 0x2f70 <_ZN4UTFT18LCD_Write_COM_DATAEci>
    396a:	68 e2       	ldi	r22, 0x28	; 40
    396c:	70 e0       	ldi	r23, 0x00	; 0
    396e:	80 e0       	ldi	r24, 0x00	; 0
    3970:	90 e0       	ldi	r25, 0x00	; 0
    3972:	0e 94 a6 36 	call	0x6d4c	; 0x6d4c <delay>
    3976:	4c eb       	ldi	r20, 0xBC	; 188
    3978:	50 e0       	ldi	r21, 0x00	; 0
    397a:	66 e2       	ldi	r22, 0x26	; 38
    397c:	ce 01       	movw	r24, r28
    397e:	f8 da       	rcall	.-2576   	; 0x2f70 <_ZN4UTFT18LCD_Write_COM_DATAEci>
    3980:	64 e1       	ldi	r22, 0x14	; 20
    3982:	70 e0       	ldi	r23, 0x00	; 0
    3984:	80 e0       	ldi	r24, 0x00	; 0
    3986:	90 e0       	ldi	r25, 0x00	; 0
    3988:	0e 94 a6 36 	call	0x6d4c	; 0x6d4c <delay>
    398c:	40 e0       	ldi	r20, 0x00	; 0
    398e:	50 e0       	ldi	r21, 0x00	; 0
    3990:	62 e0       	ldi	r22, 0x02	; 2
    3992:	ce 01       	movw	r24, r28
    3994:	ed da       	rcall	.-2598   	; 0x2f70 <_ZN4UTFT18LCD_Write_COM_DATAEci>
    3996:	40 e0       	ldi	r20, 0x00	; 0
    3998:	50 e0       	ldi	r21, 0x00	; 0
    399a:	63 e0       	ldi	r22, 0x03	; 3
    399c:	ce 01       	movw	r24, r28
    399e:	e8 da       	rcall	.-2608   	; 0x2f70 <_ZN4UTFT18LCD_Write_COM_DATAEci>
    39a0:	40 e0       	ldi	r20, 0x00	; 0
    39a2:	50 e0       	ldi	r21, 0x00	; 0
    39a4:	64 e0       	ldi	r22, 0x04	; 4
    39a6:	ce 01       	movw	r24, r28
    39a8:	e3 da       	rcall	.-2618   	; 0x2f70 <_ZN4UTFT18LCD_Write_COM_DATAEci>
    39aa:	4f ea       	ldi	r20, 0xAF	; 175
    39ac:	50 e0       	ldi	r21, 0x00	; 0
    39ae:	65 e0       	ldi	r22, 0x05	; 5
    39b0:	ce 01       	movw	r24, r28
    39b2:	de da       	rcall	.-2628   	; 0x2f70 <_ZN4UTFT18LCD_Write_COM_DATAEci>
    39b4:	40 e0       	ldi	r20, 0x00	; 0
    39b6:	50 e0       	ldi	r21, 0x00	; 0
    39b8:	66 e0       	ldi	r22, 0x06	; 6
    39ba:	ce 01       	movw	r24, r28
    39bc:	d9 da       	rcall	.-2638   	; 0x2f70 <_ZN4UTFT18LCD_Write_COM_DATAEci>
    39be:	40 e0       	ldi	r20, 0x00	; 0
    39c0:	50 e0       	ldi	r21, 0x00	; 0
    39c2:	67 e0       	ldi	r22, 0x07	; 7
    39c4:	ce 01       	movw	r24, r28
    39c6:	d4 da       	rcall	.-2648   	; 0x2f70 <_ZN4UTFT18LCD_Write_COM_DATAEci>
    39c8:	40 e0       	ldi	r20, 0x00	; 0
    39ca:	50 e0       	ldi	r21, 0x00	; 0
    39cc:	68 e0       	ldi	r22, 0x08	; 8
    39ce:	ce 01       	movw	r24, r28
    39d0:	cf da       	rcall	.-2658   	; 0x2f70 <_ZN4UTFT18LCD_Write_COM_DATAEci>
    39d2:	4b ed       	ldi	r20, 0xDB	; 219
    39d4:	50 e0       	ldi	r21, 0x00	; 0
    39d6:	69 e0       	ldi	r22, 0x09	; 9
    39d8:	ce 01       	movw	r24, r28
    39da:	ca da       	rcall	.-2668   	; 0x2f70 <_ZN4UTFT18LCD_Write_COM_DATAEci>
    39dc:	64 e1       	ldi	r22, 0x14	; 20
    39de:	70 e0       	ldi	r23, 0x00	; 0
    39e0:	80 e0       	ldi	r24, 0x00	; 0
    39e2:	90 e0       	ldi	r25, 0x00	; 0
    39e4:	0e 94 a6 36 	call	0x6d4c	; 0x6d4c <delay>
    39e8:	48 e0       	ldi	r20, 0x08	; 8
    39ea:	50 e0       	ldi	r21, 0x00	; 0
    39ec:	66 e1       	ldi	r22, 0x16	; 22
    39ee:	ce 01       	movw	r24, r28
    39f0:	bf da       	rcall	.-2690   	; 0x2f70 <_ZN4UTFT18LCD_Write_COM_DATAEci>
    39f2:	45 e0       	ldi	r20, 0x05	; 5
    39f4:	50 e0       	ldi	r21, 0x00	; 0
    39f6:	67 e1       	ldi	r22, 0x17	; 23
    39f8:	ce 01       	movw	r24, r28
    39fa:	ba da       	rcall	.-2700   	; 0x2f70 <_ZN4UTFT18LCD_Write_COM_DATAEci>
    39fc:	61 e2       	ldi	r22, 0x21	; 33
    39fe:	ce 01       	movw	r24, r28
    3a00:	63 da       	rcall	.-2874   	; 0x2ec8 <_ZN4UTFT13LCD_Write_COMEc>
    3a02:	62 e2       	ldi	r22, 0x22	; 34
    3a04:	ce 01       	movw	r24, r28
    3a06:	60 da       	rcall	.-2880   	; 0x2ec8 <_ZN4UTFT13LCD_Write_COMEc>
    3a08:	0c 94 db 2b 	jmp	0x57b6	; 0x57b6 <_ZN4UTFT7InitLCDEh+0x25a6>
    3a0c:	61 e1       	ldi	r22, 0x11	; 17
    3a0e:	ce 01       	movw	r24, r28
    3a10:	5b da       	rcall	.-2890   	; 0x2ec8 <_ZN4UTFT13LCD_Write_COMEc>
    3a12:	6c e0       	ldi	r22, 0x0C	; 12
    3a14:	70 e0       	ldi	r23, 0x00	; 0
    3a16:	80 e0       	ldi	r24, 0x00	; 0
    3a18:	90 e0       	ldi	r25, 0x00	; 0
    3a1a:	0e 94 a6 36 	call	0x6d4c	; 0x6d4c <delay>
    3a1e:	61 eb       	ldi	r22, 0xB1	; 177
    3a20:	ce 01       	movw	r24, r28
    3a22:	52 da       	rcall	.-2908   	; 0x2ec8 <_ZN4UTFT13LCD_Write_COMEc>
    3a24:	61 e0       	ldi	r22, 0x01	; 1
    3a26:	ce 01       	movw	r24, r28
    3a28:	8b da       	rcall	.-2794   	; 0x2f40 <_ZN4UTFT14LCD_Write_DATAEc>
    3a2a:	6c e2       	ldi	r22, 0x2C	; 44
    3a2c:	ce 01       	movw	r24, r28
    3a2e:	88 da       	rcall	.-2800   	; 0x2f40 <_ZN4UTFT14LCD_Write_DATAEc>
    3a30:	6d e2       	ldi	r22, 0x2D	; 45
    3a32:	ce 01       	movw	r24, r28
    3a34:	85 da       	rcall	.-2806   	; 0x2f40 <_ZN4UTFT14LCD_Write_DATAEc>
    3a36:	62 eb       	ldi	r22, 0xB2	; 178
    3a38:	ce 01       	movw	r24, r28
    3a3a:	46 da       	rcall	.-2932   	; 0x2ec8 <_ZN4UTFT13LCD_Write_COMEc>
    3a3c:	61 e0       	ldi	r22, 0x01	; 1
    3a3e:	ce 01       	movw	r24, r28
    3a40:	7f da       	rcall	.-2818   	; 0x2f40 <_ZN4UTFT14LCD_Write_DATAEc>
    3a42:	6c e2       	ldi	r22, 0x2C	; 44
    3a44:	ce 01       	movw	r24, r28
    3a46:	7c da       	rcall	.-2824   	; 0x2f40 <_ZN4UTFT14LCD_Write_DATAEc>
    3a48:	6d e2       	ldi	r22, 0x2D	; 45
    3a4a:	ce 01       	movw	r24, r28
    3a4c:	79 da       	rcall	.-2830   	; 0x2f40 <_ZN4UTFT14LCD_Write_DATAEc>
    3a4e:	63 eb       	ldi	r22, 0xB3	; 179
    3a50:	ce 01       	movw	r24, r28
    3a52:	3a da       	rcall	.-2956   	; 0x2ec8 <_ZN4UTFT13LCD_Write_COMEc>
    3a54:	61 e0       	ldi	r22, 0x01	; 1
    3a56:	ce 01       	movw	r24, r28
    3a58:	73 da       	rcall	.-2842   	; 0x2f40 <_ZN4UTFT14LCD_Write_DATAEc>
    3a5a:	6c e2       	ldi	r22, 0x2C	; 44
    3a5c:	ce 01       	movw	r24, r28
    3a5e:	70 da       	rcall	.-2848   	; 0x2f40 <_ZN4UTFT14LCD_Write_DATAEc>
    3a60:	6d e2       	ldi	r22, 0x2D	; 45
    3a62:	ce 01       	movw	r24, r28
    3a64:	6d da       	rcall	.-2854   	; 0x2f40 <_ZN4UTFT14LCD_Write_DATAEc>
    3a66:	61 e0       	ldi	r22, 0x01	; 1
    3a68:	ce 01       	movw	r24, r28
    3a6a:	6a da       	rcall	.-2860   	; 0x2f40 <_ZN4UTFT14LCD_Write_DATAEc>
    3a6c:	6c e2       	ldi	r22, 0x2C	; 44
    3a6e:	ce 01       	movw	r24, r28
    3a70:	67 da       	rcall	.-2866   	; 0x2f40 <_ZN4UTFT14LCD_Write_DATAEc>
    3a72:	6d e2       	ldi	r22, 0x2D	; 45
    3a74:	ce 01       	movw	r24, r28
    3a76:	64 da       	rcall	.-2872   	; 0x2f40 <_ZN4UTFT14LCD_Write_DATAEc>
    3a78:	64 eb       	ldi	r22, 0xB4	; 180
    3a7a:	ce 01       	movw	r24, r28
    3a7c:	25 da       	rcall	.-2998   	; 0x2ec8 <_ZN4UTFT13LCD_Write_COMEc>
    3a7e:	67 e0       	ldi	r22, 0x07	; 7
    3a80:	ce 01       	movw	r24, r28
    3a82:	5e da       	rcall	.-2884   	; 0x2f40 <_ZN4UTFT14LCD_Write_DATAEc>
    3a84:	60 ec       	ldi	r22, 0xC0	; 192
    3a86:	ce 01       	movw	r24, r28
    3a88:	1f da       	rcall	.-3010   	; 0x2ec8 <_ZN4UTFT13LCD_Write_COMEc>
    3a8a:	62 ea       	ldi	r22, 0xA2	; 162
    3a8c:	ce 01       	movw	r24, r28
    3a8e:	58 da       	rcall	.-2896   	; 0x2f40 <_ZN4UTFT14LCD_Write_DATAEc>
    3a90:	62 e0       	ldi	r22, 0x02	; 2
    3a92:	ce 01       	movw	r24, r28
    3a94:	55 da       	rcall	.-2902   	; 0x2f40 <_ZN4UTFT14LCD_Write_DATAEc>
    3a96:	64 e8       	ldi	r22, 0x84	; 132
    3a98:	ce 01       	movw	r24, r28
    3a9a:	52 da       	rcall	.-2908   	; 0x2f40 <_ZN4UTFT14LCD_Write_DATAEc>
    3a9c:	61 ec       	ldi	r22, 0xC1	; 193
    3a9e:	ce 01       	movw	r24, r28
    3aa0:	13 da       	rcall	.-3034   	; 0x2ec8 <_ZN4UTFT13LCD_Write_COMEc>
    3aa2:	65 ec       	ldi	r22, 0xC5	; 197
    3aa4:	ce 01       	movw	r24, r28
    3aa6:	4c da       	rcall	.-2920   	; 0x2f40 <_ZN4UTFT14LCD_Write_DATAEc>
    3aa8:	62 ec       	ldi	r22, 0xC2	; 194
    3aaa:	ce 01       	movw	r24, r28
    3aac:	0d da       	rcall	.-3046   	; 0x2ec8 <_ZN4UTFT13LCD_Write_COMEc>
    3aae:	6a e0       	ldi	r22, 0x0A	; 10
    3ab0:	ce 01       	movw	r24, r28
    3ab2:	46 da       	rcall	.-2932   	; 0x2f40 <_ZN4UTFT14LCD_Write_DATAEc>
    3ab4:	60 e0       	ldi	r22, 0x00	; 0
    3ab6:	ce 01       	movw	r24, r28
    3ab8:	43 da       	rcall	.-2938   	; 0x2f40 <_ZN4UTFT14LCD_Write_DATAEc>
    3aba:	63 ec       	ldi	r22, 0xC3	; 195
    3abc:	ce 01       	movw	r24, r28
    3abe:	04 da       	rcall	.-3064   	; 0x2ec8 <_ZN4UTFT13LCD_Write_COMEc>
    3ac0:	6a e8       	ldi	r22, 0x8A	; 138
    3ac2:	ce 01       	movw	r24, r28
    3ac4:	3d da       	rcall	.-2950   	; 0x2f40 <_ZN4UTFT14LCD_Write_DATAEc>
    3ac6:	6a e2       	ldi	r22, 0x2A	; 42
    3ac8:	ce 01       	movw	r24, r28
    3aca:	3a da       	rcall	.-2956   	; 0x2f40 <_ZN4UTFT14LCD_Write_DATAEc>
    3acc:	64 ec       	ldi	r22, 0xC4	; 196
    3ace:	ce 01       	movw	r24, r28
    3ad0:	fb d9       	rcall	.-3082   	; 0x2ec8 <_ZN4UTFT13LCD_Write_COMEc>
    3ad2:	6a e8       	ldi	r22, 0x8A	; 138
    3ad4:	ce 01       	movw	r24, r28
    3ad6:	34 da       	rcall	.-2968   	; 0x2f40 <_ZN4UTFT14LCD_Write_DATAEc>
    3ad8:	6e ee       	ldi	r22, 0xEE	; 238
    3ada:	ce 01       	movw	r24, r28
    3adc:	31 da       	rcall	.-2974   	; 0x2f40 <_ZN4UTFT14LCD_Write_DATAEc>
    3ade:	65 ec       	ldi	r22, 0xC5	; 197
    3ae0:	ce 01       	movw	r24, r28
    3ae2:	f2 d9       	rcall	.-3100   	; 0x2ec8 <_ZN4UTFT13LCD_Write_COMEc>
    3ae4:	6e e0       	ldi	r22, 0x0E	; 14
    3ae6:	ce 01       	movw	r24, r28
    3ae8:	2b da       	rcall	.-2986   	; 0x2f40 <_ZN4UTFT14LCD_Write_DATAEc>
    3aea:	66 e3       	ldi	r22, 0x36	; 54
    3aec:	ce 01       	movw	r24, r28
    3aee:	ec d9       	rcall	.-3112   	; 0x2ec8 <_ZN4UTFT13LCD_Write_COMEc>
    3af0:	68 ec       	ldi	r22, 0xC8	; 200
    3af2:	73 c0       	rjmp	.+230    	; 0x3bda <_ZN4UTFT7InitLCDEh+0x9ca>
    3af4:	61 e1       	ldi	r22, 0x11	; 17
    3af6:	ce 01       	movw	r24, r28
    3af8:	e7 d9       	rcall	.-3122   	; 0x2ec8 <_ZN4UTFT13LCD_Write_COMEc>
    3afa:	6c e0       	ldi	r22, 0x0C	; 12
    3afc:	70 e0       	ldi	r23, 0x00	; 0
    3afe:	80 e0       	ldi	r24, 0x00	; 0
    3b00:	90 e0       	ldi	r25, 0x00	; 0
    3b02:	0e 94 a6 36 	call	0x6d4c	; 0x6d4c <delay>
    3b06:	61 eb       	ldi	r22, 0xB1	; 177
    3b08:	ce 01       	movw	r24, r28
    3b0a:	de d9       	rcall	.-3140   	; 0x2ec8 <_ZN4UTFT13LCD_Write_COMEc>
    3b0c:	61 e0       	ldi	r22, 0x01	; 1
    3b0e:	ce 01       	movw	r24, r28
    3b10:	17 da       	rcall	.-3026   	; 0x2f40 <_ZN4UTFT14LCD_Write_DATAEc>
    3b12:	6c e2       	ldi	r22, 0x2C	; 44
    3b14:	ce 01       	movw	r24, r28
    3b16:	14 da       	rcall	.-3032   	; 0x2f40 <_ZN4UTFT14LCD_Write_DATAEc>
    3b18:	6d e2       	ldi	r22, 0x2D	; 45
    3b1a:	ce 01       	movw	r24, r28
    3b1c:	11 da       	rcall	.-3038   	; 0x2f40 <_ZN4UTFT14LCD_Write_DATAEc>
    3b1e:	62 eb       	ldi	r22, 0xB2	; 178
    3b20:	ce 01       	movw	r24, r28
    3b22:	d2 d9       	rcall	.-3164   	; 0x2ec8 <_ZN4UTFT13LCD_Write_COMEc>
    3b24:	61 e0       	ldi	r22, 0x01	; 1
    3b26:	ce 01       	movw	r24, r28
    3b28:	0b da       	rcall	.-3050   	; 0x2f40 <_ZN4UTFT14LCD_Write_DATAEc>
    3b2a:	6c e2       	ldi	r22, 0x2C	; 44
    3b2c:	ce 01       	movw	r24, r28
    3b2e:	08 da       	rcall	.-3056   	; 0x2f40 <_ZN4UTFT14LCD_Write_DATAEc>
    3b30:	6d e2       	ldi	r22, 0x2D	; 45
    3b32:	ce 01       	movw	r24, r28
    3b34:	05 da       	rcall	.-3062   	; 0x2f40 <_ZN4UTFT14LCD_Write_DATAEc>
    3b36:	63 eb       	ldi	r22, 0xB3	; 179
    3b38:	ce 01       	movw	r24, r28
    3b3a:	c6 d9       	rcall	.-3188   	; 0x2ec8 <_ZN4UTFT13LCD_Write_COMEc>
    3b3c:	61 e0       	ldi	r22, 0x01	; 1
    3b3e:	ce 01       	movw	r24, r28
    3b40:	ff d9       	rcall	.-3074   	; 0x2f40 <_ZN4UTFT14LCD_Write_DATAEc>
    3b42:	6c e2       	ldi	r22, 0x2C	; 44
    3b44:	ce 01       	movw	r24, r28
    3b46:	fc d9       	rcall	.-3080   	; 0x2f40 <_ZN4UTFT14LCD_Write_DATAEc>
    3b48:	6d e2       	ldi	r22, 0x2D	; 45
    3b4a:	ce 01       	movw	r24, r28
    3b4c:	f9 d9       	rcall	.-3086   	; 0x2f40 <_ZN4UTFT14LCD_Write_DATAEc>
    3b4e:	61 e0       	ldi	r22, 0x01	; 1
    3b50:	ce 01       	movw	r24, r28
    3b52:	f6 d9       	rcall	.-3092   	; 0x2f40 <_ZN4UTFT14LCD_Write_DATAEc>
    3b54:	6c e2       	ldi	r22, 0x2C	; 44
    3b56:	ce 01       	movw	r24, r28
    3b58:	f3 d9       	rcall	.-3098   	; 0x2f40 <_ZN4UTFT14LCD_Write_DATAEc>
    3b5a:	6d e2       	ldi	r22, 0x2D	; 45
    3b5c:	ce 01       	movw	r24, r28
    3b5e:	f0 d9       	rcall	.-3104   	; 0x2f40 <_ZN4UTFT14LCD_Write_DATAEc>
    3b60:	64 eb       	ldi	r22, 0xB4	; 180
    3b62:	ce 01       	movw	r24, r28
    3b64:	b1 d9       	rcall	.-3230   	; 0x2ec8 <_ZN4UTFT13LCD_Write_COMEc>
    3b66:	67 e0       	ldi	r22, 0x07	; 7
    3b68:	ce 01       	movw	r24, r28
    3b6a:	ea d9       	rcall	.-3116   	; 0x2f40 <_ZN4UTFT14LCD_Write_DATAEc>
    3b6c:	60 ec       	ldi	r22, 0xC0	; 192
    3b6e:	ce 01       	movw	r24, r28
    3b70:	ab d9       	rcall	.-3242   	; 0x2ec8 <_ZN4UTFT13LCD_Write_COMEc>
    3b72:	62 ea       	ldi	r22, 0xA2	; 162
    3b74:	ce 01       	movw	r24, r28
    3b76:	e4 d9       	rcall	.-3128   	; 0x2f40 <_ZN4UTFT14LCD_Write_DATAEc>
    3b78:	62 e0       	ldi	r22, 0x02	; 2
    3b7a:	ce 01       	movw	r24, r28
    3b7c:	e1 d9       	rcall	.-3134   	; 0x2f40 <_ZN4UTFT14LCD_Write_DATAEc>
    3b7e:	64 e8       	ldi	r22, 0x84	; 132
    3b80:	ce 01       	movw	r24, r28
    3b82:	de d9       	rcall	.-3140   	; 0x2f40 <_ZN4UTFT14LCD_Write_DATAEc>
    3b84:	61 ec       	ldi	r22, 0xC1	; 193
    3b86:	ce 01       	movw	r24, r28
    3b88:	9f d9       	rcall	.-3266   	; 0x2ec8 <_ZN4UTFT13LCD_Write_COMEc>
    3b8a:	65 ec       	ldi	r22, 0xC5	; 197
    3b8c:	ce 01       	movw	r24, r28
    3b8e:	d8 d9       	rcall	.-3152   	; 0x2f40 <_ZN4UTFT14LCD_Write_DATAEc>
    3b90:	62 ec       	ldi	r22, 0xC2	; 194
    3b92:	ce 01       	movw	r24, r28
    3b94:	99 d9       	rcall	.-3278   	; 0x2ec8 <_ZN4UTFT13LCD_Write_COMEc>
    3b96:	6a e0       	ldi	r22, 0x0A	; 10
    3b98:	ce 01       	movw	r24, r28
    3b9a:	d2 d9       	rcall	.-3164   	; 0x2f40 <_ZN4UTFT14LCD_Write_DATAEc>
    3b9c:	60 e0       	ldi	r22, 0x00	; 0
    3b9e:	ce 01       	movw	r24, r28
    3ba0:	cf d9       	rcall	.-3170   	; 0x2f40 <_ZN4UTFT14LCD_Write_DATAEc>
    3ba2:	63 ec       	ldi	r22, 0xC3	; 195
    3ba4:	ce 01       	movw	r24, r28
    3ba6:	90 d9       	rcall	.-3296   	; 0x2ec8 <_ZN4UTFT13LCD_Write_COMEc>
    3ba8:	6a e8       	ldi	r22, 0x8A	; 138
    3baa:	ce 01       	movw	r24, r28
    3bac:	c9 d9       	rcall	.-3182   	; 0x2f40 <_ZN4UTFT14LCD_Write_DATAEc>
    3bae:	6a e2       	ldi	r22, 0x2A	; 42
    3bb0:	ce 01       	movw	r24, r28
    3bb2:	c6 d9       	rcall	.-3188   	; 0x2f40 <_ZN4UTFT14LCD_Write_DATAEc>
    3bb4:	64 ec       	ldi	r22, 0xC4	; 196
    3bb6:	ce 01       	movw	r24, r28
    3bb8:	87 d9       	rcall	.-3314   	; 0x2ec8 <_ZN4UTFT13LCD_Write_COMEc>
    3bba:	6a e8       	ldi	r22, 0x8A	; 138
    3bbc:	ce 01       	movw	r24, r28
    3bbe:	c0 d9       	rcall	.-3200   	; 0x2f40 <_ZN4UTFT14LCD_Write_DATAEc>
    3bc0:	6e ee       	ldi	r22, 0xEE	; 238
    3bc2:	ce 01       	movw	r24, r28
    3bc4:	bd d9       	rcall	.-3206   	; 0x2f40 <_ZN4UTFT14LCD_Write_DATAEc>
    3bc6:	65 ec       	ldi	r22, 0xC5	; 197
    3bc8:	ce 01       	movw	r24, r28
    3bca:	7e d9       	rcall	.-3332   	; 0x2ec8 <_ZN4UTFT13LCD_Write_COMEc>
    3bcc:	6e e0       	ldi	r22, 0x0E	; 14
    3bce:	ce 01       	movw	r24, r28
    3bd0:	b7 d9       	rcall	.-3218   	; 0x2f40 <_ZN4UTFT14LCD_Write_DATAEc>
    3bd2:	66 e3       	ldi	r22, 0x36	; 54
    3bd4:	ce 01       	movw	r24, r28
    3bd6:	78 d9       	rcall	.-3344   	; 0x2ec8 <_ZN4UTFT13LCD_Write_COMEc>
    3bd8:	60 ec       	ldi	r22, 0xC0	; 192
    3bda:	ce 01       	movw	r24, r28
    3bdc:	b1 d9       	rcall	.-3230   	; 0x2f40 <_ZN4UTFT14LCD_Write_DATAEc>
    3bde:	60 ee       	ldi	r22, 0xE0	; 224
    3be0:	ce 01       	movw	r24, r28
    3be2:	72 d9       	rcall	.-3356   	; 0x2ec8 <_ZN4UTFT13LCD_Write_COMEc>
    3be4:	6f e0       	ldi	r22, 0x0F	; 15
    3be6:	ce 01       	movw	r24, r28
    3be8:	ab d9       	rcall	.-3242   	; 0x2f40 <_ZN4UTFT14LCD_Write_DATAEc>
    3bea:	6a e1       	ldi	r22, 0x1A	; 26
    3bec:	ce 01       	movw	r24, r28
    3bee:	a8 d9       	rcall	.-3248   	; 0x2f40 <_ZN4UTFT14LCD_Write_DATAEc>
    3bf0:	6f e0       	ldi	r22, 0x0F	; 15
    3bf2:	ce 01       	movw	r24, r28
    3bf4:	a5 d9       	rcall	.-3254   	; 0x2f40 <_ZN4UTFT14LCD_Write_DATAEc>
    3bf6:	68 e1       	ldi	r22, 0x18	; 24
    3bf8:	ce 01       	movw	r24, r28
    3bfa:	a2 d9       	rcall	.-3260   	; 0x2f40 <_ZN4UTFT14LCD_Write_DATAEc>
    3bfc:	6f e2       	ldi	r22, 0x2F	; 47
    3bfe:	ce 01       	movw	r24, r28
    3c00:	9f d9       	rcall	.-3266   	; 0x2f40 <_ZN4UTFT14LCD_Write_DATAEc>
    3c02:	68 e2       	ldi	r22, 0x28	; 40
    3c04:	ce 01       	movw	r24, r28
    3c06:	9c d9       	rcall	.-3272   	; 0x2f40 <_ZN4UTFT14LCD_Write_DATAEc>
    3c08:	60 e2       	ldi	r22, 0x20	; 32
    3c0a:	ce 01       	movw	r24, r28
    3c0c:	99 d9       	rcall	.-3278   	; 0x2f40 <_ZN4UTFT14LCD_Write_DATAEc>
    3c0e:	62 e2       	ldi	r22, 0x22	; 34
    3c10:	ce 01       	movw	r24, r28
    3c12:	96 d9       	rcall	.-3284   	; 0x2f40 <_ZN4UTFT14LCD_Write_DATAEc>
    3c14:	6f e1       	ldi	r22, 0x1F	; 31
    3c16:	ce 01       	movw	r24, r28
    3c18:	93 d9       	rcall	.-3290   	; 0x2f40 <_ZN4UTFT14LCD_Write_DATAEc>
    3c1a:	6b e1       	ldi	r22, 0x1B	; 27
    3c1c:	ce 01       	movw	r24, r28
    3c1e:	90 d9       	rcall	.-3296   	; 0x2f40 <_ZN4UTFT14LCD_Write_DATAEc>
    3c20:	63 e2       	ldi	r22, 0x23	; 35
    3c22:	ce 01       	movw	r24, r28
    3c24:	8d d9       	rcall	.-3302   	; 0x2f40 <_ZN4UTFT14LCD_Write_DATAEc>
    3c26:	67 e3       	ldi	r22, 0x37	; 55
    3c28:	ce 01       	movw	r24, r28
    3c2a:	8a d9       	rcall	.-3308   	; 0x2f40 <_ZN4UTFT14LCD_Write_DATAEc>
    3c2c:	60 e0       	ldi	r22, 0x00	; 0
    3c2e:	ce 01       	movw	r24, r28
    3c30:	87 d9       	rcall	.-3314   	; 0x2f40 <_ZN4UTFT14LCD_Write_DATAEc>
    3c32:	67 e0       	ldi	r22, 0x07	; 7
    3c34:	ce 01       	movw	r24, r28
    3c36:	84 d9       	rcall	.-3320   	; 0x2f40 <_ZN4UTFT14LCD_Write_DATAEc>
    3c38:	62 e0       	ldi	r22, 0x02	; 2
    3c3a:	ce 01       	movw	r24, r28
    3c3c:	81 d9       	rcall	.-3326   	; 0x2f40 <_ZN4UTFT14LCD_Write_DATAEc>
    3c3e:	60 e1       	ldi	r22, 0x10	; 16
    3c40:	ce 01       	movw	r24, r28
    3c42:	7e d9       	rcall	.-3332   	; 0x2f40 <_ZN4UTFT14LCD_Write_DATAEc>
    3c44:	61 ee       	ldi	r22, 0xE1	; 225
    3c46:	ce 01       	movw	r24, r28
    3c48:	3f d9       	rcall	.-3458   	; 0x2ec8 <_ZN4UTFT13LCD_Write_COMEc>
    3c4a:	6f e0       	ldi	r22, 0x0F	; 15
    3c4c:	ce 01       	movw	r24, r28
    3c4e:	78 d9       	rcall	.-3344   	; 0x2f40 <_ZN4UTFT14LCD_Write_DATAEc>
    3c50:	6b e1       	ldi	r22, 0x1B	; 27
    3c52:	ce 01       	movw	r24, r28
    3c54:	75 d9       	rcall	.-3350   	; 0x2f40 <_ZN4UTFT14LCD_Write_DATAEc>
    3c56:	6f e0       	ldi	r22, 0x0F	; 15
    3c58:	ce 01       	movw	r24, r28
    3c5a:	72 d9       	rcall	.-3356   	; 0x2f40 <_ZN4UTFT14LCD_Write_DATAEc>
    3c5c:	67 e1       	ldi	r22, 0x17	; 23
    3c5e:	ce 01       	movw	r24, r28
    3c60:	6f d9       	rcall	.-3362   	; 0x2f40 <_ZN4UTFT14LCD_Write_DATAEc>
    3c62:	63 e3       	ldi	r22, 0x33	; 51
    3c64:	ce 01       	movw	r24, r28
    3c66:	6c d9       	rcall	.-3368   	; 0x2f40 <_ZN4UTFT14LCD_Write_DATAEc>
    3c68:	6c e2       	ldi	r22, 0x2C	; 44
    3c6a:	ce 01       	movw	r24, r28
    3c6c:	69 d9       	rcall	.-3374   	; 0x2f40 <_ZN4UTFT14LCD_Write_DATAEc>
    3c6e:	69 e2       	ldi	r22, 0x29	; 41
    3c70:	ce 01       	movw	r24, r28
    3c72:	66 d9       	rcall	.-3380   	; 0x2f40 <_ZN4UTFT14LCD_Write_DATAEc>
    3c74:	6e e2       	ldi	r22, 0x2E	; 46
    3c76:	ce 01       	movw	r24, r28
    3c78:	63 d9       	rcall	.-3386   	; 0x2f40 <_ZN4UTFT14LCD_Write_DATAEc>
    3c7a:	60 e3       	ldi	r22, 0x30	; 48
    3c7c:	ce 01       	movw	r24, r28
    3c7e:	60 d9       	rcall	.-3392   	; 0x2f40 <_ZN4UTFT14LCD_Write_DATAEc>
    3c80:	60 e3       	ldi	r22, 0x30	; 48
    3c82:	ce 01       	movw	r24, r28
    3c84:	5d d9       	rcall	.-3398   	; 0x2f40 <_ZN4UTFT14LCD_Write_DATAEc>
    3c86:	69 e3       	ldi	r22, 0x39	; 57
    3c88:	ce 01       	movw	r24, r28
    3c8a:	5a d9       	rcall	.-3404   	; 0x2f40 <_ZN4UTFT14LCD_Write_DATAEc>
    3c8c:	6f e3       	ldi	r22, 0x3F	; 63
    3c8e:	ce 01       	movw	r24, r28
    3c90:	57 d9       	rcall	.-3410   	; 0x2f40 <_ZN4UTFT14LCD_Write_DATAEc>
    3c92:	60 e0       	ldi	r22, 0x00	; 0
    3c94:	ce 01       	movw	r24, r28
    3c96:	54 d9       	rcall	.-3416   	; 0x2f40 <_ZN4UTFT14LCD_Write_DATAEc>
    3c98:	67 e0       	ldi	r22, 0x07	; 7
    3c9a:	ce 01       	movw	r24, r28
    3c9c:	51 d9       	rcall	.-3422   	; 0x2f40 <_ZN4UTFT14LCD_Write_DATAEc>
    3c9e:	63 e0       	ldi	r22, 0x03	; 3
    3ca0:	ce 01       	movw	r24, r28
    3ca2:	4e d9       	rcall	.-3428   	; 0x2f40 <_ZN4UTFT14LCD_Write_DATAEc>
    3ca4:	60 e1       	ldi	r22, 0x10	; 16
    3ca6:	ce 01       	movw	r24, r28
    3ca8:	4b d9       	rcall	.-3434   	; 0x2f40 <_ZN4UTFT14LCD_Write_DATAEc>
    3caa:	6a e2       	ldi	r22, 0x2A	; 42
    3cac:	ce 01       	movw	r24, r28
    3cae:	0c d9       	rcall	.-3560   	; 0x2ec8 <_ZN4UTFT13LCD_Write_COMEc>
    3cb0:	60 e0       	ldi	r22, 0x00	; 0
    3cb2:	ce 01       	movw	r24, r28
    3cb4:	45 d9       	rcall	.-3446   	; 0x2f40 <_ZN4UTFT14LCD_Write_DATAEc>
    3cb6:	60 e0       	ldi	r22, 0x00	; 0
    3cb8:	ce 01       	movw	r24, r28
    3cba:	42 d9       	rcall	.-3452   	; 0x2f40 <_ZN4UTFT14LCD_Write_DATAEc>
    3cbc:	60 e0       	ldi	r22, 0x00	; 0
    3cbe:	ce 01       	movw	r24, r28
    3cc0:	3f d9       	rcall	.-3458   	; 0x2f40 <_ZN4UTFT14LCD_Write_DATAEc>
    3cc2:	6f e7       	ldi	r22, 0x7F	; 127
    3cc4:	ce 01       	movw	r24, r28
    3cc6:	3c d9       	rcall	.-3464   	; 0x2f40 <_ZN4UTFT14LCD_Write_DATAEc>
    3cc8:	6b e2       	ldi	r22, 0x2B	; 43
    3cca:	ce 01       	movw	r24, r28
    3ccc:	fd d8       	rcall	.-3590   	; 0x2ec8 <_ZN4UTFT13LCD_Write_COMEc>
    3cce:	60 e0       	ldi	r22, 0x00	; 0
    3cd0:	ce 01       	movw	r24, r28
    3cd2:	36 d9       	rcall	.-3476   	; 0x2f40 <_ZN4UTFT14LCD_Write_DATAEc>
    3cd4:	60 e0       	ldi	r22, 0x00	; 0
    3cd6:	ce 01       	movw	r24, r28
    3cd8:	33 d9       	rcall	.-3482   	; 0x2f40 <_ZN4UTFT14LCD_Write_DATAEc>
    3cda:	60 e0       	ldi	r22, 0x00	; 0
    3cdc:	ce 01       	movw	r24, r28
    3cde:	30 d9       	rcall	.-3488   	; 0x2f40 <_ZN4UTFT14LCD_Write_DATAEc>
    3ce0:	6f e9       	ldi	r22, 0x9F	; 159
    3ce2:	ce 01       	movw	r24, r28
    3ce4:	2d d9       	rcall	.-3494   	; 0x2f40 <_ZN4UTFT14LCD_Write_DATAEc>
    3ce6:	60 ef       	ldi	r22, 0xF0	; 240
    3ce8:	ce 01       	movw	r24, r28
    3cea:	ee d8       	rcall	.-3620   	; 0x2ec8 <_ZN4UTFT13LCD_Write_COMEc>
    3cec:	61 e0       	ldi	r22, 0x01	; 1
    3cee:	ce 01       	movw	r24, r28
    3cf0:	27 d9       	rcall	.-3506   	; 0x2f40 <_ZN4UTFT14LCD_Write_DATAEc>
    3cf2:	66 ef       	ldi	r22, 0xF6	; 246
    3cf4:	ce 01       	movw	r24, r28
    3cf6:	e8 d8       	rcall	.-3632   	; 0x2ec8 <_ZN4UTFT13LCD_Write_COMEc>
    3cf8:	60 e0       	ldi	r22, 0x00	; 0
    3cfa:	0c 94 97 26 	jmp	0x4d2e	; 0x4d2e <_ZN4UTFT7InitLCDEh+0x1b1e>
    3cfe:	61 e0       	ldi	r22, 0x01	; 1
    3d00:	ce 01       	movw	r24, r28
    3d02:	e2 d8       	rcall	.-3644   	; 0x2ec8 <_ZN4UTFT13LCD_Write_COMEc>
    3d04:	65 e2       	ldi	r22, 0x25	; 37
    3d06:	ce 01       	movw	r24, r28
    3d08:	df d8       	rcall	.-3650   	; 0x2ec8 <_ZN4UTFT13LCD_Write_COMEc>
    3d0a:	60 e4       	ldi	r22, 0x40	; 64
    3d0c:	ce 01       	movw	r24, r28
    3d0e:	18 d9       	rcall	.-3536   	; 0x2f40 <_ZN4UTFT14LCD_Write_DATAEc>
    3d10:	61 e1       	ldi	r22, 0x11	; 17
    3d12:	ce 01       	movw	r24, r28
    3d14:	d9 d8       	rcall	.-3662   	; 0x2ec8 <_ZN4UTFT13LCD_Write_COMEc>
    3d16:	6a e0       	ldi	r22, 0x0A	; 10
    3d18:	70 e0       	ldi	r23, 0x00	; 0
    3d1a:	80 e0       	ldi	r24, 0x00	; 0
    3d1c:	90 e0       	ldi	r25, 0x00	; 0
    3d1e:	0e 94 a6 36 	call	0x6d4c	; 0x6d4c <delay>
    3d22:	60 e2       	ldi	r22, 0x20	; 32
    3d24:	ce 01       	movw	r24, r28
    3d26:	d0 d8       	rcall	.-3680   	; 0x2ec8 <_ZN4UTFT13LCD_Write_COMEc>
    3d28:	68 e3       	ldi	r22, 0x38	; 56
    3d2a:	ce 01       	movw	r24, r28
    3d2c:	cd d8       	rcall	.-3686   	; 0x2ec8 <_ZN4UTFT13LCD_Write_COMEc>
    3d2e:	69 e2       	ldi	r22, 0x29	; 41
    3d30:	ce 01       	movw	r24, r28
    3d32:	ca d8       	rcall	.-3692   	; 0x2ec8 <_ZN4UTFT13LCD_Write_COMEc>
    3d34:	63 e1       	ldi	r22, 0x13	; 19
    3d36:	ce 01       	movw	r24, r28
    3d38:	c7 d8       	rcall	.-3698   	; 0x2ec8 <_ZN4UTFT13LCD_Write_COMEc>
    3d3a:	66 e3       	ldi	r22, 0x36	; 54
    3d3c:	ce 01       	movw	r24, r28
    3d3e:	c4 d8       	rcall	.-3704   	; 0x2ec8 <_ZN4UTFT13LCD_Write_COMEc>
    3d40:	60 e6       	ldi	r22, 0x60	; 96
    3d42:	ce 01       	movw	r24, r28
    3d44:	fd d8       	rcall	.-3590   	; 0x2f40 <_ZN4UTFT14LCD_Write_DATAEc>
    3d46:	6a e3       	ldi	r22, 0x3A	; 58
    3d48:	ce 01       	movw	r24, r28
    3d4a:	be d8       	rcall	.-3716   	; 0x2ec8 <_ZN4UTFT13LCD_Write_COMEc>
    3d4c:	65 e0       	ldi	r22, 0x05	; 5
    3d4e:	ce 01       	movw	r24, r28
    3d50:	f7 d8       	rcall	.-3602   	; 0x2f40 <_ZN4UTFT14LCD_Write_DATAEc>
    3d52:	6a e2       	ldi	r22, 0x2A	; 42
    3d54:	ce 01       	movw	r24, r28
    3d56:	b8 d8       	rcall	.-3728   	; 0x2ec8 <_ZN4UTFT13LCD_Write_COMEc>
    3d58:	60 e0       	ldi	r22, 0x00	; 0
    3d5a:	ce 01       	movw	r24, r28
    3d5c:	f1 d8       	rcall	.-3614   	; 0x2f40 <_ZN4UTFT14LCD_Write_DATAEc>
    3d5e:	6f e7       	ldi	r22, 0x7F	; 127
    3d60:	ce 01       	movw	r24, r28
    3d62:	ee d8       	rcall	.-3620   	; 0x2f40 <_ZN4UTFT14LCD_Write_DATAEc>
    3d64:	64 eb       	ldi	r22, 0xB4	; 180
    3d66:	ce 01       	movw	r24, r28
    3d68:	af d8       	rcall	.-3746   	; 0x2ec8 <_ZN4UTFT13LCD_Write_COMEc>
    3d6a:	63 e0       	ldi	r22, 0x03	; 3
    3d6c:	ce 01       	movw	r24, r28
    3d6e:	e8 d8       	rcall	.-3632   	; 0x2f40 <_ZN4UTFT14LCD_Write_DATAEc>
    3d70:	68 e0       	ldi	r22, 0x08	; 8
    3d72:	ce 01       	movw	r24, r28
    3d74:	e5 d8       	rcall	.-3638   	; 0x2f40 <_ZN4UTFT14LCD_Write_DATAEc>
    3d76:	6b e0       	ldi	r22, 0x0B	; 11
    3d78:	ce 01       	movw	r24, r28
    3d7a:	e2 d8       	rcall	.-3644   	; 0x2f40 <_ZN4UTFT14LCD_Write_DATAEc>
    3d7c:	6e e0       	ldi	r22, 0x0E	; 14
    3d7e:	ce 01       	movw	r24, r28
    3d80:	df d8       	rcall	.-3650   	; 0x2f40 <_ZN4UTFT14LCD_Write_DATAEc>
    3d82:	6a eb       	ldi	r22, 0xBA	; 186
    3d84:	ce 01       	movw	r24, r28
    3d86:	a0 d8       	rcall	.-3776   	; 0x2ec8 <_ZN4UTFT13LCD_Write_COMEc>
    3d88:	67 e0       	ldi	r22, 0x07	; 7
    3d8a:	ce 01       	movw	r24, r28
    3d8c:	d9 d8       	rcall	.-3662   	; 0x2f40 <_ZN4UTFT14LCD_Write_DATAEc>
    3d8e:	6d e0       	ldi	r22, 0x0D	; 13
    3d90:	ce 01       	movw	r24, r28
    3d92:	d6 d8       	rcall	.-3668   	; 0x2f40 <_ZN4UTFT14LCD_Write_DATAEc>
    3d94:	6b e2       	ldi	r22, 0x2B	; 43
    3d96:	ce 01       	movw	r24, r28
    3d98:	97 d8       	rcall	.-3794   	; 0x2ec8 <_ZN4UTFT13LCD_Write_COMEc>
    3d9a:	60 e0       	ldi	r22, 0x00	; 0
    3d9c:	ce 01       	movw	r24, r28
    3d9e:	d0 d8       	rcall	.-3680   	; 0x2f40 <_ZN4UTFT14LCD_Write_DATAEc>
    3da0:	6f e7       	ldi	r22, 0x7F	; 127
    3da2:	5e c2       	rjmp	.+1212   	; 0x4260 <_ZN4UTFT7InitLCDEh+0x1050>
    3da4:	63 e8       	ldi	r22, 0x83	; 131
    3da6:	ce 01       	movw	r24, r28
    3da8:	8f d8       	rcall	.-3810   	; 0x2ec8 <_ZN4UTFT13LCD_Write_COMEc>
    3daa:	62 e0       	ldi	r22, 0x02	; 2
    3dac:	ce 01       	movw	r24, r28
    3dae:	c8 d8       	rcall	.-3696   	; 0x2f40 <_ZN4UTFT14LCD_Write_DATAEc>
    3db0:	65 e8       	ldi	r22, 0x85	; 133
    3db2:	ce 01       	movw	r24, r28
    3db4:	89 d8       	rcall	.-3822   	; 0x2ec8 <_ZN4UTFT13LCD_Write_COMEc>
    3db6:	63 e0       	ldi	r22, 0x03	; 3
    3db8:	ce 01       	movw	r24, r28
    3dba:	c2 d8       	rcall	.-3708   	; 0x2f40 <_ZN4UTFT14LCD_Write_DATAEc>
    3dbc:	6b e8       	ldi	r22, 0x8B	; 139
    3dbe:	ce 01       	movw	r24, r28
    3dc0:	83 d8       	rcall	.-3834   	; 0x2ec8 <_ZN4UTFT13LCD_Write_COMEc>
    3dc2:	61 e0       	ldi	r22, 0x01	; 1
    3dc4:	ce 01       	movw	r24, r28
    3dc6:	bc d8       	rcall	.-3720   	; 0x2f40 <_ZN4UTFT14LCD_Write_DATAEc>
    3dc8:	6c e8       	ldi	r22, 0x8C	; 140
    3dca:	ce 01       	movw	r24, r28
    3dcc:	7d d8       	rcall	.-3846   	; 0x2ec8 <_ZN4UTFT13LCD_Write_COMEc>
    3dce:	63 e9       	ldi	r22, 0x93	; 147
    3dd0:	ce 01       	movw	r24, r28
    3dd2:	b6 d8       	rcall	.-3732   	; 0x2f40 <_ZN4UTFT14LCD_Write_DATAEc>
    3dd4:	61 e9       	ldi	r22, 0x91	; 145
    3dd6:	ce 01       	movw	r24, r28
    3dd8:	77 d8       	rcall	.-3858   	; 0x2ec8 <_ZN4UTFT13LCD_Write_COMEc>
    3dda:	61 e0       	ldi	r22, 0x01	; 1
    3ddc:	ce 01       	movw	r24, r28
    3dde:	b0 d8       	rcall	.-3744   	; 0x2f40 <_ZN4UTFT14LCD_Write_DATAEc>
    3de0:	63 e8       	ldi	r22, 0x83	; 131
    3de2:	ce 01       	movw	r24, r28
    3de4:	71 d8       	rcall	.-3870   	; 0x2ec8 <_ZN4UTFT13LCD_Write_COMEc>
    3de6:	60 e0       	ldi	r22, 0x00	; 0
    3de8:	ce 01       	movw	r24, r28
    3dea:	aa d8       	rcall	.-3756   	; 0x2f40 <_ZN4UTFT14LCD_Write_DATAEc>
    3dec:	6e e3       	ldi	r22, 0x3E	; 62
    3dee:	ce 01       	movw	r24, r28
    3df0:	6b d8       	rcall	.-3882   	; 0x2ec8 <_ZN4UTFT13LCD_Write_COMEc>
    3df2:	60 eb       	ldi	r22, 0xB0	; 176
    3df4:	ce 01       	movw	r24, r28
    3df6:	a4 d8       	rcall	.-3768   	; 0x2f40 <_ZN4UTFT14LCD_Write_DATAEc>
    3df8:	6f e3       	ldi	r22, 0x3F	; 63
    3dfa:	ce 01       	movw	r24, r28
    3dfc:	65 d8       	rcall	.-3894   	; 0x2ec8 <_ZN4UTFT13LCD_Write_COMEc>
    3dfe:	63 e0       	ldi	r22, 0x03	; 3
    3e00:	ce 01       	movw	r24, r28
    3e02:	9e d8       	rcall	.-3780   	; 0x2f40 <_ZN4UTFT14LCD_Write_DATAEc>
    3e04:	60 e4       	ldi	r22, 0x40	; 64
    3e06:	ce 01       	movw	r24, r28
    3e08:	5f d8       	rcall	.-3906   	; 0x2ec8 <_ZN4UTFT13LCD_Write_COMEc>
    3e0a:	60 e1       	ldi	r22, 0x10	; 16
    3e0c:	ce 01       	movw	r24, r28
    3e0e:	98 d8       	rcall	.-3792   	; 0x2f40 <_ZN4UTFT14LCD_Write_DATAEc>
    3e10:	61 e4       	ldi	r22, 0x41	; 65
    3e12:	ce 01       	movw	r24, r28
    3e14:	59 d8       	rcall	.-3918   	; 0x2ec8 <_ZN4UTFT13LCD_Write_COMEc>
    3e16:	66 e5       	ldi	r22, 0x56	; 86
    3e18:	ce 01       	movw	r24, r28
    3e1a:	92 d8       	rcall	.-3804   	; 0x2f40 <_ZN4UTFT14LCD_Write_DATAEc>
    3e1c:	62 e4       	ldi	r22, 0x42	; 66
    3e1e:	ce 01       	movw	r24, r28
    3e20:	53 d8       	rcall	.-3930   	; 0x2ec8 <_ZN4UTFT13LCD_Write_COMEc>
    3e22:	63 e1       	ldi	r22, 0x13	; 19
    3e24:	ce 01       	movw	r24, r28
    3e26:	8c d8       	rcall	.-3816   	; 0x2f40 <_ZN4UTFT14LCD_Write_DATAEc>
    3e28:	63 e4       	ldi	r22, 0x43	; 67
    3e2a:	ce 01       	movw	r24, r28
    3e2c:	4d d8       	rcall	.-3942   	; 0x2ec8 <_ZN4UTFT13LCD_Write_COMEc>
    3e2e:	66 e4       	ldi	r22, 0x46	; 70
    3e30:	ce 01       	movw	r24, r28
    3e32:	86 d8       	rcall	.-3828   	; 0x2f40 <_ZN4UTFT14LCD_Write_DATAEc>
    3e34:	64 e4       	ldi	r22, 0x44	; 68
    3e36:	ce 01       	movw	r24, r28
    3e38:	47 d8       	rcall	.-3954   	; 0x2ec8 <_ZN4UTFT13LCD_Write_COMEc>
    3e3a:	63 e2       	ldi	r22, 0x23	; 35
    3e3c:	ce 01       	movw	r24, r28
    3e3e:	80 d8       	rcall	.-3840   	; 0x2f40 <_ZN4UTFT14LCD_Write_DATAEc>
    3e40:	65 e4       	ldi	r22, 0x45	; 69
    3e42:	ce 01       	movw	r24, r28
    3e44:	41 d8       	rcall	.-3966   	; 0x2ec8 <_ZN4UTFT13LCD_Write_COMEc>
    3e46:	66 e7       	ldi	r22, 0x76	; 118
    3e48:	ce 01       	movw	r24, r28
    3e4a:	7a d8       	rcall	.-3852   	; 0x2f40 <_ZN4UTFT14LCD_Write_DATAEc>
    3e4c:	66 e4       	ldi	r22, 0x46	; 70
    3e4e:	ce 01       	movw	r24, r28
    3e50:	3b d8       	rcall	.-3978   	; 0x2ec8 <_ZN4UTFT13LCD_Write_COMEc>
    3e52:	60 e0       	ldi	r22, 0x00	; 0
    3e54:	ce 01       	movw	r24, r28
    3e56:	74 d8       	rcall	.-3864   	; 0x2f40 <_ZN4UTFT14LCD_Write_DATAEc>
    3e58:	67 e4       	ldi	r22, 0x47	; 71
    3e5a:	ce 01       	movw	r24, r28
    3e5c:	35 d8       	rcall	.-3990   	; 0x2ec8 <_ZN4UTFT13LCD_Write_COMEc>
    3e5e:	6e e5       	ldi	r22, 0x5E	; 94
    3e60:	ce 01       	movw	r24, r28
    3e62:	6e d8       	rcall	.-3876   	; 0x2f40 <_ZN4UTFT14LCD_Write_DATAEc>
    3e64:	68 e4       	ldi	r22, 0x48	; 72
    3e66:	ce 01       	movw	r24, r28
    3e68:	2f d8       	rcall	.-4002   	; 0x2ec8 <_ZN4UTFT13LCD_Write_COMEc>
    3e6a:	6f e4       	ldi	r22, 0x4F	; 79
    3e6c:	ce 01       	movw	r24, r28
    3e6e:	68 d8       	rcall	.-3888   	; 0x2f40 <_ZN4UTFT14LCD_Write_DATAEc>
    3e70:	69 e4       	ldi	r22, 0x49	; 73
    3e72:	ce 01       	movw	r24, r28
    3e74:	29 d8       	rcall	.-4014   	; 0x2ec8 <_ZN4UTFT13LCD_Write_COMEc>
    3e76:	60 e4       	ldi	r22, 0x40	; 64
    3e78:	ce 01       	movw	r24, r28
    3e7a:	62 d8       	rcall	.-3900   	; 0x2f40 <_ZN4UTFT14LCD_Write_DATAEc>
    3e7c:	67 e1       	ldi	r22, 0x17	; 23
    3e7e:	ce 01       	movw	r24, r28
    3e80:	23 d8       	rcall	.-4026   	; 0x2ec8 <_ZN4UTFT13LCD_Write_COMEc>
    3e82:	61 e9       	ldi	r22, 0x91	; 145
    3e84:	ce 01       	movw	r24, r28
    3e86:	5c d8       	rcall	.-3912   	; 0x2f40 <_ZN4UTFT14LCD_Write_DATAEc>
    3e88:	6b e2       	ldi	r22, 0x2B	; 43
    3e8a:	ce 01       	movw	r24, r28
    3e8c:	1d d8       	rcall	.-4038   	; 0x2ec8 <_ZN4UTFT13LCD_Write_COMEc>
    3e8e:	69 ef       	ldi	r22, 0xF9	; 249
    3e90:	ce 01       	movw	r24, r28
    3e92:	56 d8       	rcall	.-3924   	; 0x2f40 <_ZN4UTFT14LCD_Write_DATAEc>
    3e94:	6a e0       	ldi	r22, 0x0A	; 10
    3e96:	70 e0       	ldi	r23, 0x00	; 0
    3e98:	80 e0       	ldi	r24, 0x00	; 0
    3e9a:	90 e0       	ldi	r25, 0x00	; 0
    3e9c:	0e 94 a6 36 	call	0x6d4c	; 0x6d4c <delay>
    3ea0:	6b e1       	ldi	r22, 0x1B	; 27
    3ea2:	ce 01       	movw	r24, r28
    3ea4:	11 d8       	rcall	.-4062   	; 0x2ec8 <_ZN4UTFT13LCD_Write_COMEc>
    3ea6:	64 e1       	ldi	r22, 0x14	; 20
    3ea8:	ce 01       	movw	r24, r28
    3eaa:	4a d8       	rcall	.-3948   	; 0x2f40 <_ZN4UTFT14LCD_Write_DATAEc>
    3eac:	6a e1       	ldi	r22, 0x1A	; 26
    3eae:	ce 01       	movw	r24, r28
    3eb0:	0b d8       	rcall	.-4074   	; 0x2ec8 <_ZN4UTFT13LCD_Write_COMEc>
    3eb2:	61 e1       	ldi	r22, 0x11	; 17
    3eb4:	ce 01       	movw	r24, r28
    3eb6:	44 d8       	rcall	.-3960   	; 0x2f40 <_ZN4UTFT14LCD_Write_DATAEc>
    3eb8:	6c e1       	ldi	r22, 0x1C	; 28
    3eba:	ce 01       	movw	r24, r28
    3ebc:	05 d8       	rcall	.-4086   	; 0x2ec8 <_ZN4UTFT13LCD_Write_COMEc>
    3ebe:	66 e0       	ldi	r22, 0x06	; 6
    3ec0:	ce 01       	movw	r24, r28
    3ec2:	3e d8       	rcall	.-3972   	; 0x2f40 <_ZN4UTFT14LCD_Write_DATAEc>
    3ec4:	6f e1       	ldi	r22, 0x1F	; 31
    3ec6:	ce 01       	movw	r24, r28
    3ec8:	0e 94 64 17 	call	0x2ec8	; 0x2ec8 <_ZN4UTFT13LCD_Write_COMEc>
    3ecc:	62 e4       	ldi	r22, 0x42	; 66
    3ece:	ce 01       	movw	r24, r28
    3ed0:	37 d8       	rcall	.-3986   	; 0x2f40 <_ZN4UTFT14LCD_Write_DATAEc>
    3ed2:	64 e1       	ldi	r22, 0x14	; 20
    3ed4:	70 e0       	ldi	r23, 0x00	; 0
    3ed6:	80 e0       	ldi	r24, 0x00	; 0
    3ed8:	90 e0       	ldi	r25, 0x00	; 0
    3eda:	0e 94 a6 36 	call	0x6d4c	; 0x6d4c <delay>
    3ede:	69 e1       	ldi	r22, 0x19	; 25
    3ee0:	ce 01       	movw	r24, r28
    3ee2:	0e 94 64 17 	call	0x2ec8	; 0x2ec8 <_ZN4UTFT13LCD_Write_COMEc>
    3ee6:	6a e0       	ldi	r22, 0x0A	; 10
    3ee8:	ce 01       	movw	r24, r28
    3eea:	2a d8       	rcall	.-4012   	; 0x2f40 <_ZN4UTFT14LCD_Write_DATAEc>
    3eec:	69 e1       	ldi	r22, 0x19	; 25
    3eee:	ce 01       	movw	r24, r28
    3ef0:	0e 94 64 17 	call	0x2ec8	; 0x2ec8 <_ZN4UTFT13LCD_Write_COMEc>
    3ef4:	6a e1       	ldi	r22, 0x1A	; 26
    3ef6:	ce 01       	movw	r24, r28
    3ef8:	23 d8       	rcall	.-4026   	; 0x2f40 <_ZN4UTFT14LCD_Write_DATAEc>
    3efa:	68 e2       	ldi	r22, 0x28	; 40
    3efc:	70 e0       	ldi	r23, 0x00	; 0
    3efe:	80 e0       	ldi	r24, 0x00	; 0
    3f00:	90 e0       	ldi	r25, 0x00	; 0
    3f02:	0e 94 a6 36 	call	0x6d4c	; 0x6d4c <delay>
    3f06:	69 e1       	ldi	r22, 0x19	; 25
    3f08:	ce 01       	movw	r24, r28
    3f0a:	0e 94 64 17 	call	0x2ec8	; 0x2ec8 <_ZN4UTFT13LCD_Write_COMEc>
    3f0e:	62 e1       	ldi	r22, 0x12	; 18
    3f10:	ce 01       	movw	r24, r28
    3f12:	16 d8       	rcall	.-4052   	; 0x2f40 <_ZN4UTFT14LCD_Write_DATAEc>
    3f14:	68 e2       	ldi	r22, 0x28	; 40
    3f16:	70 e0       	ldi	r23, 0x00	; 0
    3f18:	80 e0       	ldi	r24, 0x00	; 0
    3f1a:	90 e0       	ldi	r25, 0x00	; 0
    3f1c:	0e 94 a6 36 	call	0x6d4c	; 0x6d4c <delay>
    3f20:	6e e1       	ldi	r22, 0x1E	; 30
    3f22:	ce 01       	movw	r24, r28
    3f24:	0e 94 64 17 	call	0x2ec8	; 0x2ec8 <_ZN4UTFT13LCD_Write_COMEc>
    3f28:	67 e2       	ldi	r22, 0x27	; 39
    3f2a:	ce 01       	movw	r24, r28
    3f2c:	09 d8       	rcall	.-4078   	; 0x2f40 <_ZN4UTFT14LCD_Write_DATAEc>
    3f2e:	64 e6       	ldi	r22, 0x64	; 100
    3f30:	70 e0       	ldi	r23, 0x00	; 0
    3f32:	80 e0       	ldi	r24, 0x00	; 0
    3f34:	90 e0       	ldi	r25, 0x00	; 0
    3f36:	0e 94 a6 36 	call	0x6d4c	; 0x6d4c <delay>
    3f3a:	64 e2       	ldi	r22, 0x24	; 36
    3f3c:	ce 01       	movw	r24, r28
    3f3e:	0e 94 64 17 	call	0x2ec8	; 0x2ec8 <_ZN4UTFT13LCD_Write_COMEc>
    3f42:	60 e6       	ldi	r22, 0x60	; 96
    3f44:	ce 01       	movw	r24, r28
    3f46:	0e 94 a0 17 	call	0x2f40	; 0x2f40 <_ZN4UTFT14LCD_Write_DATAEc>
    3f4a:	6d e3       	ldi	r22, 0x3D	; 61
    3f4c:	ce 01       	movw	r24, r28
    3f4e:	0e 94 64 17 	call	0x2ec8	; 0x2ec8 <_ZN4UTFT13LCD_Write_COMEc>
    3f52:	60 e4       	ldi	r22, 0x40	; 64
    3f54:	ce 01       	movw	r24, r28
    3f56:	0e 94 a0 17 	call	0x2f40	; 0x2f40 <_ZN4UTFT14LCD_Write_DATAEc>
    3f5a:	64 e3       	ldi	r22, 0x34	; 52
    3f5c:	ce 01       	movw	r24, r28
    3f5e:	0e 94 64 17 	call	0x2ec8	; 0x2ec8 <_ZN4UTFT13LCD_Write_COMEc>
    3f62:	68 e3       	ldi	r22, 0x38	; 56
    3f64:	ce 01       	movw	r24, r28
    3f66:	0e 94 a0 17 	call	0x2f40	; 0x2f40 <_ZN4UTFT14LCD_Write_DATAEc>
    3f6a:	65 e3       	ldi	r22, 0x35	; 53
    3f6c:	ce 01       	movw	r24, r28
    3f6e:	0e 94 64 17 	call	0x2ec8	; 0x2ec8 <_ZN4UTFT13LCD_Write_COMEc>
    3f72:	68 e3       	ldi	r22, 0x38	; 56
    3f74:	ce 01       	movw	r24, r28
    3f76:	0e 94 a0 17 	call	0x2f40	; 0x2f40 <_ZN4UTFT14LCD_Write_DATAEc>
    3f7a:	64 e2       	ldi	r22, 0x24	; 36
    3f7c:	ce 01       	movw	r24, r28
    3f7e:	0e 94 64 17 	call	0x2ec8	; 0x2ec8 <_ZN4UTFT13LCD_Write_COMEc>
    3f82:	68 e3       	ldi	r22, 0x38	; 56
    3f84:	ce 01       	movw	r24, r28
    3f86:	0e 94 a0 17 	call	0x2f40	; 0x2f40 <_ZN4UTFT14LCD_Write_DATAEc>
    3f8a:	68 e2       	ldi	r22, 0x28	; 40
    3f8c:	70 e0       	ldi	r23, 0x00	; 0
    3f8e:	80 e0       	ldi	r24, 0x00	; 0
    3f90:	90 e0       	ldi	r25, 0x00	; 0
    3f92:	0e 94 a6 36 	call	0x6d4c	; 0x6d4c <delay>
    3f96:	64 e2       	ldi	r22, 0x24	; 36
    3f98:	ce 01       	movw	r24, r28
    3f9a:	0e 94 64 17 	call	0x2ec8	; 0x2ec8 <_ZN4UTFT13LCD_Write_COMEc>
    3f9e:	6c e3       	ldi	r22, 0x3C	; 60
    3fa0:	ce 01       	movw	r24, r28
    3fa2:	0e 94 a0 17 	call	0x2f40	; 0x2f40 <_ZN4UTFT14LCD_Write_DATAEc>
    3fa6:	66 e1       	ldi	r22, 0x16	; 22
    3fa8:	ce 01       	movw	r24, r28
    3faa:	0e 94 64 17 	call	0x2ec8	; 0x2ec8 <_ZN4UTFT13LCD_Write_COMEc>
    3fae:	6c e1       	ldi	r22, 0x1C	; 28
    3fb0:	ce 01       	movw	r24, r28
    3fb2:	0e 94 a0 17 	call	0x2f40	; 0x2f40 <_ZN4UTFT14LCD_Write_DATAEc>
    3fb6:	61 e0       	ldi	r22, 0x01	; 1
    3fb8:	ce 01       	movw	r24, r28
    3fba:	0e 94 64 17 	call	0x2ec8	; 0x2ec8 <_ZN4UTFT13LCD_Write_COMEc>
    3fbe:	66 e0       	ldi	r22, 0x06	; 6
    3fc0:	ce 01       	movw	r24, r28
    3fc2:	0e 94 a0 17 	call	0x2f40	; 0x2f40 <_ZN4UTFT14LCD_Write_DATAEc>
    3fc6:	65 e5       	ldi	r22, 0x55	; 85
    3fc8:	ce 01       	movw	r24, r28
    3fca:	0e 94 64 17 	call	0x2ec8	; 0x2ec8 <_ZN4UTFT13LCD_Write_COMEc>
    3fce:	60 e0       	ldi	r22, 0x00	; 0
    3fd0:	ce 01       	movw	r24, r28
    3fd2:	0e 94 a0 17 	call	0x2f40	; 0x2f40 <_ZN4UTFT14LCD_Write_DATAEc>
    3fd6:	62 e0       	ldi	r22, 0x02	; 2
    3fd8:	ce 01       	movw	r24, r28
    3fda:	0e 94 64 17 	call	0x2ec8	; 0x2ec8 <_ZN4UTFT13LCD_Write_COMEc>
    3fde:	60 e0       	ldi	r22, 0x00	; 0
    3fe0:	ce 01       	movw	r24, r28
    3fe2:	0e 94 a0 17 	call	0x2f40	; 0x2f40 <_ZN4UTFT14LCD_Write_DATAEc>
    3fe6:	63 e0       	ldi	r22, 0x03	; 3
    3fe8:	ce 01       	movw	r24, r28
    3fea:	0e 94 64 17 	call	0x2ec8	; 0x2ec8 <_ZN4UTFT13LCD_Write_COMEc>
    3fee:	60 e0       	ldi	r22, 0x00	; 0
    3ff0:	ce 01       	movw	r24, r28
    3ff2:	0e 94 a0 17 	call	0x2f40	; 0x2f40 <_ZN4UTFT14LCD_Write_DATAEc>
    3ff6:	64 e0       	ldi	r22, 0x04	; 4
    3ff8:	ce 01       	movw	r24, r28
    3ffa:	0e 94 64 17 	call	0x2ec8	; 0x2ec8 <_ZN4UTFT13LCD_Write_COMEc>
    3ffe:	60 e0       	ldi	r22, 0x00	; 0
    4000:	ce 01       	movw	r24, r28
    4002:	0e 94 a0 17 	call	0x2f40	; 0x2f40 <_ZN4UTFT14LCD_Write_DATAEc>
    4006:	65 e0       	ldi	r22, 0x05	; 5
    4008:	ce 01       	movw	r24, r28
    400a:	0e 94 64 17 	call	0x2ec8	; 0x2ec8 <_ZN4UTFT13LCD_Write_COMEc>
    400e:	6f ee       	ldi	r22, 0xEF	; 239
    4010:	ce 01       	movw	r24, r28
    4012:	0e 94 a0 17 	call	0x2f40	; 0x2f40 <_ZN4UTFT14LCD_Write_DATAEc>
    4016:	66 e0       	ldi	r22, 0x06	; 6
    4018:	ce 01       	movw	r24, r28
    401a:	0e 94 64 17 	call	0x2ec8	; 0x2ec8 <_ZN4UTFT13LCD_Write_COMEc>
    401e:	60 e0       	ldi	r22, 0x00	; 0
    4020:	ce 01       	movw	r24, r28
    4022:	0e 94 a0 17 	call	0x2f40	; 0x2f40 <_ZN4UTFT14LCD_Write_DATAEc>
    4026:	67 e0       	ldi	r22, 0x07	; 7
    4028:	ce 01       	movw	r24, r28
    402a:	0e 94 64 17 	call	0x2ec8	; 0x2ec8 <_ZN4UTFT13LCD_Write_COMEc>
    402e:	60 e0       	ldi	r22, 0x00	; 0
    4030:	ce 01       	movw	r24, r28
    4032:	0e 94 a0 17 	call	0x2f40	; 0x2f40 <_ZN4UTFT14LCD_Write_DATAEc>
    4036:	68 e0       	ldi	r22, 0x08	; 8
    4038:	ce 01       	movw	r24, r28
    403a:	0e 94 64 17 	call	0x2ec8	; 0x2ec8 <_ZN4UTFT13LCD_Write_COMEc>
    403e:	61 e0       	ldi	r22, 0x01	; 1
    4040:	ce 01       	movw	r24, r28
    4042:	0e 94 a0 17 	call	0x2f40	; 0x2f40 <_ZN4UTFT14LCD_Write_DATAEc>
    4046:	69 e0       	ldi	r22, 0x09	; 9
    4048:	ce 01       	movw	r24, r28
    404a:	0e 94 64 17 	call	0x2ec8	; 0x2ec8 <_ZN4UTFT13LCD_Write_COMEc>
    404e:	6f e8       	ldi	r22, 0x8F	; 143
    4050:	ce 01       	movw	r24, r28
    4052:	0e 94 a0 17 	call	0x2f40	; 0x2f40 <_ZN4UTFT14LCD_Write_DATAEc>
    4056:	d5 cc       	rjmp	.-1622   	; 0x3a02 <_ZN4UTFT7InitLCDEh+0x7f2>
    4058:	62 ee       	ldi	r22, 0xE2	; 226
    405a:	ce 01       	movw	r24, r28
    405c:	0e 94 64 17 	call	0x2ec8	; 0x2ec8 <_ZN4UTFT13LCD_Write_COMEc>
    4060:	63 e2       	ldi	r22, 0x23	; 35
    4062:	ce 01       	movw	r24, r28
    4064:	0e 94 a0 17 	call	0x2f40	; 0x2f40 <_ZN4UTFT14LCD_Write_DATAEc>
    4068:	62 e0       	ldi	r22, 0x02	; 2
    406a:	ce 01       	movw	r24, r28
    406c:	0e 94 a0 17 	call	0x2f40	; 0x2f40 <_ZN4UTFT14LCD_Write_DATAEc>
    4070:	64 e5       	ldi	r22, 0x54	; 84
    4072:	ce 01       	movw	r24, r28
    4074:	0e 94 a0 17 	call	0x2f40	; 0x2f40 <_ZN4UTFT14LCD_Write_DATAEc>
    4078:	60 ee       	ldi	r22, 0xE0	; 224
    407a:	ce 01       	movw	r24, r28
    407c:	0e 94 64 17 	call	0x2ec8	; 0x2ec8 <_ZN4UTFT13LCD_Write_COMEc>
    4080:	61 e0       	ldi	r22, 0x01	; 1
    4082:	ce 01       	movw	r24, r28
    4084:	0e 94 a0 17 	call	0x2f40	; 0x2f40 <_ZN4UTFT14LCD_Write_DATAEc>
    4088:	6a e0       	ldi	r22, 0x0A	; 10
    408a:	70 e0       	ldi	r23, 0x00	; 0
    408c:	80 e0       	ldi	r24, 0x00	; 0
    408e:	90 e0       	ldi	r25, 0x00	; 0
    4090:	0e 94 a6 36 	call	0x6d4c	; 0x6d4c <delay>
    4094:	60 ee       	ldi	r22, 0xE0	; 224
    4096:	ce 01       	movw	r24, r28
    4098:	0e 94 64 17 	call	0x2ec8	; 0x2ec8 <_ZN4UTFT13LCD_Write_COMEc>
    409c:	63 e0       	ldi	r22, 0x03	; 3
    409e:	ce 01       	movw	r24, r28
    40a0:	0e 94 a0 17 	call	0x2f40	; 0x2f40 <_ZN4UTFT14LCD_Write_DATAEc>
    40a4:	6a e0       	ldi	r22, 0x0A	; 10
    40a6:	70 e0       	ldi	r23, 0x00	; 0
    40a8:	80 e0       	ldi	r24, 0x00	; 0
    40aa:	90 e0       	ldi	r25, 0x00	; 0
    40ac:	0e 94 a6 36 	call	0x6d4c	; 0x6d4c <delay>
    40b0:	61 e0       	ldi	r22, 0x01	; 1
    40b2:	ce 01       	movw	r24, r28
    40b4:	0e 94 64 17 	call	0x2ec8	; 0x2ec8 <_ZN4UTFT13LCD_Write_COMEc>
    40b8:	64 e6       	ldi	r22, 0x64	; 100
    40ba:	70 e0       	ldi	r23, 0x00	; 0
    40bc:	80 e0       	ldi	r24, 0x00	; 0
    40be:	90 e0       	ldi	r25, 0x00	; 0
    40c0:	0e 94 a6 36 	call	0x6d4c	; 0x6d4c <delay>
    40c4:	66 ee       	ldi	r22, 0xE6	; 230
    40c6:	ce 01       	movw	r24, r28
    40c8:	0e 94 64 17 	call	0x2ec8	; 0x2ec8 <_ZN4UTFT13LCD_Write_COMEc>
    40cc:	61 e0       	ldi	r22, 0x01	; 1
    40ce:	ce 01       	movw	r24, r28
    40d0:	0e 94 a0 17 	call	0x2f40	; 0x2f40 <_ZN4UTFT14LCD_Write_DATAEc>
    40d4:	6f e1       	ldi	r22, 0x1F	; 31
    40d6:	ce 01       	movw	r24, r28
    40d8:	0e 94 a0 17 	call	0x2f40	; 0x2f40 <_ZN4UTFT14LCD_Write_DATAEc>
    40dc:	6f ef       	ldi	r22, 0xFF	; 255
    40de:	ce 01       	movw	r24, r28
    40e0:	0e 94 a0 17 	call	0x2f40	; 0x2f40 <_ZN4UTFT14LCD_Write_DATAEc>
    40e4:	60 eb       	ldi	r22, 0xB0	; 176
    40e6:	ce 01       	movw	r24, r28
    40e8:	0e 94 64 17 	call	0x2ec8	; 0x2ec8 <_ZN4UTFT13LCD_Write_COMEc>
    40ec:	60 e2       	ldi	r22, 0x20	; 32
    40ee:	ce 01       	movw	r24, r28
    40f0:	0e 94 a0 17 	call	0x2f40	; 0x2f40 <_ZN4UTFT14LCD_Write_DATAEc>
    40f4:	60 e0       	ldi	r22, 0x00	; 0
    40f6:	ce 01       	movw	r24, r28
    40f8:	0e 94 a0 17 	call	0x2f40	; 0x2f40 <_ZN4UTFT14LCD_Write_DATAEc>
    40fc:	61 e0       	ldi	r22, 0x01	; 1
    40fe:	ce 01       	movw	r24, r28
    4100:	0e 94 a0 17 	call	0x2f40	; 0x2f40 <_ZN4UTFT14LCD_Write_DATAEc>
    4104:	6f ed       	ldi	r22, 0xDF	; 223
    4106:	ce 01       	movw	r24, r28
    4108:	0e 94 a0 17 	call	0x2f40	; 0x2f40 <_ZN4UTFT14LCD_Write_DATAEc>
    410c:	61 e0       	ldi	r22, 0x01	; 1
    410e:	ce 01       	movw	r24, r28
    4110:	0e 94 a0 17 	call	0x2f40	; 0x2f40 <_ZN4UTFT14LCD_Write_DATAEc>
    4114:	6f e0       	ldi	r22, 0x0F	; 15
    4116:	ce 01       	movw	r24, r28
    4118:	0e 94 a0 17 	call	0x2f40	; 0x2f40 <_ZN4UTFT14LCD_Write_DATAEc>
    411c:	60 e0       	ldi	r22, 0x00	; 0
    411e:	ce 01       	movw	r24, r28
    4120:	0e 94 a0 17 	call	0x2f40	; 0x2f40 <_ZN4UTFT14LCD_Write_DATAEc>
    4124:	64 eb       	ldi	r22, 0xB4	; 180
    4126:	ce 01       	movw	r24, r28
    4128:	0e 94 64 17 	call	0x2ec8	; 0x2ec8 <_ZN4UTFT13LCD_Write_COMEc>
    412c:	62 e0       	ldi	r22, 0x02	; 2
    412e:	ce 01       	movw	r24, r28
    4130:	0e 94 a0 17 	call	0x2f40	; 0x2f40 <_ZN4UTFT14LCD_Write_DATAEc>
    4134:	63 e1       	ldi	r22, 0x13	; 19
    4136:	ce 01       	movw	r24, r28
    4138:	0e 94 a0 17 	call	0x2f40	; 0x2f40 <_ZN4UTFT14LCD_Write_DATAEc>
    413c:	60 e0       	ldi	r22, 0x00	; 0
    413e:	ce 01       	movw	r24, r28
    4140:	0e 94 a0 17 	call	0x2f40	; 0x2f40 <_ZN4UTFT14LCD_Write_DATAEc>
    4144:	68 e0       	ldi	r22, 0x08	; 8
    4146:	ce 01       	movw	r24, r28
    4148:	0e 94 a0 17 	call	0x2f40	; 0x2f40 <_ZN4UTFT14LCD_Write_DATAEc>
    414c:	6b e2       	ldi	r22, 0x2B	; 43
    414e:	ce 01       	movw	r24, r28
    4150:	0e 94 a0 17 	call	0x2f40	; 0x2f40 <_ZN4UTFT14LCD_Write_DATAEc>
    4154:	60 e0       	ldi	r22, 0x00	; 0
    4156:	ce 01       	movw	r24, r28
    4158:	0e 94 a0 17 	call	0x2f40	; 0x2f40 <_ZN4UTFT14LCD_Write_DATAEc>
    415c:	62 e0       	ldi	r22, 0x02	; 2
    415e:	ce 01       	movw	r24, r28
    4160:	0e 94 a0 17 	call	0x2f40	; 0x2f40 <_ZN4UTFT14LCD_Write_DATAEc>
    4164:	60 e0       	ldi	r22, 0x00	; 0
    4166:	ce 01       	movw	r24, r28
    4168:	0e 94 a0 17 	call	0x2f40	; 0x2f40 <_ZN4UTFT14LCD_Write_DATAEc>
    416c:	66 eb       	ldi	r22, 0xB6	; 182
    416e:	ce 01       	movw	r24, r28
    4170:	0e 94 64 17 	call	0x2ec8	; 0x2ec8 <_ZN4UTFT13LCD_Write_COMEc>
    4174:	61 e0       	ldi	r22, 0x01	; 1
    4176:	ce 01       	movw	r24, r28
    4178:	0e 94 a0 17 	call	0x2f40	; 0x2f40 <_ZN4UTFT14LCD_Write_DATAEc>
    417c:	60 e2       	ldi	r22, 0x20	; 32
    417e:	ce 01       	movw	r24, r28
    4180:	0e 94 a0 17 	call	0x2f40	; 0x2f40 <_ZN4UTFT14LCD_Write_DATAEc>
    4184:	60 e0       	ldi	r22, 0x00	; 0
    4186:	ce 01       	movw	r24, r28
    4188:	0e 94 a0 17 	call	0x2f40	; 0x2f40 <_ZN4UTFT14LCD_Write_DATAEc>
    418c:	64 e0       	ldi	r22, 0x04	; 4
    418e:	ce 01       	movw	r24, r28
    4190:	0e 94 a0 17 	call	0x2f40	; 0x2f40 <_ZN4UTFT14LCD_Write_DATAEc>
    4194:	6c e0       	ldi	r22, 0x0C	; 12
    4196:	ce 01       	movw	r24, r28
    4198:	0e 94 a0 17 	call	0x2f40	; 0x2f40 <_ZN4UTFT14LCD_Write_DATAEc>
    419c:	60 e0       	ldi	r22, 0x00	; 0
    419e:	ce 01       	movw	r24, r28
    41a0:	0e 94 a0 17 	call	0x2f40	; 0x2f40 <_ZN4UTFT14LCD_Write_DATAEc>
    41a4:	62 e0       	ldi	r22, 0x02	; 2
    41a6:	ce 01       	movw	r24, r28
    41a8:	0e 94 a0 17 	call	0x2f40	; 0x2f40 <_ZN4UTFT14LCD_Write_DATAEc>
    41ac:	6a eb       	ldi	r22, 0xBA	; 186
    41ae:	ce 01       	movw	r24, r28
    41b0:	0e 94 64 17 	call	0x2ec8	; 0x2ec8 <_ZN4UTFT13LCD_Write_COMEc>
    41b4:	6f e0       	ldi	r22, 0x0F	; 15
    41b6:	ce 01       	movw	r24, r28
    41b8:	0e 94 a0 17 	call	0x2f40	; 0x2f40 <_ZN4UTFT14LCD_Write_DATAEc>
    41bc:	68 eb       	ldi	r22, 0xB8	; 184
    41be:	ce 01       	movw	r24, r28
    41c0:	0e 94 64 17 	call	0x2ec8	; 0x2ec8 <_ZN4UTFT13LCD_Write_COMEc>
    41c4:	67 e0       	ldi	r22, 0x07	; 7
    41c6:	ce 01       	movw	r24, r28
    41c8:	0e 94 a0 17 	call	0x2f40	; 0x2f40 <_ZN4UTFT14LCD_Write_DATAEc>
    41cc:	61 e0       	ldi	r22, 0x01	; 1
    41ce:	ce 01       	movw	r24, r28
    41d0:	0e 94 a0 17 	call	0x2f40	; 0x2f40 <_ZN4UTFT14LCD_Write_DATAEc>
    41d4:	66 e3       	ldi	r22, 0x36	; 54
    41d6:	ce 01       	movw	r24, r28
    41d8:	0e 94 64 17 	call	0x2ec8	; 0x2ec8 <_ZN4UTFT13LCD_Write_COMEc>
    41dc:	62 e2       	ldi	r22, 0x22	; 34
    41de:	ce 01       	movw	r24, r28
    41e0:	0e 94 a0 17 	call	0x2f40	; 0x2f40 <_ZN4UTFT14LCD_Write_DATAEc>
    41e4:	60 ef       	ldi	r22, 0xF0	; 240
    41e6:	ce 01       	movw	r24, r28
    41e8:	0e 94 64 17 	call	0x2ec8	; 0x2ec8 <_ZN4UTFT13LCD_Write_COMEc>
    41ec:	63 e0       	ldi	r22, 0x03	; 3
    41ee:	ce 01       	movw	r24, r28
    41f0:	0e 94 a0 17 	call	0x2f40	; 0x2f40 <_ZN4UTFT14LCD_Write_DATAEc>
    41f4:	61 e0       	ldi	r22, 0x01	; 1
    41f6:	70 e0       	ldi	r23, 0x00	; 0
    41f8:	80 e0       	ldi	r24, 0x00	; 0
    41fa:	90 e0       	ldi	r25, 0x00	; 0
    41fc:	0e 94 a6 36 	call	0x6d4c	; 0x6d4c <delay>
    4200:	0f e0       	ldi	r16, 0x0F	; 15
    4202:	11 e0       	ldi	r17, 0x01	; 1
    4204:	2f ed       	ldi	r18, 0xDF	; 223
    4206:	31 e0       	ldi	r19, 0x01	; 1
    4208:	40 e0       	ldi	r20, 0x00	; 0
    420a:	50 e0       	ldi	r21, 0x00	; 0
    420c:	60 e0       	ldi	r22, 0x00	; 0
    420e:	70 e0       	ldi	r23, 0x00	; 0
    4210:	ce 01       	movw	r24, r28
    4212:	0e 94 c7 17 	call	0x2f8e	; 0x2f8e <_ZN4UTFT5setXYEjjjj>
    4216:	69 e2       	ldi	r22, 0x29	; 41
    4218:	ce 01       	movw	r24, r28
    421a:	0e 94 64 17 	call	0x2ec8	; 0x2ec8 <_ZN4UTFT13LCD_Write_COMEc>
    421e:	6e eb       	ldi	r22, 0xBE	; 190
    4220:	ce 01       	movw	r24, r28
    4222:	0e 94 64 17 	call	0x2ec8	; 0x2ec8 <_ZN4UTFT13LCD_Write_COMEc>
    4226:	66 e0       	ldi	r22, 0x06	; 6
    4228:	ce 01       	movw	r24, r28
    422a:	0e 94 a0 17 	call	0x2f40	; 0x2f40 <_ZN4UTFT14LCD_Write_DATAEc>
    422e:	60 ef       	ldi	r22, 0xF0	; 240
    4230:	ce 01       	movw	r24, r28
    4232:	0e 94 a0 17 	call	0x2f40	; 0x2f40 <_ZN4UTFT14LCD_Write_DATAEc>
    4236:	61 e0       	ldi	r22, 0x01	; 1
    4238:	ce 01       	movw	r24, r28
    423a:	0e 94 a0 17 	call	0x2f40	; 0x2f40 <_ZN4UTFT14LCD_Write_DATAEc>
    423e:	60 ef       	ldi	r22, 0xF0	; 240
    4240:	ce 01       	movw	r24, r28
    4242:	0e 94 a0 17 	call	0x2f40	; 0x2f40 <_ZN4UTFT14LCD_Write_DATAEc>
    4246:	60 e0       	ldi	r22, 0x00	; 0
    4248:	ce 01       	movw	r24, r28
    424a:	0e 94 a0 17 	call	0x2f40	; 0x2f40 <_ZN4UTFT14LCD_Write_DATAEc>
    424e:	60 e0       	ldi	r22, 0x00	; 0
    4250:	ce 01       	movw	r24, r28
    4252:	0e 94 a0 17 	call	0x2f40	; 0x2f40 <_ZN4UTFT14LCD_Write_DATAEc>
    4256:	60 ed       	ldi	r22, 0xD0	; 208
    4258:	ce 01       	movw	r24, r28
    425a:	0e 94 64 17 	call	0x2ec8	; 0x2ec8 <_ZN4UTFT13LCD_Write_COMEc>
    425e:	6d e0       	ldi	r22, 0x0D	; 13
    4260:	ce 01       	movw	r24, r28
    4262:	0e 94 a0 17 	call	0x2f40	; 0x2f40 <_ZN4UTFT14LCD_Write_DATAEc>
    4266:	0c 94 da 2a 	jmp	0x55b4	; 0x55b4 <_ZN4UTFT7InitLCDEh+0x23a4>
    426a:	62 ee       	ldi	r22, 0xE2	; 226
    426c:	ce 01       	movw	r24, r28
    426e:	0e 94 64 17 	call	0x2ec8	; 0x2ec8 <_ZN4UTFT13LCD_Write_COMEc>
    4272:	6e e1       	ldi	r22, 0x1E	; 30
    4274:	ce 01       	movw	r24, r28
    4276:	0e 94 a0 17 	call	0x2f40	; 0x2f40 <_ZN4UTFT14LCD_Write_DATAEc>
    427a:	62 e0       	ldi	r22, 0x02	; 2
    427c:	ce 01       	movw	r24, r28
    427e:	0e 94 a0 17 	call	0x2f40	; 0x2f40 <_ZN4UTFT14LCD_Write_DATAEc>
    4282:	64 e5       	ldi	r22, 0x54	; 84
    4284:	ce 01       	movw	r24, r28
    4286:	0e 94 a0 17 	call	0x2f40	; 0x2f40 <_ZN4UTFT14LCD_Write_DATAEc>
    428a:	60 ee       	ldi	r22, 0xE0	; 224
    428c:	ce 01       	movw	r24, r28
    428e:	0e 94 64 17 	call	0x2ec8	; 0x2ec8 <_ZN4UTFT13LCD_Write_COMEc>
    4292:	61 e0       	ldi	r22, 0x01	; 1
    4294:	ce 01       	movw	r24, r28
    4296:	0e 94 a0 17 	call	0x2f40	; 0x2f40 <_ZN4UTFT14LCD_Write_DATAEc>
    429a:	6a e0       	ldi	r22, 0x0A	; 10
    429c:	70 e0       	ldi	r23, 0x00	; 0
    429e:	80 e0       	ldi	r24, 0x00	; 0
    42a0:	90 e0       	ldi	r25, 0x00	; 0
    42a2:	0e 94 a6 36 	call	0x6d4c	; 0x6d4c <delay>
    42a6:	60 ee       	ldi	r22, 0xE0	; 224
    42a8:	ce 01       	movw	r24, r28
    42aa:	0e 94 64 17 	call	0x2ec8	; 0x2ec8 <_ZN4UTFT13LCD_Write_COMEc>
    42ae:	63 e0       	ldi	r22, 0x03	; 3
    42b0:	ce 01       	movw	r24, r28
    42b2:	0e 94 a0 17 	call	0x2f40	; 0x2f40 <_ZN4UTFT14LCD_Write_DATAEc>
    42b6:	6a e0       	ldi	r22, 0x0A	; 10
    42b8:	70 e0       	ldi	r23, 0x00	; 0
    42ba:	80 e0       	ldi	r24, 0x00	; 0
    42bc:	90 e0       	ldi	r25, 0x00	; 0
    42be:	0e 94 a6 36 	call	0x6d4c	; 0x6d4c <delay>
    42c2:	61 e0       	ldi	r22, 0x01	; 1
    42c4:	ce 01       	movw	r24, r28
    42c6:	0e 94 64 17 	call	0x2ec8	; 0x2ec8 <_ZN4UTFT13LCD_Write_COMEc>
    42ca:	64 e6       	ldi	r22, 0x64	; 100
    42cc:	70 e0       	ldi	r23, 0x00	; 0
    42ce:	80 e0       	ldi	r24, 0x00	; 0
    42d0:	90 e0       	ldi	r25, 0x00	; 0
    42d2:	0e 94 a6 36 	call	0x6d4c	; 0x6d4c <delay>
    42d6:	66 ee       	ldi	r22, 0xE6	; 230
    42d8:	ce 01       	movw	r24, r28
    42da:	0e 94 64 17 	call	0x2ec8	; 0x2ec8 <_ZN4UTFT13LCD_Write_COMEc>
    42de:	63 e0       	ldi	r22, 0x03	; 3
    42e0:	ce 01       	movw	r24, r28
    42e2:	0e 94 a0 17 	call	0x2f40	; 0x2f40 <_ZN4UTFT14LCD_Write_DATAEc>
    42e6:	6f ef       	ldi	r22, 0xFF	; 255
    42e8:	ce 01       	movw	r24, r28
    42ea:	0e 94 a0 17 	call	0x2f40	; 0x2f40 <_ZN4UTFT14LCD_Write_DATAEc>
    42ee:	6f ef       	ldi	r22, 0xFF	; 255
    42f0:	ce 01       	movw	r24, r28
    42f2:	0e 94 a0 17 	call	0x2f40	; 0x2f40 <_ZN4UTFT14LCD_Write_DATAEc>
    42f6:	60 eb       	ldi	r22, 0xB0	; 176
    42f8:	ce 01       	movw	r24, r28
    42fa:	0e 94 64 17 	call	0x2ec8	; 0x2ec8 <_ZN4UTFT13LCD_Write_COMEc>
    42fe:	64 e2       	ldi	r22, 0x24	; 36
    4300:	ce 01       	movw	r24, r28
    4302:	0e 94 a0 17 	call	0x2f40	; 0x2f40 <_ZN4UTFT14LCD_Write_DATAEc>
    4306:	60 e0       	ldi	r22, 0x00	; 0
    4308:	ce 01       	movw	r24, r28
    430a:	0e 94 a0 17 	call	0x2f40	; 0x2f40 <_ZN4UTFT14LCD_Write_DATAEc>
    430e:	63 e0       	ldi	r22, 0x03	; 3
    4310:	ce 01       	movw	r24, r28
    4312:	0e 94 a0 17 	call	0x2f40	; 0x2f40 <_ZN4UTFT14LCD_Write_DATAEc>
    4316:	6f e1       	ldi	r22, 0x1F	; 31
    4318:	ce 01       	movw	r24, r28
    431a:	0e 94 a0 17 	call	0x2f40	; 0x2f40 <_ZN4UTFT14LCD_Write_DATAEc>
    431e:	61 e0       	ldi	r22, 0x01	; 1
    4320:	ce 01       	movw	r24, r28
    4322:	0e 94 a0 17 	call	0x2f40	; 0x2f40 <_ZN4UTFT14LCD_Write_DATAEc>
    4326:	6f ed       	ldi	r22, 0xDF	; 223
    4328:	ce 01       	movw	r24, r28
    432a:	0e 94 a0 17 	call	0x2f40	; 0x2f40 <_ZN4UTFT14LCD_Write_DATAEc>
    432e:	60 e0       	ldi	r22, 0x00	; 0
    4330:	ce 01       	movw	r24, r28
    4332:	0e 94 a0 17 	call	0x2f40	; 0x2f40 <_ZN4UTFT14LCD_Write_DATAEc>
    4336:	64 eb       	ldi	r22, 0xB4	; 180
    4338:	ce 01       	movw	r24, r28
    433a:	0e 94 64 17 	call	0x2ec8	; 0x2ec8 <_ZN4UTFT13LCD_Write_COMEc>
    433e:	63 e0       	ldi	r22, 0x03	; 3
    4340:	ce 01       	movw	r24, r28
    4342:	0e 94 a0 17 	call	0x2f40	; 0x2f40 <_ZN4UTFT14LCD_Write_DATAEc>
    4346:	60 ea       	ldi	r22, 0xA0	; 160
    4348:	ce 01       	movw	r24, r28
    434a:	0e 94 a0 17 	call	0x2f40	; 0x2f40 <_ZN4UTFT14LCD_Write_DATAEc>
    434e:	60 e0       	ldi	r22, 0x00	; 0
    4350:	ce 01       	movw	r24, r28
    4352:	0e 94 a0 17 	call	0x2f40	; 0x2f40 <_ZN4UTFT14LCD_Write_DATAEc>
    4356:	6e e2       	ldi	r22, 0x2E	; 46
    4358:	ce 01       	movw	r24, r28
    435a:	0e 94 a0 17 	call	0x2f40	; 0x2f40 <_ZN4UTFT14LCD_Write_DATAEc>
    435e:	60 e3       	ldi	r22, 0x30	; 48
    4360:	ce 01       	movw	r24, r28
    4362:	0e 94 a0 17 	call	0x2f40	; 0x2f40 <_ZN4UTFT14LCD_Write_DATAEc>
    4366:	60 e0       	ldi	r22, 0x00	; 0
    4368:	ce 01       	movw	r24, r28
    436a:	0e 94 a0 17 	call	0x2f40	; 0x2f40 <_ZN4UTFT14LCD_Write_DATAEc>
    436e:	6f e0       	ldi	r22, 0x0F	; 15
    4370:	ce 01       	movw	r24, r28
    4372:	0e 94 a0 17 	call	0x2f40	; 0x2f40 <_ZN4UTFT14LCD_Write_DATAEc>
    4376:	60 e0       	ldi	r22, 0x00	; 0
    4378:	ce 01       	movw	r24, r28
    437a:	0e 94 a0 17 	call	0x2f40	; 0x2f40 <_ZN4UTFT14LCD_Write_DATAEc>
    437e:	66 eb       	ldi	r22, 0xB6	; 182
    4380:	ce 01       	movw	r24, r28
    4382:	0e 94 64 17 	call	0x2ec8	; 0x2ec8 <_ZN4UTFT13LCD_Write_COMEc>
    4386:	62 e0       	ldi	r22, 0x02	; 2
    4388:	ce 01       	movw	r24, r28
    438a:	0e 94 a0 17 	call	0x2f40	; 0x2f40 <_ZN4UTFT14LCD_Write_DATAEc>
    438e:	6d e0       	ldi	r22, 0x0D	; 13
    4390:	ce 01       	movw	r24, r28
    4392:	0e 94 a0 17 	call	0x2f40	; 0x2f40 <_ZN4UTFT14LCD_Write_DATAEc>
    4396:	60 e0       	ldi	r22, 0x00	; 0
    4398:	ce 01       	movw	r24, r28
    439a:	0e 94 a0 17 	call	0x2f40	; 0x2f40 <_ZN4UTFT14LCD_Write_DATAEc>
    439e:	60 e1       	ldi	r22, 0x10	; 16
    43a0:	ce 01       	movw	r24, r28
    43a2:	0e 94 a0 17 	call	0x2f40	; 0x2f40 <_ZN4UTFT14LCD_Write_DATAEc>
    43a6:	60 e1       	ldi	r22, 0x10	; 16
    43a8:	ce 01       	movw	r24, r28
    43aa:	0e 94 a0 17 	call	0x2f40	; 0x2f40 <_ZN4UTFT14LCD_Write_DATAEc>
    43ae:	60 e0       	ldi	r22, 0x00	; 0
    43b0:	ce 01       	movw	r24, r28
    43b2:	0e 94 a0 17 	call	0x2f40	; 0x2f40 <_ZN4UTFT14LCD_Write_DATAEc>
    43b6:	68 e0       	ldi	r22, 0x08	; 8
    43b8:	ce 01       	movw	r24, r28
    43ba:	0e 94 a0 17 	call	0x2f40	; 0x2f40 <_ZN4UTFT14LCD_Write_DATAEc>
    43be:	6a eb       	ldi	r22, 0xBA	; 186
    43c0:	ce 01       	movw	r24, r28
    43c2:	0e 94 64 17 	call	0x2ec8	; 0x2ec8 <_ZN4UTFT13LCD_Write_COMEc>
    43c6:	6f e0       	ldi	r22, 0x0F	; 15
    43c8:	ce 01       	movw	r24, r28
    43ca:	0e 94 a0 17 	call	0x2f40	; 0x2f40 <_ZN4UTFT14LCD_Write_DATAEc>
    43ce:	68 eb       	ldi	r22, 0xB8	; 184
    43d0:	ce 01       	movw	r24, r28
    43d2:	0e 94 64 17 	call	0x2ec8	; 0x2ec8 <_ZN4UTFT13LCD_Write_COMEc>
    43d6:	67 e0       	ldi	r22, 0x07	; 7
    43d8:	ce 01       	movw	r24, r28
    43da:	0e 94 a0 17 	call	0x2f40	; 0x2f40 <_ZN4UTFT14LCD_Write_DATAEc>
    43de:	61 e0       	ldi	r22, 0x01	; 1
    43e0:	ce 01       	movw	r24, r28
    43e2:	0e 94 a0 17 	call	0x2f40	; 0x2f40 <_ZN4UTFT14LCD_Write_DATAEc>
    43e6:	66 e3       	ldi	r22, 0x36	; 54
    43e8:	ce 01       	movw	r24, r28
    43ea:	0e 94 64 17 	call	0x2ec8	; 0x2ec8 <_ZN4UTFT13LCD_Write_COMEc>
    43ee:	62 e2       	ldi	r22, 0x22	; 34
    43f0:	ce 01       	movw	r24, r28
    43f2:	0e 94 a0 17 	call	0x2f40	; 0x2f40 <_ZN4UTFT14LCD_Write_DATAEc>
    43f6:	60 ef       	ldi	r22, 0xF0	; 240
    43f8:	ce 01       	movw	r24, r28
    43fa:	0e 94 64 17 	call	0x2ec8	; 0x2ec8 <_ZN4UTFT13LCD_Write_COMEc>
    43fe:	63 e0       	ldi	r22, 0x03	; 3
    4400:	ce 01       	movw	r24, r28
    4402:	0e 94 a0 17 	call	0x2f40	; 0x2f40 <_ZN4UTFT14LCD_Write_DATAEc>
    4406:	61 e0       	ldi	r22, 0x01	; 1
    4408:	70 e0       	ldi	r23, 0x00	; 0
    440a:	80 e0       	ldi	r24, 0x00	; 0
    440c:	90 e0       	ldi	r25, 0x00	; 0
    440e:	d2 c0       	rjmp	.+420    	; 0x45b4 <_ZN4UTFT7InitLCDEh+0x13a4>
    4410:	62 ee       	ldi	r22, 0xE2	; 226
    4412:	ce 01       	movw	r24, r28
    4414:	0e 94 64 17 	call	0x2ec8	; 0x2ec8 <_ZN4UTFT13LCD_Write_COMEc>
    4418:	63 e2       	ldi	r22, 0x23	; 35
    441a:	ce 01       	movw	r24, r28
    441c:	0e 94 a0 17 	call	0x2f40	; 0x2f40 <_ZN4UTFT14LCD_Write_DATAEc>
    4420:	62 e0       	ldi	r22, 0x02	; 2
    4422:	ce 01       	movw	r24, r28
    4424:	0e 94 a0 17 	call	0x2f40	; 0x2f40 <_ZN4UTFT14LCD_Write_DATAEc>
    4428:	64 e0       	ldi	r22, 0x04	; 4
    442a:	ce 01       	movw	r24, r28
    442c:	0e 94 a0 17 	call	0x2f40	; 0x2f40 <_ZN4UTFT14LCD_Write_DATAEc>
    4430:	60 ee       	ldi	r22, 0xE0	; 224
    4432:	ce 01       	movw	r24, r28
    4434:	0e 94 64 17 	call	0x2ec8	; 0x2ec8 <_ZN4UTFT13LCD_Write_COMEc>
    4438:	61 e0       	ldi	r22, 0x01	; 1
    443a:	ce 01       	movw	r24, r28
    443c:	0e 94 a0 17 	call	0x2f40	; 0x2f40 <_ZN4UTFT14LCD_Write_DATAEc>
    4440:	6a e0       	ldi	r22, 0x0A	; 10
    4442:	70 e0       	ldi	r23, 0x00	; 0
    4444:	80 e0       	ldi	r24, 0x00	; 0
    4446:	90 e0       	ldi	r25, 0x00	; 0
    4448:	0e 94 a6 36 	call	0x6d4c	; 0x6d4c <delay>
    444c:	60 ee       	ldi	r22, 0xE0	; 224
    444e:	ce 01       	movw	r24, r28
    4450:	0e 94 64 17 	call	0x2ec8	; 0x2ec8 <_ZN4UTFT13LCD_Write_COMEc>
    4454:	63 e0       	ldi	r22, 0x03	; 3
    4456:	ce 01       	movw	r24, r28
    4458:	0e 94 a0 17 	call	0x2f40	; 0x2f40 <_ZN4UTFT14LCD_Write_DATAEc>
    445c:	6a e0       	ldi	r22, 0x0A	; 10
    445e:	70 e0       	ldi	r23, 0x00	; 0
    4460:	80 e0       	ldi	r24, 0x00	; 0
    4462:	90 e0       	ldi	r25, 0x00	; 0
    4464:	0e 94 a6 36 	call	0x6d4c	; 0x6d4c <delay>
    4468:	61 e0       	ldi	r22, 0x01	; 1
    446a:	ce 01       	movw	r24, r28
    446c:	0e 94 64 17 	call	0x2ec8	; 0x2ec8 <_ZN4UTFT13LCD_Write_COMEc>
    4470:	64 e6       	ldi	r22, 0x64	; 100
    4472:	70 e0       	ldi	r23, 0x00	; 0
    4474:	80 e0       	ldi	r24, 0x00	; 0
    4476:	90 e0       	ldi	r25, 0x00	; 0
    4478:	0e 94 a6 36 	call	0x6d4c	; 0x6d4c <delay>
    447c:	66 ee       	ldi	r22, 0xE6	; 230
    447e:	ce 01       	movw	r24, r28
    4480:	0e 94 64 17 	call	0x2ec8	; 0x2ec8 <_ZN4UTFT13LCD_Write_COMEc>
    4484:	64 e0       	ldi	r22, 0x04	; 4
    4486:	ce 01       	movw	r24, r28
    4488:	0e 94 a0 17 	call	0x2f40	; 0x2f40 <_ZN4UTFT14LCD_Write_DATAEc>
    448c:	63 e9       	ldi	r22, 0x93	; 147
    448e:	ce 01       	movw	r24, r28
    4490:	0e 94 a0 17 	call	0x2f40	; 0x2f40 <_ZN4UTFT14LCD_Write_DATAEc>
    4494:	60 ee       	ldi	r22, 0xE0	; 224
    4496:	ce 01       	movw	r24, r28
    4498:	0e 94 a0 17 	call	0x2f40	; 0x2f40 <_ZN4UTFT14LCD_Write_DATAEc>
    449c:	60 eb       	ldi	r22, 0xB0	; 176
    449e:	ce 01       	movw	r24, r28
    44a0:	0e 94 64 17 	call	0x2ec8	; 0x2ec8 <_ZN4UTFT13LCD_Write_COMEc>
    44a4:	60 e0       	ldi	r22, 0x00	; 0
    44a6:	ce 01       	movw	r24, r28
    44a8:	0e 94 a0 17 	call	0x2f40	; 0x2f40 <_ZN4UTFT14LCD_Write_DATAEc>
    44ac:	60 e0       	ldi	r22, 0x00	; 0
    44ae:	ce 01       	movw	r24, r28
    44b0:	0e 94 a0 17 	call	0x2f40	; 0x2f40 <_ZN4UTFT14LCD_Write_DATAEc>
    44b4:	63 e0       	ldi	r22, 0x03	; 3
    44b6:	ce 01       	movw	r24, r28
    44b8:	0e 94 a0 17 	call	0x2f40	; 0x2f40 <_ZN4UTFT14LCD_Write_DATAEc>
    44bc:	6f e1       	ldi	r22, 0x1F	; 31
    44be:	ce 01       	movw	r24, r28
    44c0:	0e 94 a0 17 	call	0x2f40	; 0x2f40 <_ZN4UTFT14LCD_Write_DATAEc>
    44c4:	61 e0       	ldi	r22, 0x01	; 1
    44c6:	ce 01       	movw	r24, r28
    44c8:	0e 94 a0 17 	call	0x2f40	; 0x2f40 <_ZN4UTFT14LCD_Write_DATAEc>
    44cc:	6f ed       	ldi	r22, 0xDF	; 223
    44ce:	ce 01       	movw	r24, r28
    44d0:	0e 94 a0 17 	call	0x2f40	; 0x2f40 <_ZN4UTFT14LCD_Write_DATAEc>
    44d4:	60 e0       	ldi	r22, 0x00	; 0
    44d6:	ce 01       	movw	r24, r28
    44d8:	0e 94 a0 17 	call	0x2f40	; 0x2f40 <_ZN4UTFT14LCD_Write_DATAEc>
    44dc:	64 eb       	ldi	r22, 0xB4	; 180
    44de:	ce 01       	movw	r24, r28
    44e0:	0e 94 64 17 	call	0x2ec8	; 0x2ec8 <_ZN4UTFT13LCD_Write_COMEc>
    44e4:	63 e0       	ldi	r22, 0x03	; 3
    44e6:	ce 01       	movw	r24, r28
    44e8:	0e 94 a0 17 	call	0x2f40	; 0x2f40 <_ZN4UTFT14LCD_Write_DATAEc>
    44ec:	60 ea       	ldi	r22, 0xA0	; 160
    44ee:	ce 01       	movw	r24, r28
    44f0:	0e 94 a0 17 	call	0x2f40	; 0x2f40 <_ZN4UTFT14LCD_Write_DATAEc>
    44f4:	60 e0       	ldi	r22, 0x00	; 0
    44f6:	ce 01       	movw	r24, r28
    44f8:	0e 94 a0 17 	call	0x2f40	; 0x2f40 <_ZN4UTFT14LCD_Write_DATAEc>
    44fc:	6e e2       	ldi	r22, 0x2E	; 46
    44fe:	ce 01       	movw	r24, r28
    4500:	0e 94 a0 17 	call	0x2f40	; 0x2f40 <_ZN4UTFT14LCD_Write_DATAEc>
    4504:	60 e3       	ldi	r22, 0x30	; 48
    4506:	ce 01       	movw	r24, r28
    4508:	0e 94 a0 17 	call	0x2f40	; 0x2f40 <_ZN4UTFT14LCD_Write_DATAEc>
    450c:	60 e0       	ldi	r22, 0x00	; 0
    450e:	ce 01       	movw	r24, r28
    4510:	0e 94 a0 17 	call	0x2f40	; 0x2f40 <_ZN4UTFT14LCD_Write_DATAEc>
    4514:	6f e0       	ldi	r22, 0x0F	; 15
    4516:	ce 01       	movw	r24, r28
    4518:	0e 94 a0 17 	call	0x2f40	; 0x2f40 <_ZN4UTFT14LCD_Write_DATAEc>
    451c:	60 e0       	ldi	r22, 0x00	; 0
    451e:	ce 01       	movw	r24, r28
    4520:	0e 94 a0 17 	call	0x2f40	; 0x2f40 <_ZN4UTFT14LCD_Write_DATAEc>
    4524:	66 eb       	ldi	r22, 0xB6	; 182
    4526:	ce 01       	movw	r24, r28
    4528:	0e 94 64 17 	call	0x2ec8	; 0x2ec8 <_ZN4UTFT13LCD_Write_COMEc>
    452c:	62 e0       	ldi	r22, 0x02	; 2
    452e:	ce 01       	movw	r24, r28
    4530:	0e 94 a0 17 	call	0x2f40	; 0x2f40 <_ZN4UTFT14LCD_Write_DATAEc>
    4534:	6d e0       	ldi	r22, 0x0D	; 13
    4536:	ce 01       	movw	r24, r28
    4538:	0e 94 a0 17 	call	0x2f40	; 0x2f40 <_ZN4UTFT14LCD_Write_DATAEc>
    453c:	60 e0       	ldi	r22, 0x00	; 0
    453e:	ce 01       	movw	r24, r28
    4540:	0e 94 a0 17 	call	0x2f40	; 0x2f40 <_ZN4UTFT14LCD_Write_DATAEc>
    4544:	60 e1       	ldi	r22, 0x10	; 16
    4546:	ce 01       	movw	r24, r28
    4548:	0e 94 a0 17 	call	0x2f40	; 0x2f40 <_ZN4UTFT14LCD_Write_DATAEc>
    454c:	60 e1       	ldi	r22, 0x10	; 16
    454e:	ce 01       	movw	r24, r28
    4550:	0e 94 a0 17 	call	0x2f40	; 0x2f40 <_ZN4UTFT14LCD_Write_DATAEc>
    4554:	60 e0       	ldi	r22, 0x00	; 0
    4556:	ce 01       	movw	r24, r28
    4558:	0e 94 a0 17 	call	0x2f40	; 0x2f40 <_ZN4UTFT14LCD_Write_DATAEc>
    455c:	68 e0       	ldi	r22, 0x08	; 8
    455e:	ce 01       	movw	r24, r28
    4560:	0e 94 a0 17 	call	0x2f40	; 0x2f40 <_ZN4UTFT14LCD_Write_DATAEc>
    4564:	6a eb       	ldi	r22, 0xBA	; 186
    4566:	ce 01       	movw	r24, r28
    4568:	0e 94 64 17 	call	0x2ec8	; 0x2ec8 <_ZN4UTFT13LCD_Write_COMEc>
    456c:	65 e0       	ldi	r22, 0x05	; 5
    456e:	ce 01       	movw	r24, r28
    4570:	0e 94 a0 17 	call	0x2f40	; 0x2f40 <_ZN4UTFT14LCD_Write_DATAEc>
    4574:	68 eb       	ldi	r22, 0xB8	; 184
    4576:	ce 01       	movw	r24, r28
    4578:	0e 94 64 17 	call	0x2ec8	; 0x2ec8 <_ZN4UTFT13LCD_Write_COMEc>
    457c:	67 e0       	ldi	r22, 0x07	; 7
    457e:	ce 01       	movw	r24, r28
    4580:	0e 94 a0 17 	call	0x2f40	; 0x2f40 <_ZN4UTFT14LCD_Write_DATAEc>
    4584:	61 e0       	ldi	r22, 0x01	; 1
    4586:	ce 01       	movw	r24, r28
    4588:	0e 94 a0 17 	call	0x2f40	; 0x2f40 <_ZN4UTFT14LCD_Write_DATAEc>
    458c:	66 e3       	ldi	r22, 0x36	; 54
    458e:	ce 01       	movw	r24, r28
    4590:	0e 94 64 17 	call	0x2ec8	; 0x2ec8 <_ZN4UTFT13LCD_Write_COMEc>
    4594:	62 e2       	ldi	r22, 0x22	; 34
    4596:	ce 01       	movw	r24, r28
    4598:	0e 94 a0 17 	call	0x2f40	; 0x2f40 <_ZN4UTFT14LCD_Write_DATAEc>
    459c:	60 ef       	ldi	r22, 0xF0	; 240
    459e:	ce 01       	movw	r24, r28
    45a0:	0e 94 64 17 	call	0x2ec8	; 0x2ec8 <_ZN4UTFT13LCD_Write_COMEc>
    45a4:	63 e0       	ldi	r22, 0x03	; 3
    45a6:	ce 01       	movw	r24, r28
    45a8:	0e 94 a0 17 	call	0x2f40	; 0x2f40 <_ZN4UTFT14LCD_Write_DATAEc>
    45ac:	6a e0       	ldi	r22, 0x0A	; 10
    45ae:	70 e0       	ldi	r23, 0x00	; 0
    45b0:	80 e0       	ldi	r24, 0x00	; 0
    45b2:	90 e0       	ldi	r25, 0x00	; 0
    45b4:	0e 94 a6 36 	call	0x6d4c	; 0x6d4c <delay>
    45b8:	0f ed       	ldi	r16, 0xDF	; 223
    45ba:	11 e0       	ldi	r17, 0x01	; 1
    45bc:	2f e1       	ldi	r18, 0x1F	; 31
    45be:	33 e0       	ldi	r19, 0x03	; 3
    45c0:	23 ce       	rjmp	.-954    	; 0x4208 <_ZN4UTFT7InitLCDEh+0xff8>
    45c2:	44 e0       	ldi	r20, 0x04	; 4
    45c4:	50 e2       	ldi	r21, 0x20	; 32
    45c6:	61 e1       	ldi	r22, 0x11	; 17
    45c8:	ce 01       	movw	r24, r28
    45ca:	0e 94 b8 17 	call	0x2f70	; 0x2f70 <_ZN4UTFT18LCD_Write_COM_DATAEci>
    45ce:	40 e0       	ldi	r20, 0x00	; 0
    45d0:	5c ec       	ldi	r21, 0xCC	; 204
    45d2:	63 e1       	ldi	r22, 0x13	; 19
    45d4:	ce 01       	movw	r24, r28
    45d6:	0e 94 b8 17 	call	0x2f70	; 0x2f70 <_ZN4UTFT18LCD_Write_COM_DATAEci>
    45da:	40 e0       	ldi	r20, 0x00	; 0
    45dc:	56 e2       	ldi	r21, 0x26	; 38
    45de:	65 e1       	ldi	r22, 0x15	; 21
    45e0:	ce 01       	movw	r24, r28
    45e2:	0e 94 b8 17 	call	0x2f70	; 0x2f70 <_ZN4UTFT18LCD_Write_COM_DATAEci>
    45e6:	4a e2       	ldi	r20, 0x2A	; 42
    45e8:	55 e2       	ldi	r21, 0x25	; 37
    45ea:	64 e1       	ldi	r22, 0x14	; 20
    45ec:	ce 01       	movw	r24, r28
    45ee:	0e 94 b8 17 	call	0x2f70	; 0x2f70 <_ZN4UTFT18LCD_Write_COM_DATAEci>
    45f2:	43 e3       	ldi	r20, 0x33	; 51
    45f4:	50 e0       	ldi	r21, 0x00	; 0
    45f6:	62 e1       	ldi	r22, 0x12	; 18
    45f8:	ce 01       	movw	r24, r28
    45fa:	0e 94 b8 17 	call	0x2f70	; 0x2f70 <_ZN4UTFT18LCD_Write_COM_DATAEci>
    45fe:	44 e0       	ldi	r20, 0x04	; 4
    4600:	5c ec       	ldi	r21, 0xCC	; 204
    4602:	63 e1       	ldi	r22, 0x13	; 19
    4604:	ce 01       	movw	r24, r28
    4606:	0e 94 b8 17 	call	0x2f70	; 0x2f70 <_ZN4UTFT18LCD_Write_COM_DATAEci>
    460a:	46 e0       	ldi	r20, 0x06	; 6
    460c:	5c ec       	ldi	r21, 0xCC	; 204
    460e:	63 e1       	ldi	r22, 0x13	; 19
    4610:	ce 01       	movw	r24, r28
    4612:	0e 94 b8 17 	call	0x2f70	; 0x2f70 <_ZN4UTFT18LCD_Write_COM_DATAEci>
    4616:	4f e4       	ldi	r20, 0x4F	; 79
    4618:	5c ec       	ldi	r21, 0xCC	; 204
    461a:	63 e1       	ldi	r22, 0x13	; 19
    461c:	ce 01       	movw	r24, r28
    461e:	0e 94 b8 17 	call	0x2f70	; 0x2f70 <_ZN4UTFT18LCD_Write_COM_DATAEci>
    4622:	4f e4       	ldi	r20, 0x4F	; 79
    4624:	57 e6       	ldi	r21, 0x67	; 103
    4626:	63 e1       	ldi	r22, 0x13	; 19
    4628:	ce 01       	movw	r24, r28
    462a:	0e 94 b8 17 	call	0x2f70	; 0x2f70 <_ZN4UTFT18LCD_Write_COM_DATAEci>
    462e:	43 e0       	ldi	r20, 0x03	; 3
    4630:	50 e2       	ldi	r21, 0x20	; 32
    4632:	61 e1       	ldi	r22, 0x11	; 17
    4634:	ce 01       	movw	r24, r28
    4636:	0e 94 b8 17 	call	0x2f70	; 0x2f70 <_ZN4UTFT18LCD_Write_COM_DATAEci>
    463a:	49 e0       	ldi	r20, 0x09	; 9
    463c:	56 e2       	ldi	r21, 0x26	; 38
    463e:	60 e3       	ldi	r22, 0x30	; 48
    4640:	ce 01       	movw	r24, r28
    4642:	0e 94 b8 17 	call	0x2f70	; 0x2f70 <_ZN4UTFT18LCD_Write_COM_DATAEci>
    4646:	4c e2       	ldi	r20, 0x2C	; 44
    4648:	54 e2       	ldi	r21, 0x24	; 36
    464a:	61 e3       	ldi	r22, 0x31	; 49
    464c:	ce 01       	movw	r24, r28
    464e:	0e 94 b8 17 	call	0x2f70	; 0x2f70 <_ZN4UTFT18LCD_Write_COM_DATAEci>
    4652:	43 e2       	ldi	r20, 0x23	; 35
    4654:	5f e1       	ldi	r21, 0x1F	; 31
    4656:	62 e3       	ldi	r22, 0x32	; 50
    4658:	ce 01       	movw	r24, r28
    465a:	0e 94 b8 17 	call	0x2f70	; 0x2f70 <_ZN4UTFT18LCD_Write_COM_DATAEci>
    465e:	45 e2       	ldi	r20, 0x25	; 37
    4660:	54 e2       	ldi	r21, 0x24	; 36
    4662:	63 e3       	ldi	r22, 0x33	; 51
    4664:	ce 01       	movw	r24, r28
    4666:	0e 94 b8 17 	call	0x2f70	; 0x2f70 <_ZN4UTFT18LCD_Write_COM_DATAEci>
    466a:	46 e2       	ldi	r20, 0x26	; 38
    466c:	52 e2       	ldi	r21, 0x22	; 34
    466e:	64 e3       	ldi	r22, 0x34	; 52
    4670:	ce 01       	movw	r24, r28
    4672:	0e 94 b8 17 	call	0x2f70	; 0x2f70 <_ZN4UTFT18LCD_Write_COM_DATAEci>
    4676:	43 e2       	ldi	r20, 0x23	; 35
    4678:	55 e2       	ldi	r21, 0x25	; 37
    467a:	65 e3       	ldi	r22, 0x35	; 53
    467c:	ce 01       	movw	r24, r28
    467e:	0e 94 b8 17 	call	0x2f70	; 0x2f70 <_ZN4UTFT18LCD_Write_COM_DATAEci>
    4682:	4a e1       	ldi	r20, 0x1A	; 26
    4684:	5c e1       	ldi	r21, 0x1C	; 28
    4686:	66 e3       	ldi	r22, 0x36	; 54
    4688:	ce 01       	movw	r24, r28
    468a:	0e 94 b8 17 	call	0x2f70	; 0x2f70 <_ZN4UTFT18LCD_Write_COM_DATAEci>
    468e:	4d e1       	ldi	r20, 0x1D	; 29
    4690:	53 e1       	ldi	r21, 0x13	; 19
    4692:	67 e3       	ldi	r22, 0x37	; 55
    4694:	ce 01       	movw	r24, r28
    4696:	0e 94 b8 17 	call	0x2f70	; 0x2f70 <_ZN4UTFT18LCD_Write_COM_DATAEci>
    469a:	41 e1       	ldi	r20, 0x11	; 17
    469c:	5b e0       	ldi	r21, 0x0B	; 11
    469e:	68 e3       	ldi	r22, 0x38	; 56
    46a0:	ce 01       	movw	r24, r28
    46a2:	0e 94 b8 17 	call	0x2f70	; 0x2f70 <_ZN4UTFT18LCD_Write_COM_DATAEci>
    46a6:	40 e1       	ldi	r20, 0x10	; 16
    46a8:	52 e1       	ldi	r21, 0x12	; 18
    46aa:	69 e3       	ldi	r22, 0x39	; 57
    46ac:	ce 01       	movw	r24, r28
    46ae:	0e 94 b8 17 	call	0x2f70	; 0x2f70 <_ZN4UTFT18LCD_Write_COM_DATAEci>
    46b2:	45 e1       	ldi	r20, 0x15	; 21
    46b4:	53 e1       	ldi	r21, 0x13	; 19
    46b6:	6a e3       	ldi	r22, 0x3A	; 58
    46b8:	ce 01       	movw	r24, r28
    46ba:	0e 94 b8 17 	call	0x2f70	; 0x2f70 <_ZN4UTFT18LCD_Write_COM_DATAEci>
    46be:	49 e1       	ldi	r20, 0x19	; 25
    46c0:	56 e3       	ldi	r21, 0x36	; 54
    46c2:	6b e3       	ldi	r22, 0x3B	; 59
    46c4:	ce 01       	movw	r24, r28
    46c6:	0e 94 b8 17 	call	0x2f70	; 0x2f70 <_ZN4UTFT18LCD_Write_COM_DATAEci>
    46ca:	40 e0       	ldi	r20, 0x00	; 0
    46cc:	5d e0       	ldi	r21, 0x0D	; 13
    46ce:	6c e3       	ldi	r22, 0x3C	; 60
    46d0:	ce 01       	movw	r24, r28
    46d2:	0e 94 b8 17 	call	0x2f70	; 0x2f70 <_ZN4UTFT18LCD_Write_COM_DATAEci>
    46d6:	4d e0       	ldi	r20, 0x0D	; 13
    46d8:	50 e0       	ldi	r21, 0x00	; 0
    46da:	6d e3       	ldi	r22, 0x3D	; 61
    46dc:	ce 01       	movw	r24, r28
    46de:	0e 94 b8 17 	call	0x2f70	; 0x2f70 <_ZN4UTFT18LCD_Write_COM_DATAEci>
    46e2:	47 e0       	ldi	r20, 0x07	; 7
    46e4:	50 e0       	ldi	r21, 0x00	; 0
    46e6:	66 e1       	ldi	r22, 0x16	; 22
    46e8:	ce 01       	movw	r24, r28
    46ea:	0e 94 b8 17 	call	0x2f70	; 0x2f70 <_ZN4UTFT18LCD_Write_COM_DATAEci>
    46ee:	43 e1       	ldi	r20, 0x13	; 19
    46f0:	50 e0       	ldi	r21, 0x00	; 0
    46f2:	62 e0       	ldi	r22, 0x02	; 2
    46f4:	ce 01       	movw	r24, r28
    46f6:	0e 94 b8 17 	call	0x2f70	; 0x2f70 <_ZN4UTFT18LCD_Write_COM_DATAEci>
    46fa:	43 e0       	ldi	r20, 0x03	; 3
    46fc:	50 e0       	ldi	r21, 0x00	; 0
    46fe:	63 e0       	ldi	r22, 0x03	; 3
    4700:	ce 01       	movw	r24, r28
    4702:	0e 94 b8 17 	call	0x2f70	; 0x2f70 <_ZN4UTFT18LCD_Write_COM_DATAEci>
    4706:	47 e2       	ldi	r20, 0x27	; 39
    4708:	51 e0       	ldi	r21, 0x01	; 1
    470a:	61 e0       	ldi	r22, 0x01	; 1
    470c:	ce 01       	movw	r24, r28
    470e:	0e 94 b8 17 	call	0x2f70	; 0x2f70 <_ZN4UTFT18LCD_Write_COM_DATAEci>
    4712:	43 e0       	ldi	r20, 0x03	; 3
    4714:	53 e0       	ldi	r21, 0x03	; 3
    4716:	68 e0       	ldi	r22, 0x08	; 8
    4718:	ce 01       	movw	r24, r28
    471a:	0e 94 b8 17 	call	0x2f70	; 0x2f70 <_ZN4UTFT18LCD_Write_COM_DATAEci>
    471e:	4b e0       	ldi	r20, 0x0B	; 11
    4720:	50 e0       	ldi	r21, 0x00	; 0
    4722:	6a e0       	ldi	r22, 0x0A	; 10
    4724:	ce 01       	movw	r24, r28
    4726:	0e 94 b8 17 	call	0x2f70	; 0x2f70 <_ZN4UTFT18LCD_Write_COM_DATAEci>
    472a:	43 e0       	ldi	r20, 0x03	; 3
    472c:	50 e0       	ldi	r21, 0x00	; 0
    472e:	6b e0       	ldi	r22, 0x0B	; 11
    4730:	ce 01       	movw	r24, r28
    4732:	0e 94 b8 17 	call	0x2f70	; 0x2f70 <_ZN4UTFT18LCD_Write_COM_DATAEci>
    4736:	40 e0       	ldi	r20, 0x00	; 0
    4738:	50 e0       	ldi	r21, 0x00	; 0
    473a:	6c e0       	ldi	r22, 0x0C	; 12
    473c:	ce 01       	movw	r24, r28
    473e:	0e 94 b8 17 	call	0x2f70	; 0x2f70 <_ZN4UTFT18LCD_Write_COM_DATAEci>
    4742:	40 e0       	ldi	r20, 0x00	; 0
    4744:	50 e0       	ldi	r21, 0x00	; 0
    4746:	61 e4       	ldi	r22, 0x41	; 65
    4748:	ce 01       	movw	r24, r28
    474a:	0e 94 b8 17 	call	0x2f70	; 0x2f70 <_ZN4UTFT18LCD_Write_COM_DATAEci>
    474e:	40 e0       	ldi	r20, 0x00	; 0
    4750:	50 e0       	ldi	r21, 0x00	; 0
    4752:	60 e5       	ldi	r22, 0x50	; 80
    4754:	ce 01       	movw	r24, r28
    4756:	0e 94 b8 17 	call	0x2f70	; 0x2f70 <_ZN4UTFT18LCD_Write_COM_DATAEci>
    475a:	45 e0       	ldi	r20, 0x05	; 5
    475c:	50 e0       	ldi	r21, 0x00	; 0
    475e:	60 e6       	ldi	r22, 0x60	; 96
    4760:	ce 01       	movw	r24, r28
    4762:	0e 94 b8 17 	call	0x2f70	; 0x2f70 <_ZN4UTFT18LCD_Write_COM_DATAEci>
    4766:	4b e0       	ldi	r20, 0x0B	; 11
    4768:	50 e0       	ldi	r21, 0x00	; 0
    476a:	60 e7       	ldi	r22, 0x70	; 112
    476c:	ce 01       	movw	r24, r28
    476e:	0e 94 b8 17 	call	0x2f70	; 0x2f70 <_ZN4UTFT18LCD_Write_COM_DATAEci>
    4772:	40 e0       	ldi	r20, 0x00	; 0
    4774:	50 e0       	ldi	r21, 0x00	; 0
    4776:	61 e7       	ldi	r22, 0x71	; 113
    4778:	ce 01       	movw	r24, r28
    477a:	0e 94 b8 17 	call	0x2f70	; 0x2f70 <_ZN4UTFT18LCD_Write_COM_DATAEci>
    477e:	40 e0       	ldi	r20, 0x00	; 0
    4780:	50 e0       	ldi	r21, 0x00	; 0
    4782:	68 e7       	ldi	r22, 0x78	; 120
    4784:	ce 01       	movw	r24, r28
    4786:	0e 94 b8 17 	call	0x2f70	; 0x2f70 <_ZN4UTFT18LCD_Write_COM_DATAEci>
    478a:	40 e0       	ldi	r20, 0x00	; 0
    478c:	50 e0       	ldi	r21, 0x00	; 0
    478e:	6a e7       	ldi	r22, 0x7A	; 122
    4790:	ce 01       	movw	r24, r28
    4792:	0e 94 b8 17 	call	0x2f70	; 0x2f70 <_ZN4UTFT18LCD_Write_COM_DATAEci>
    4796:	47 e0       	ldi	r20, 0x07	; 7
    4798:	50 e0       	ldi	r21, 0x00	; 0
    479a:	69 e7       	ldi	r22, 0x79	; 121
    479c:	ce 01       	movw	r24, r28
    479e:	0e 94 b8 17 	call	0x2f70	; 0x2f70 <_ZN4UTFT18LCD_Write_COM_DATAEci>
    47a2:	41 e5       	ldi	r20, 0x51	; 81
    47a4:	50 e0       	ldi	r21, 0x00	; 0
    47a6:	67 e0       	ldi	r22, 0x07	; 7
    47a8:	ce 01       	movw	r24, r28
    47aa:	0e 94 b8 17 	call	0x2f70	; 0x2f70 <_ZN4UTFT18LCD_Write_COM_DATAEci>
    47ae:	43 e5       	ldi	r20, 0x53	; 83
    47b0:	50 e0       	ldi	r21, 0x00	; 0
    47b2:	67 e0       	ldi	r22, 0x07	; 7
    47b4:	ce 01       	movw	r24, r28
    47b6:	0e 94 b8 17 	call	0x2f70	; 0x2f70 <_ZN4UTFT18LCD_Write_COM_DATAEci>
    47ba:	40 e0       	ldi	r20, 0x00	; 0
    47bc:	50 e0       	ldi	r21, 0x00	; 0
    47be:	69 e7       	ldi	r22, 0x79	; 121
    47c0:	92 c1       	rjmp	.+804    	; 0x4ae6 <_ZN4UTFT7InitLCDEh+0x18d6>
    47c2:	61 e1       	ldi	r22, 0x11	; 17
    47c4:	ce 01       	movw	r24, r28
    47c6:	0e 94 64 17 	call	0x2ec8	; 0x2ec8 <_ZN4UTFT13LCD_Write_COMEc>
    47ca:	64 e1       	ldi	r22, 0x14	; 20
    47cc:	70 e0       	ldi	r23, 0x00	; 0
    47ce:	80 e0       	ldi	r24, 0x00	; 0
    47d0:	90 e0       	ldi	r25, 0x00	; 0
    47d2:	0e 94 a6 36 	call	0x6d4c	; 0x6d4c <delay>
    47d6:	60 ed       	ldi	r22, 0xD0	; 208
    47d8:	ce 01       	movw	r24, r28
    47da:	0e 94 64 17 	call	0x2ec8	; 0x2ec8 <_ZN4UTFT13LCD_Write_COMEc>
    47de:	67 e0       	ldi	r22, 0x07	; 7
    47e0:	ce 01       	movw	r24, r28
    47e2:	0e 94 a0 17 	call	0x2f40	; 0x2f40 <_ZN4UTFT14LCD_Write_DATAEc>
    47e6:	62 e4       	ldi	r22, 0x42	; 66
    47e8:	ce 01       	movw	r24, r28
    47ea:	0e 94 a0 17 	call	0x2f40	; 0x2f40 <_ZN4UTFT14LCD_Write_DATAEc>
    47ee:	68 e1       	ldi	r22, 0x18	; 24
    47f0:	ce 01       	movw	r24, r28
    47f2:	0e 94 a0 17 	call	0x2f40	; 0x2f40 <_ZN4UTFT14LCD_Write_DATAEc>
    47f6:	61 ed       	ldi	r22, 0xD1	; 209
    47f8:	ce 01       	movw	r24, r28
    47fa:	0e 94 64 17 	call	0x2ec8	; 0x2ec8 <_ZN4UTFT13LCD_Write_COMEc>
    47fe:	60 e0       	ldi	r22, 0x00	; 0
    4800:	ce 01       	movw	r24, r28
    4802:	0e 94 a0 17 	call	0x2f40	; 0x2f40 <_ZN4UTFT14LCD_Write_DATAEc>
    4806:	67 e0       	ldi	r22, 0x07	; 7
    4808:	ce 01       	movw	r24, r28
    480a:	0e 94 a0 17 	call	0x2f40	; 0x2f40 <_ZN4UTFT14LCD_Write_DATAEc>
    480e:	60 e1       	ldi	r22, 0x10	; 16
    4810:	ce 01       	movw	r24, r28
    4812:	0e 94 a0 17 	call	0x2f40	; 0x2f40 <_ZN4UTFT14LCD_Write_DATAEc>
    4816:	62 ed       	ldi	r22, 0xD2	; 210
    4818:	ce 01       	movw	r24, r28
    481a:	0e 94 64 17 	call	0x2ec8	; 0x2ec8 <_ZN4UTFT13LCD_Write_COMEc>
    481e:	61 e0       	ldi	r22, 0x01	; 1
    4820:	ce 01       	movw	r24, r28
    4822:	0e 94 a0 17 	call	0x2f40	; 0x2f40 <_ZN4UTFT14LCD_Write_DATAEc>
    4826:	62 e0       	ldi	r22, 0x02	; 2
    4828:	ce 01       	movw	r24, r28
    482a:	0e 94 a0 17 	call	0x2f40	; 0x2f40 <_ZN4UTFT14LCD_Write_DATAEc>
    482e:	60 ec       	ldi	r22, 0xC0	; 192
    4830:	ce 01       	movw	r24, r28
    4832:	0e 94 64 17 	call	0x2ec8	; 0x2ec8 <_ZN4UTFT13LCD_Write_COMEc>
    4836:	60 e1       	ldi	r22, 0x10	; 16
    4838:	ce 01       	movw	r24, r28
    483a:	0e 94 a0 17 	call	0x2f40	; 0x2f40 <_ZN4UTFT14LCD_Write_DATAEc>
    483e:	6b e3       	ldi	r22, 0x3B	; 59
    4840:	ce 01       	movw	r24, r28
    4842:	0e 94 a0 17 	call	0x2f40	; 0x2f40 <_ZN4UTFT14LCD_Write_DATAEc>
    4846:	60 e0       	ldi	r22, 0x00	; 0
    4848:	ce 01       	movw	r24, r28
    484a:	0e 94 a0 17 	call	0x2f40	; 0x2f40 <_ZN4UTFT14LCD_Write_DATAEc>
    484e:	62 e0       	ldi	r22, 0x02	; 2
    4850:	ce 01       	movw	r24, r28
    4852:	0e 94 a0 17 	call	0x2f40	; 0x2f40 <_ZN4UTFT14LCD_Write_DATAEc>
    4856:	61 e1       	ldi	r22, 0x11	; 17
    4858:	ce 01       	movw	r24, r28
    485a:	0e 94 a0 17 	call	0x2f40	; 0x2f40 <_ZN4UTFT14LCD_Write_DATAEc>
    485e:	65 ec       	ldi	r22, 0xC5	; 197
    4860:	ce 01       	movw	r24, r28
    4862:	0e 94 64 17 	call	0x2ec8	; 0x2ec8 <_ZN4UTFT13LCD_Write_COMEc>
    4866:	63 e0       	ldi	r22, 0x03	; 3
    4868:	ce 01       	movw	r24, r28
    486a:	0e 94 a0 17 	call	0x2f40	; 0x2f40 <_ZN4UTFT14LCD_Write_DATAEc>
    486e:	68 ec       	ldi	r22, 0xC8	; 200
    4870:	ce 01       	movw	r24, r28
    4872:	0e 94 64 17 	call	0x2ec8	; 0x2ec8 <_ZN4UTFT13LCD_Write_COMEc>
    4876:	60 e0       	ldi	r22, 0x00	; 0
    4878:	ce 01       	movw	r24, r28
    487a:	0e 94 a0 17 	call	0x2f40	; 0x2f40 <_ZN4UTFT14LCD_Write_DATAEc>
    487e:	62 e3       	ldi	r22, 0x32	; 50
    4880:	ce 01       	movw	r24, r28
    4882:	0e 94 a0 17 	call	0x2f40	; 0x2f40 <_ZN4UTFT14LCD_Write_DATAEc>
    4886:	66 e3       	ldi	r22, 0x36	; 54
    4888:	ce 01       	movw	r24, r28
    488a:	0e 94 a0 17 	call	0x2f40	; 0x2f40 <_ZN4UTFT14LCD_Write_DATAEc>
    488e:	65 e4       	ldi	r22, 0x45	; 69
    4890:	ce 01       	movw	r24, r28
    4892:	0e 94 a0 17 	call	0x2f40	; 0x2f40 <_ZN4UTFT14LCD_Write_DATAEc>
    4896:	66 e0       	ldi	r22, 0x06	; 6
    4898:	ce 01       	movw	r24, r28
    489a:	0e 94 a0 17 	call	0x2f40	; 0x2f40 <_ZN4UTFT14LCD_Write_DATAEc>
    489e:	66 e1       	ldi	r22, 0x16	; 22
    48a0:	ce 01       	movw	r24, r28
    48a2:	0e 94 a0 17 	call	0x2f40	; 0x2f40 <_ZN4UTFT14LCD_Write_DATAEc>
    48a6:	67 e3       	ldi	r22, 0x37	; 55
    48a8:	ce 01       	movw	r24, r28
    48aa:	0e 94 a0 17 	call	0x2f40	; 0x2f40 <_ZN4UTFT14LCD_Write_DATAEc>
    48ae:	65 e7       	ldi	r22, 0x75	; 117
    48b0:	ce 01       	movw	r24, r28
    48b2:	0e 94 a0 17 	call	0x2f40	; 0x2f40 <_ZN4UTFT14LCD_Write_DATAEc>
    48b6:	67 e7       	ldi	r22, 0x77	; 119
    48b8:	ce 01       	movw	r24, r28
    48ba:	0e 94 a0 17 	call	0x2f40	; 0x2f40 <_ZN4UTFT14LCD_Write_DATAEc>
    48be:	64 e5       	ldi	r22, 0x54	; 84
    48c0:	ce 01       	movw	r24, r28
    48c2:	0e 94 a0 17 	call	0x2f40	; 0x2f40 <_ZN4UTFT14LCD_Write_DATAEc>
    48c6:	6c e0       	ldi	r22, 0x0C	; 12
    48c8:	ce 01       	movw	r24, r28
    48ca:	0e 94 a0 17 	call	0x2f40	; 0x2f40 <_ZN4UTFT14LCD_Write_DATAEc>
    48ce:	60 e0       	ldi	r22, 0x00	; 0
    48d0:	ce 01       	movw	r24, r28
    48d2:	0e 94 a0 17 	call	0x2f40	; 0x2f40 <_ZN4UTFT14LCD_Write_DATAEc>
    48d6:	66 e3       	ldi	r22, 0x36	; 54
    48d8:	ce 01       	movw	r24, r28
    48da:	0e 94 64 17 	call	0x2ec8	; 0x2ec8 <_ZN4UTFT13LCD_Write_COMEc>
    48de:	6a e0       	ldi	r22, 0x0A	; 10
    48e0:	ce 01       	movw	r24, r28
    48e2:	0e 94 a0 17 	call	0x2f40	; 0x2f40 <_ZN4UTFT14LCD_Write_DATAEc>
    48e6:	6a e3       	ldi	r22, 0x3A	; 58
    48e8:	ce 01       	movw	r24, r28
    48ea:	0e 94 64 17 	call	0x2ec8	; 0x2ec8 <_ZN4UTFT13LCD_Write_COMEc>
    48ee:	65 e5       	ldi	r22, 0x55	; 85
    48f0:	ce 01       	movw	r24, r28
    48f2:	0e 94 a0 17 	call	0x2f40	; 0x2f40 <_ZN4UTFT14LCD_Write_DATAEc>
    48f6:	6a e2       	ldi	r22, 0x2A	; 42
    48f8:	ce 01       	movw	r24, r28
    48fa:	0e 94 64 17 	call	0x2ec8	; 0x2ec8 <_ZN4UTFT13LCD_Write_COMEc>
    48fe:	60 e0       	ldi	r22, 0x00	; 0
    4900:	ce 01       	movw	r24, r28
    4902:	0e 94 a0 17 	call	0x2f40	; 0x2f40 <_ZN4UTFT14LCD_Write_DATAEc>
    4906:	60 e0       	ldi	r22, 0x00	; 0
    4908:	ce 01       	movw	r24, r28
    490a:	0e 94 a0 17 	call	0x2f40	; 0x2f40 <_ZN4UTFT14LCD_Write_DATAEc>
    490e:	61 e0       	ldi	r22, 0x01	; 1
    4910:	ce 01       	movw	r24, r28
    4912:	0e 94 a0 17 	call	0x2f40	; 0x2f40 <_ZN4UTFT14LCD_Write_DATAEc>
    4916:	6f e3       	ldi	r22, 0x3F	; 63
    4918:	ce 01       	movw	r24, r28
    491a:	0e 94 a0 17 	call	0x2f40	; 0x2f40 <_ZN4UTFT14LCD_Write_DATAEc>
    491e:	6b e2       	ldi	r22, 0x2B	; 43
    4920:	ce 01       	movw	r24, r28
    4922:	0e 94 64 17 	call	0x2ec8	; 0x2ec8 <_ZN4UTFT13LCD_Write_COMEc>
    4926:	60 e0       	ldi	r22, 0x00	; 0
    4928:	ce 01       	movw	r24, r28
    492a:	0e 94 a0 17 	call	0x2f40	; 0x2f40 <_ZN4UTFT14LCD_Write_DATAEc>
    492e:	60 e0       	ldi	r22, 0x00	; 0
    4930:	ce 01       	movw	r24, r28
    4932:	0e 94 a0 17 	call	0x2f40	; 0x2f40 <_ZN4UTFT14LCD_Write_DATAEc>
    4936:	61 e0       	ldi	r22, 0x01	; 1
    4938:	ce 01       	movw	r24, r28
    493a:	0e 94 a0 17 	call	0x2f40	; 0x2f40 <_ZN4UTFT14LCD_Write_DATAEc>
    493e:	60 ee       	ldi	r22, 0xE0	; 224
    4940:	ce 01       	movw	r24, r28
    4942:	0e 94 a0 17 	call	0x2f40	; 0x2f40 <_ZN4UTFT14LCD_Write_DATAEc>
    4946:	68 e7       	ldi	r22, 0x78	; 120
    4948:	70 e0       	ldi	r23, 0x00	; 0
    494a:	80 e0       	ldi	r24, 0x00	; 0
    494c:	90 e0       	ldi	r25, 0x00	; 0
    494e:	0e 94 a6 36 	call	0x6d4c	; 0x6d4c <delay>
    4952:	f8 c1       	rjmp	.+1008   	; 0x4d44 <_ZN4UTFT7InitLCDEh+0x1b34>
    4954:	4a e1       	ldi	r20, 0x1A	; 26
    4956:	50 e0       	ldi	r21, 0x00	; 0
    4958:	61 e1       	ldi	r22, 0x11	; 17
    495a:	ce 01       	movw	r24, r28
    495c:	0e 94 b8 17 	call	0x2f70	; 0x2f70 <_ZN4UTFT18LCD_Write_COM_DATAEci>
    4960:	41 e2       	ldi	r20, 0x21	; 33
    4962:	51 e3       	ldi	r21, 0x31	; 49
    4964:	62 e1       	ldi	r22, 0x12	; 18
    4966:	ce 01       	movw	r24, r28
    4968:	0e 94 b8 17 	call	0x2f70	; 0x2f70 <_ZN4UTFT18LCD_Write_COM_DATAEci>
    496c:	4c e6       	ldi	r20, 0x6C	; 108
    496e:	50 e0       	ldi	r21, 0x00	; 0
    4970:	63 e1       	ldi	r22, 0x13	; 19
    4972:	ce 01       	movw	r24, r28
    4974:	0e 94 b8 17 	call	0x2f70	; 0x2f70 <_ZN4UTFT18LCD_Write_COM_DATAEci>
    4978:	49 e4       	ldi	r20, 0x49	; 73
    497a:	52 e4       	ldi	r21, 0x42	; 66
    497c:	64 e1       	ldi	r22, 0x14	; 20
    497e:	ce 01       	movw	r24, r28
    4980:	0e 94 b8 17 	call	0x2f70	; 0x2f70 <_ZN4UTFT18LCD_Write_COM_DATAEci>
    4984:	40 e0       	ldi	r20, 0x00	; 0
    4986:	58 e0       	ldi	r21, 0x08	; 8
    4988:	60 e1       	ldi	r22, 0x10	; 16
    498a:	ce 01       	movw	r24, r28
    498c:	0e 94 b8 17 	call	0x2f70	; 0x2f70 <_ZN4UTFT18LCD_Write_COM_DATAEci>
    4990:	6a e0       	ldi	r22, 0x0A	; 10
    4992:	70 e0       	ldi	r23, 0x00	; 0
    4994:	80 e0       	ldi	r24, 0x00	; 0
    4996:	90 e0       	ldi	r25, 0x00	; 0
    4998:	0e 94 a6 36 	call	0x6d4c	; 0x6d4c <delay>
    499c:	4a e1       	ldi	r20, 0x1A	; 26
    499e:	51 e0       	ldi	r21, 0x01	; 1
    49a0:	61 e1       	ldi	r22, 0x11	; 17
    49a2:	ce 01       	movw	r24, r28
    49a4:	0e 94 b8 17 	call	0x2f70	; 0x2f70 <_ZN4UTFT18LCD_Write_COM_DATAEci>
    49a8:	6a e0       	ldi	r22, 0x0A	; 10
    49aa:	70 e0       	ldi	r23, 0x00	; 0
    49ac:	80 e0       	ldi	r24, 0x00	; 0
    49ae:	90 e0       	ldi	r25, 0x00	; 0
    49b0:	0e 94 a6 36 	call	0x6d4c	; 0x6d4c <delay>
    49b4:	4a e1       	ldi	r20, 0x1A	; 26
    49b6:	53 e0       	ldi	r21, 0x03	; 3
    49b8:	61 e1       	ldi	r22, 0x11	; 17
    49ba:	ce 01       	movw	r24, r28
    49bc:	0e 94 b8 17 	call	0x2f70	; 0x2f70 <_ZN4UTFT18LCD_Write_COM_DATAEci>
    49c0:	6a e0       	ldi	r22, 0x0A	; 10
    49c2:	70 e0       	ldi	r23, 0x00	; 0
    49c4:	80 e0       	ldi	r24, 0x00	; 0
    49c6:	90 e0       	ldi	r25, 0x00	; 0
    49c8:	0e 94 a6 36 	call	0x6d4c	; 0x6d4c <delay>
    49cc:	4a e1       	ldi	r20, 0x1A	; 26
    49ce:	57 e0       	ldi	r21, 0x07	; 7
    49d0:	61 e1       	ldi	r22, 0x11	; 17
    49d2:	ce 01       	movw	r24, r28
    49d4:	0e 94 b8 17 	call	0x2f70	; 0x2f70 <_ZN4UTFT18LCD_Write_COM_DATAEci>
    49d8:	6a e0       	ldi	r22, 0x0A	; 10
    49da:	70 e0       	ldi	r23, 0x00	; 0
    49dc:	80 e0       	ldi	r24, 0x00	; 0
    49de:	90 e0       	ldi	r25, 0x00	; 0
    49e0:	0e 94 a6 36 	call	0x6d4c	; 0x6d4c <delay>
    49e4:	4a e1       	ldi	r20, 0x1A	; 26
    49e6:	5f e0       	ldi	r21, 0x0F	; 15
    49e8:	61 e1       	ldi	r22, 0x11	; 17
    49ea:	ce 01       	movw	r24, r28
    49ec:	0e 94 b8 17 	call	0x2f70	; 0x2f70 <_ZN4UTFT18LCD_Write_COM_DATAEci>
    49f0:	6a e0       	ldi	r22, 0x0A	; 10
    49f2:	70 e0       	ldi	r23, 0x00	; 0
    49f4:	80 e0       	ldi	r24, 0x00	; 0
    49f6:	90 e0       	ldi	r25, 0x00	; 0
    49f8:	0e 94 a6 36 	call	0x6d4c	; 0x6d4c <delay>
    49fc:	4a e3       	ldi	r20, 0x3A	; 58
    49fe:	5f e0       	ldi	r21, 0x0F	; 15
    4a00:	61 e1       	ldi	r22, 0x11	; 17
    4a02:	ce 01       	movw	r24, r28
    4a04:	0e 94 b8 17 	call	0x2f70	; 0x2f70 <_ZN4UTFT18LCD_Write_COM_DATAEci>
    4a08:	6e e1       	ldi	r22, 0x1E	; 30
    4a0a:	70 e0       	ldi	r23, 0x00	; 0
    4a0c:	80 e0       	ldi	r24, 0x00	; 0
    4a0e:	90 e0       	ldi	r25, 0x00	; 0
    4a10:	0e 94 a6 36 	call	0x6d4c	; 0x6d4c <delay>
    4a14:	4c e1       	ldi	r20, 0x1C	; 28
    4a16:	51 e0       	ldi	r21, 0x01	; 1
    4a18:	61 e0       	ldi	r22, 0x01	; 1
    4a1a:	ce 01       	movw	r24, r28
    4a1c:	0e 94 b8 17 	call	0x2f70	; 0x2f70 <_ZN4UTFT18LCD_Write_COM_DATAEci>
    4a20:	40 e0       	ldi	r20, 0x00	; 0
    4a22:	51 e0       	ldi	r21, 0x01	; 1
    4a24:	62 e0       	ldi	r22, 0x02	; 2
    4a26:	ce 01       	movw	r24, r28
    4a28:	0e 94 b8 17 	call	0x2f70	; 0x2f70 <_ZN4UTFT18LCD_Write_COM_DATAEci>
    4a2c:	40 e3       	ldi	r20, 0x30	; 48
    4a2e:	50 e1       	ldi	r21, 0x10	; 16
    4a30:	63 e0       	ldi	r22, 0x03	; 3
    4a32:	ce 01       	movw	r24, r28
    4a34:	0e 94 b8 17 	call	0x2f70	; 0x2f70 <_ZN4UTFT18LCD_Write_COM_DATAEci>
    4a38:	40 e0       	ldi	r20, 0x00	; 0
    4a3a:	50 e0       	ldi	r21, 0x00	; 0
    4a3c:	67 e0       	ldi	r22, 0x07	; 7
    4a3e:	ce 01       	movw	r24, r28
    4a40:	0e 94 b8 17 	call	0x2f70	; 0x2f70 <_ZN4UTFT18LCD_Write_COM_DATAEci>
    4a44:	48 e0       	ldi	r20, 0x08	; 8
    4a46:	58 e0       	ldi	r21, 0x08	; 8
    4a48:	68 e0       	ldi	r22, 0x08	; 8
    4a4a:	ce 01       	movw	r24, r28
    4a4c:	0e 94 b8 17 	call	0x2f70	; 0x2f70 <_ZN4UTFT18LCD_Write_COM_DATAEci>
    4a50:	40 e0       	ldi	r20, 0x00	; 0
    4a52:	51 e1       	ldi	r21, 0x11	; 17
    4a54:	6b e0       	ldi	r22, 0x0B	; 11
    4a56:	ce 01       	movw	r24, r28
    4a58:	0e 94 b8 17 	call	0x2f70	; 0x2f70 <_ZN4UTFT18LCD_Write_COM_DATAEci>
    4a5c:	40 e0       	ldi	r20, 0x00	; 0
    4a5e:	50 e0       	ldi	r21, 0x00	; 0
    4a60:	6c e0       	ldi	r22, 0x0C	; 12
    4a62:	ce 01       	movw	r24, r28
    4a64:	0e 94 b8 17 	call	0x2f70	; 0x2f70 <_ZN4UTFT18LCD_Write_COM_DATAEci>
    4a68:	41 e0       	ldi	r20, 0x01	; 1
    4a6a:	54 e1       	ldi	r21, 0x14	; 20
    4a6c:	6f e0       	ldi	r22, 0x0F	; 15
    4a6e:	ce 01       	movw	r24, r28
    4a70:	0e 94 b8 17 	call	0x2f70	; 0x2f70 <_ZN4UTFT18LCD_Write_COM_DATAEci>
    4a74:	40 e0       	ldi	r20, 0x00	; 0
    4a76:	50 e0       	ldi	r21, 0x00	; 0
    4a78:	65 e1       	ldi	r22, 0x15	; 21
    4a7a:	ce 01       	movw	r24, r28
    4a7c:	0e 94 b8 17 	call	0x2f70	; 0x2f70 <_ZN4UTFT18LCD_Write_COM_DATAEci>
    4a80:	40 e0       	ldi	r20, 0x00	; 0
    4a82:	50 e0       	ldi	r21, 0x00	; 0
    4a84:	60 e2       	ldi	r22, 0x20	; 32
    4a86:	ce 01       	movw	r24, r28
    4a88:	0e 94 b8 17 	call	0x2f70	; 0x2f70 <_ZN4UTFT18LCD_Write_COM_DATAEci>
    4a8c:	40 e0       	ldi	r20, 0x00	; 0
    4a8e:	50 e0       	ldi	r21, 0x00	; 0
    4a90:	61 e2       	ldi	r22, 0x21	; 33
    4a92:	ce 01       	movw	r24, r28
    4a94:	0e 94 b8 17 	call	0x2f70	; 0x2f70 <_ZN4UTFT18LCD_Write_COM_DATAEci>
    4a98:	4f ea       	ldi	r20, 0xAF	; 175
    4a9a:	50 e0       	ldi	r21, 0x00	; 0
    4a9c:	66 e3       	ldi	r22, 0x36	; 54
    4a9e:	ce 01       	movw	r24, r28
    4aa0:	0e 94 b8 17 	call	0x2f70	; 0x2f70 <_ZN4UTFT18LCD_Write_COM_DATAEci>
    4aa4:	40 e0       	ldi	r20, 0x00	; 0
    4aa6:	50 e0       	ldi	r21, 0x00	; 0
    4aa8:	67 e3       	ldi	r22, 0x37	; 55
    4aaa:	ce 01       	movw	r24, r28
    4aac:	0e 94 b8 17 	call	0x2f70	; 0x2f70 <_ZN4UTFT18LCD_Write_COM_DATAEci>
    4ab0:	4b ed       	ldi	r20, 0xDB	; 219
    4ab2:	50 e0       	ldi	r21, 0x00	; 0
    4ab4:	68 e3       	ldi	r22, 0x38	; 56
    4ab6:	ce 01       	movw	r24, r28
    4ab8:	0e 94 b8 17 	call	0x2f70	; 0x2f70 <_ZN4UTFT18LCD_Write_COM_DATAEci>
    4abc:	40 e0       	ldi	r20, 0x00	; 0
    4abe:	50 e0       	ldi	r21, 0x00	; 0
    4ac0:	69 e3       	ldi	r22, 0x39	; 57
    4ac2:	ce 01       	movw	r24, r28
    4ac4:	0e 94 b8 17 	call	0x2f70	; 0x2f70 <_ZN4UTFT18LCD_Write_COM_DATAEci>
    4ac8:	41 e0       	ldi	r20, 0x01	; 1
    4aca:	5b e0       	ldi	r21, 0x0B	; 11
    4acc:	6f e0       	ldi	r22, 0x0F	; 15
    4ace:	ce 01       	movw	r24, r28
    4ad0:	0e 94 b8 17 	call	0x2f70	; 0x2f70 <_ZN4UTFT18LCD_Write_COM_DATAEci>
    4ad4:	46 e1       	ldi	r20, 0x16	; 22
    4ad6:	50 e0       	ldi	r21, 0x00	; 0
    4ad8:	67 e0       	ldi	r22, 0x07	; 7
    4ada:	ce 01       	movw	r24, r28
    4adc:	0e 94 b8 17 	call	0x2f70	; 0x2f70 <_ZN4UTFT18LCD_Write_COM_DATAEci>
    4ae0:	47 e1       	ldi	r20, 0x17	; 23
    4ae2:	50 e0       	ldi	r21, 0x00	; 0
    4ae4:	67 e0       	ldi	r22, 0x07	; 7
    4ae6:	ce 01       	movw	r24, r28
    4ae8:	0e 94 b8 17 	call	0x2f70	; 0x2f70 <_ZN4UTFT18LCD_Write_COM_DATAEci>
    4aec:	0c 94 01 1d 	jmp	0x3a02	; 0x3a02 <_ZN4UTFT7InitLCDEh+0x7f2>
    4af0:	61 e1       	ldi	r22, 0x11	; 17
    4af2:	ce 01       	movw	r24, r28
    4af4:	0e 94 64 17 	call	0x2ec8	; 0x2ec8 <_ZN4UTFT13LCD_Write_COMEc>
    4af8:	68 e7       	ldi	r22, 0x78	; 120
    4afa:	70 e0       	ldi	r23, 0x00	; 0
    4afc:	80 e0       	ldi	r24, 0x00	; 0
    4afe:	90 e0       	ldi	r25, 0x00	; 0
    4b00:	0e 94 a6 36 	call	0x6d4c	; 0x6d4c <delay>
    4b04:	61 eb       	ldi	r22, 0xB1	; 177
    4b06:	ce 01       	movw	r24, r28
    4b08:	0e 94 64 17 	call	0x2ec8	; 0x2ec8 <_ZN4UTFT13LCD_Write_COMEc>
    4b0c:	65 e0       	ldi	r22, 0x05	; 5
    4b0e:	ce 01       	movw	r24, r28
    4b10:	0e 94 a0 17 	call	0x2f40	; 0x2f40 <_ZN4UTFT14LCD_Write_DATAEc>
    4b14:	6c e3       	ldi	r22, 0x3C	; 60
    4b16:	ce 01       	movw	r24, r28
    4b18:	0e 94 a0 17 	call	0x2f40	; 0x2f40 <_ZN4UTFT14LCD_Write_DATAEc>
    4b1c:	6c e3       	ldi	r22, 0x3C	; 60
    4b1e:	ce 01       	movw	r24, r28
    4b20:	0e 94 a0 17 	call	0x2f40	; 0x2f40 <_ZN4UTFT14LCD_Write_DATAEc>
    4b24:	62 eb       	ldi	r22, 0xB2	; 178
    4b26:	ce 01       	movw	r24, r28
    4b28:	0e 94 64 17 	call	0x2ec8	; 0x2ec8 <_ZN4UTFT13LCD_Write_COMEc>
    4b2c:	65 e0       	ldi	r22, 0x05	; 5
    4b2e:	ce 01       	movw	r24, r28
    4b30:	0e 94 a0 17 	call	0x2f40	; 0x2f40 <_ZN4UTFT14LCD_Write_DATAEc>
    4b34:	6c e3       	ldi	r22, 0x3C	; 60
    4b36:	ce 01       	movw	r24, r28
    4b38:	0e 94 a0 17 	call	0x2f40	; 0x2f40 <_ZN4UTFT14LCD_Write_DATAEc>
    4b3c:	6c e3       	ldi	r22, 0x3C	; 60
    4b3e:	ce 01       	movw	r24, r28
    4b40:	0e 94 a0 17 	call	0x2f40	; 0x2f40 <_ZN4UTFT14LCD_Write_DATAEc>
    4b44:	63 eb       	ldi	r22, 0xB3	; 179
    4b46:	ce 01       	movw	r24, r28
    4b48:	0e 94 64 17 	call	0x2ec8	; 0x2ec8 <_ZN4UTFT13LCD_Write_COMEc>
    4b4c:	65 e0       	ldi	r22, 0x05	; 5
    4b4e:	ce 01       	movw	r24, r28
    4b50:	0e 94 a0 17 	call	0x2f40	; 0x2f40 <_ZN4UTFT14LCD_Write_DATAEc>
    4b54:	6c e3       	ldi	r22, 0x3C	; 60
    4b56:	ce 01       	movw	r24, r28
    4b58:	0e 94 a0 17 	call	0x2f40	; 0x2f40 <_ZN4UTFT14LCD_Write_DATAEc>
    4b5c:	6c e3       	ldi	r22, 0x3C	; 60
    4b5e:	ce 01       	movw	r24, r28
    4b60:	0e 94 a0 17 	call	0x2f40	; 0x2f40 <_ZN4UTFT14LCD_Write_DATAEc>
    4b64:	65 e0       	ldi	r22, 0x05	; 5
    4b66:	ce 01       	movw	r24, r28
    4b68:	0e 94 a0 17 	call	0x2f40	; 0x2f40 <_ZN4UTFT14LCD_Write_DATAEc>
    4b6c:	6c e3       	ldi	r22, 0x3C	; 60
    4b6e:	ce 01       	movw	r24, r28
    4b70:	0e 94 a0 17 	call	0x2f40	; 0x2f40 <_ZN4UTFT14LCD_Write_DATAEc>
    4b74:	6c e3       	ldi	r22, 0x3C	; 60
    4b76:	ce 01       	movw	r24, r28
    4b78:	0e 94 a0 17 	call	0x2f40	; 0x2f40 <_ZN4UTFT14LCD_Write_DATAEc>
    4b7c:	64 eb       	ldi	r22, 0xB4	; 180
    4b7e:	ce 01       	movw	r24, r28
    4b80:	0e 94 64 17 	call	0x2ec8	; 0x2ec8 <_ZN4UTFT13LCD_Write_COMEc>
    4b84:	63 e0       	ldi	r22, 0x03	; 3
    4b86:	ce 01       	movw	r24, r28
    4b88:	0e 94 a0 17 	call	0x2f40	; 0x2f40 <_ZN4UTFT14LCD_Write_DATAEc>
    4b8c:	60 ec       	ldi	r22, 0xC0	; 192
    4b8e:	ce 01       	movw	r24, r28
    4b90:	0e 94 64 17 	call	0x2ec8	; 0x2ec8 <_ZN4UTFT13LCD_Write_COMEc>
    4b94:	68 e2       	ldi	r22, 0x28	; 40
    4b96:	ce 01       	movw	r24, r28
    4b98:	0e 94 a0 17 	call	0x2f40	; 0x2f40 <_ZN4UTFT14LCD_Write_DATAEc>
    4b9c:	68 e0       	ldi	r22, 0x08	; 8
    4b9e:	ce 01       	movw	r24, r28
    4ba0:	0e 94 a0 17 	call	0x2f40	; 0x2f40 <_ZN4UTFT14LCD_Write_DATAEc>
    4ba4:	64 e0       	ldi	r22, 0x04	; 4
    4ba6:	ce 01       	movw	r24, r28
    4ba8:	0e 94 a0 17 	call	0x2f40	; 0x2f40 <_ZN4UTFT14LCD_Write_DATAEc>
    4bac:	61 ec       	ldi	r22, 0xC1	; 193
    4bae:	ce 01       	movw	r24, r28
    4bb0:	0e 94 64 17 	call	0x2ec8	; 0x2ec8 <_ZN4UTFT13LCD_Write_COMEc>
    4bb4:	60 ec       	ldi	r22, 0xC0	; 192
    4bb6:	ce 01       	movw	r24, r28
    4bb8:	0e 94 a0 17 	call	0x2f40	; 0x2f40 <_ZN4UTFT14LCD_Write_DATAEc>
    4bbc:	62 ec       	ldi	r22, 0xC2	; 194
    4bbe:	ce 01       	movw	r24, r28
    4bc0:	0e 94 64 17 	call	0x2ec8	; 0x2ec8 <_ZN4UTFT13LCD_Write_COMEc>
    4bc4:	6d e0       	ldi	r22, 0x0D	; 13
    4bc6:	ce 01       	movw	r24, r28
    4bc8:	0e 94 a0 17 	call	0x2f40	; 0x2f40 <_ZN4UTFT14LCD_Write_DATAEc>
    4bcc:	60 e0       	ldi	r22, 0x00	; 0
    4bce:	ce 01       	movw	r24, r28
    4bd0:	0e 94 a0 17 	call	0x2f40	; 0x2f40 <_ZN4UTFT14LCD_Write_DATAEc>
    4bd4:	63 ec       	ldi	r22, 0xC3	; 195
    4bd6:	ce 01       	movw	r24, r28
    4bd8:	0e 94 64 17 	call	0x2ec8	; 0x2ec8 <_ZN4UTFT13LCD_Write_COMEc>
    4bdc:	6d e8       	ldi	r22, 0x8D	; 141
    4bde:	ce 01       	movw	r24, r28
    4be0:	0e 94 a0 17 	call	0x2f40	; 0x2f40 <_ZN4UTFT14LCD_Write_DATAEc>
    4be4:	6a e2       	ldi	r22, 0x2A	; 42
    4be6:	ce 01       	movw	r24, r28
    4be8:	0e 94 a0 17 	call	0x2f40	; 0x2f40 <_ZN4UTFT14LCD_Write_DATAEc>
    4bec:	64 ec       	ldi	r22, 0xC4	; 196
    4bee:	ce 01       	movw	r24, r28
    4bf0:	0e 94 64 17 	call	0x2ec8	; 0x2ec8 <_ZN4UTFT13LCD_Write_COMEc>
    4bf4:	6d e8       	ldi	r22, 0x8D	; 141
    4bf6:	ce 01       	movw	r24, r28
    4bf8:	0e 94 a0 17 	call	0x2f40	; 0x2f40 <_ZN4UTFT14LCD_Write_DATAEc>
    4bfc:	6e ee       	ldi	r22, 0xEE	; 238
    4bfe:	ce 01       	movw	r24, r28
    4c00:	0e 94 a0 17 	call	0x2f40	; 0x2f40 <_ZN4UTFT14LCD_Write_DATAEc>
    4c04:	65 ec       	ldi	r22, 0xC5	; 197
    4c06:	ce 01       	movw	r24, r28
    4c08:	0e 94 64 17 	call	0x2ec8	; 0x2ec8 <_ZN4UTFT13LCD_Write_COMEc>
    4c0c:	6a e1       	ldi	r22, 0x1A	; 26
    4c0e:	ce 01       	movw	r24, r28
    4c10:	0e 94 a0 17 	call	0x2f40	; 0x2f40 <_ZN4UTFT14LCD_Write_DATAEc>
    4c14:	66 e3       	ldi	r22, 0x36	; 54
    4c16:	ce 01       	movw	r24, r28
    4c18:	0e 94 64 17 	call	0x2ec8	; 0x2ec8 <_ZN4UTFT13LCD_Write_COMEc>
    4c1c:	60 ec       	ldi	r22, 0xC0	; 192
    4c1e:	ce 01       	movw	r24, r28
    4c20:	0e 94 a0 17 	call	0x2f40	; 0x2f40 <_ZN4UTFT14LCD_Write_DATAEc>
    4c24:	60 ee       	ldi	r22, 0xE0	; 224
    4c26:	ce 01       	movw	r24, r28
    4c28:	0e 94 64 17 	call	0x2ec8	; 0x2ec8 <_ZN4UTFT13LCD_Write_COMEc>
    4c2c:	63 e0       	ldi	r22, 0x03	; 3
    4c2e:	ce 01       	movw	r24, r28
    4c30:	0e 94 a0 17 	call	0x2f40	; 0x2f40 <_ZN4UTFT14LCD_Write_DATAEc>
    4c34:	62 e2       	ldi	r22, 0x22	; 34
    4c36:	ce 01       	movw	r24, r28
    4c38:	0e 94 a0 17 	call	0x2f40	; 0x2f40 <_ZN4UTFT14LCD_Write_DATAEc>
    4c3c:	67 e0       	ldi	r22, 0x07	; 7
    4c3e:	ce 01       	movw	r24, r28
    4c40:	0e 94 a0 17 	call	0x2f40	; 0x2f40 <_ZN4UTFT14LCD_Write_DATAEc>
    4c44:	6a e0       	ldi	r22, 0x0A	; 10
    4c46:	ce 01       	movw	r24, r28
    4c48:	0e 94 a0 17 	call	0x2f40	; 0x2f40 <_ZN4UTFT14LCD_Write_DATAEc>
    4c4c:	6e e2       	ldi	r22, 0x2E	; 46
    4c4e:	ce 01       	movw	r24, r28
    4c50:	0e 94 a0 17 	call	0x2f40	; 0x2f40 <_ZN4UTFT14LCD_Write_DATAEc>
    4c54:	60 e3       	ldi	r22, 0x30	; 48
    4c56:	ce 01       	movw	r24, r28
    4c58:	0e 94 a0 17 	call	0x2f40	; 0x2f40 <_ZN4UTFT14LCD_Write_DATAEc>
    4c5c:	65 e2       	ldi	r22, 0x25	; 37
    4c5e:	ce 01       	movw	r24, r28
    4c60:	0e 94 a0 17 	call	0x2f40	; 0x2f40 <_ZN4UTFT14LCD_Write_DATAEc>
    4c64:	6a e2       	ldi	r22, 0x2A	; 42
    4c66:	ce 01       	movw	r24, r28
    4c68:	0e 94 a0 17 	call	0x2f40	; 0x2f40 <_ZN4UTFT14LCD_Write_DATAEc>
    4c6c:	68 e2       	ldi	r22, 0x28	; 40
    4c6e:	ce 01       	movw	r24, r28
    4c70:	0e 94 a0 17 	call	0x2f40	; 0x2f40 <_ZN4UTFT14LCD_Write_DATAEc>
    4c74:	66 e2       	ldi	r22, 0x26	; 38
    4c76:	ce 01       	movw	r24, r28
    4c78:	0e 94 a0 17 	call	0x2f40	; 0x2f40 <_ZN4UTFT14LCD_Write_DATAEc>
    4c7c:	6e e2       	ldi	r22, 0x2E	; 46
    4c7e:	ce 01       	movw	r24, r28
    4c80:	0e 94 a0 17 	call	0x2f40	; 0x2f40 <_ZN4UTFT14LCD_Write_DATAEc>
    4c84:	6a e3       	ldi	r22, 0x3A	; 58
    4c86:	ce 01       	movw	r24, r28
    4c88:	0e 94 a0 17 	call	0x2f40	; 0x2f40 <_ZN4UTFT14LCD_Write_DATAEc>
    4c8c:	60 e0       	ldi	r22, 0x00	; 0
    4c8e:	ce 01       	movw	r24, r28
    4c90:	0e 94 a0 17 	call	0x2f40	; 0x2f40 <_ZN4UTFT14LCD_Write_DATAEc>
    4c94:	61 e0       	ldi	r22, 0x01	; 1
    4c96:	ce 01       	movw	r24, r28
    4c98:	0e 94 a0 17 	call	0x2f40	; 0x2f40 <_ZN4UTFT14LCD_Write_DATAEc>
    4c9c:	63 e0       	ldi	r22, 0x03	; 3
    4c9e:	ce 01       	movw	r24, r28
    4ca0:	0e 94 a0 17 	call	0x2f40	; 0x2f40 <_ZN4UTFT14LCD_Write_DATAEc>
    4ca4:	63 e1       	ldi	r22, 0x13	; 19
    4ca6:	ce 01       	movw	r24, r28
    4ca8:	0e 94 a0 17 	call	0x2f40	; 0x2f40 <_ZN4UTFT14LCD_Write_DATAEc>
    4cac:	61 ee       	ldi	r22, 0xE1	; 225
    4cae:	ce 01       	movw	r24, r28
    4cb0:	0e 94 64 17 	call	0x2ec8	; 0x2ec8 <_ZN4UTFT13LCD_Write_COMEc>
    4cb4:	64 e0       	ldi	r22, 0x04	; 4
    4cb6:	ce 01       	movw	r24, r28
    4cb8:	0e 94 a0 17 	call	0x2f40	; 0x2f40 <_ZN4UTFT14LCD_Write_DATAEc>
    4cbc:	66 e1       	ldi	r22, 0x16	; 22
    4cbe:	ce 01       	movw	r24, r28
    4cc0:	0e 94 a0 17 	call	0x2f40	; 0x2f40 <_ZN4UTFT14LCD_Write_DATAEc>
    4cc4:	66 e0       	ldi	r22, 0x06	; 6
    4cc6:	ce 01       	movw	r24, r28
    4cc8:	0e 94 a0 17 	call	0x2f40	; 0x2f40 <_ZN4UTFT14LCD_Write_DATAEc>
    4ccc:	6d e0       	ldi	r22, 0x0D	; 13
    4cce:	ce 01       	movw	r24, r28
    4cd0:	0e 94 a0 17 	call	0x2f40	; 0x2f40 <_ZN4UTFT14LCD_Write_DATAEc>
    4cd4:	6d e2       	ldi	r22, 0x2D	; 45
    4cd6:	ce 01       	movw	r24, r28
    4cd8:	0e 94 a0 17 	call	0x2f40	; 0x2f40 <_ZN4UTFT14LCD_Write_DATAEc>
    4cdc:	66 e2       	ldi	r22, 0x26	; 38
    4cde:	ce 01       	movw	r24, r28
    4ce0:	0e 94 a0 17 	call	0x2f40	; 0x2f40 <_ZN4UTFT14LCD_Write_DATAEc>
    4ce4:	63 e2       	ldi	r22, 0x23	; 35
    4ce6:	ce 01       	movw	r24, r28
    4ce8:	0e 94 a0 17 	call	0x2f40	; 0x2f40 <_ZN4UTFT14LCD_Write_DATAEc>
    4cec:	67 e2       	ldi	r22, 0x27	; 39
    4cee:	ce 01       	movw	r24, r28
    4cf0:	0e 94 a0 17 	call	0x2f40	; 0x2f40 <_ZN4UTFT14LCD_Write_DATAEc>
    4cf4:	67 e2       	ldi	r22, 0x27	; 39
    4cf6:	ce 01       	movw	r24, r28
    4cf8:	0e 94 a0 17 	call	0x2f40	; 0x2f40 <_ZN4UTFT14LCD_Write_DATAEc>
    4cfc:	65 e2       	ldi	r22, 0x25	; 37
    4cfe:	ce 01       	movw	r24, r28
    4d00:	0e 94 a0 17 	call	0x2f40	; 0x2f40 <_ZN4UTFT14LCD_Write_DATAEc>
    4d04:	6d e2       	ldi	r22, 0x2D	; 45
    4d06:	ce 01       	movw	r24, r28
    4d08:	0e 94 a0 17 	call	0x2f40	; 0x2f40 <_ZN4UTFT14LCD_Write_DATAEc>
    4d0c:	6b e3       	ldi	r22, 0x3B	; 59
    4d0e:	ce 01       	movw	r24, r28
    4d10:	0e 94 a0 17 	call	0x2f40	; 0x2f40 <_ZN4UTFT14LCD_Write_DATAEc>
    4d14:	60 e0       	ldi	r22, 0x00	; 0
    4d16:	ce 01       	movw	r24, r28
    4d18:	0e 94 a0 17 	call	0x2f40	; 0x2f40 <_ZN4UTFT14LCD_Write_DATAEc>
    4d1c:	61 e0       	ldi	r22, 0x01	; 1
    4d1e:	ce 01       	movw	r24, r28
    4d20:	0e 94 a0 17 	call	0x2f40	; 0x2f40 <_ZN4UTFT14LCD_Write_DATAEc>
    4d24:	64 e0       	ldi	r22, 0x04	; 4
    4d26:	ce 01       	movw	r24, r28
    4d28:	0e 94 a0 17 	call	0x2f40	; 0x2f40 <_ZN4UTFT14LCD_Write_DATAEc>
    4d2c:	63 e1       	ldi	r22, 0x13	; 19
    4d2e:	ce 01       	movw	r24, r28
    4d30:	0e 94 a0 17 	call	0x2f40	; 0x2f40 <_ZN4UTFT14LCD_Write_DATAEc>
    4d34:	6a e3       	ldi	r22, 0x3A	; 58
    4d36:	ce 01       	movw	r24, r28
    4d38:	0e 94 64 17 	call	0x2ec8	; 0x2ec8 <_ZN4UTFT13LCD_Write_COMEc>
    4d3c:	65 e0       	ldi	r22, 0x05	; 5
    4d3e:	ce 01       	movw	r24, r28
    4d40:	0e 94 a0 17 	call	0x2f40	; 0x2f40 <_ZN4UTFT14LCD_Write_DATAEc>
    4d44:	69 e2       	ldi	r22, 0x29	; 41
    4d46:	0c 94 02 1d 	jmp	0x3a04	; 0x3a04 <_ZN4UTFT7InitLCDEh+0x7f4>
    4d4a:	61 e1       	ldi	r22, 0x11	; 17
    4d4c:	ce 01       	movw	r24, r28
    4d4e:	0e 94 64 17 	call	0x2ec8	; 0x2ec8 <_ZN4UTFT13LCD_Write_COMEc>
    4d52:	64 e1       	ldi	r22, 0x14	; 20
    4d54:	70 e0       	ldi	r23, 0x00	; 0
    4d56:	80 e0       	ldi	r24, 0x00	; 0
    4d58:	90 e0       	ldi	r25, 0x00	; 0
    4d5a:	0e 94 a6 36 	call	0x6d4c	; 0x6d4c <delay>
    4d5e:	68 e2       	ldi	r22, 0x28	; 40
    4d60:	ce 01       	movw	r24, r28
    4d62:	0e 94 64 17 	call	0x2ec8	; 0x2ec8 <_ZN4UTFT13LCD_Write_COMEc>
    4d66:	65 e0       	ldi	r22, 0x05	; 5
    4d68:	70 e0       	ldi	r23, 0x00	; 0
    4d6a:	80 e0       	ldi	r24, 0x00	; 0
    4d6c:	90 e0       	ldi	r25, 0x00	; 0
    4d6e:	0e 94 a6 36 	call	0x6d4c	; 0x6d4c <delay>
    4d72:	6f ec       	ldi	r22, 0xCF	; 207
    4d74:	ce 01       	movw	r24, r28
    4d76:	0e 94 64 17 	call	0x2ec8	; 0x2ec8 <_ZN4UTFT13LCD_Write_COMEc>
    4d7a:	60 e0       	ldi	r22, 0x00	; 0
    4d7c:	ce 01       	movw	r24, r28
    4d7e:	0e 94 a0 17 	call	0x2f40	; 0x2f40 <_ZN4UTFT14LCD_Write_DATAEc>
    4d82:	63 e8       	ldi	r22, 0x83	; 131
    4d84:	ce 01       	movw	r24, r28
    4d86:	0e 94 a0 17 	call	0x2f40	; 0x2f40 <_ZN4UTFT14LCD_Write_DATAEc>
    4d8a:	60 e3       	ldi	r22, 0x30	; 48
    4d8c:	ce 01       	movw	r24, r28
    4d8e:	0e 94 a0 17 	call	0x2f40	; 0x2f40 <_ZN4UTFT14LCD_Write_DATAEc>
    4d92:	6d ee       	ldi	r22, 0xED	; 237
    4d94:	ce 01       	movw	r24, r28
    4d96:	0e 94 64 17 	call	0x2ec8	; 0x2ec8 <_ZN4UTFT13LCD_Write_COMEc>
    4d9a:	64 e6       	ldi	r22, 0x64	; 100
    4d9c:	ce 01       	movw	r24, r28
    4d9e:	0e 94 a0 17 	call	0x2f40	; 0x2f40 <_ZN4UTFT14LCD_Write_DATAEc>
    4da2:	63 e0       	ldi	r22, 0x03	; 3
    4da4:	ce 01       	movw	r24, r28
    4da6:	0e 94 a0 17 	call	0x2f40	; 0x2f40 <_ZN4UTFT14LCD_Write_DATAEc>
    4daa:	62 e1       	ldi	r22, 0x12	; 18
    4dac:	ce 01       	movw	r24, r28
    4dae:	0e 94 a0 17 	call	0x2f40	; 0x2f40 <_ZN4UTFT14LCD_Write_DATAEc>
    4db2:	61 e8       	ldi	r22, 0x81	; 129
    4db4:	ce 01       	movw	r24, r28
    4db6:	0e 94 a0 17 	call	0x2f40	; 0x2f40 <_ZN4UTFT14LCD_Write_DATAEc>
    4dba:	68 ee       	ldi	r22, 0xE8	; 232
    4dbc:	ce 01       	movw	r24, r28
    4dbe:	0e 94 64 17 	call	0x2ec8	; 0x2ec8 <_ZN4UTFT13LCD_Write_COMEc>
    4dc2:	65 e8       	ldi	r22, 0x85	; 133
    4dc4:	ce 01       	movw	r24, r28
    4dc6:	0e 94 a0 17 	call	0x2f40	; 0x2f40 <_ZN4UTFT14LCD_Write_DATAEc>
    4dca:	61 e0       	ldi	r22, 0x01	; 1
    4dcc:	ce 01       	movw	r24, r28
    4dce:	0e 94 a0 17 	call	0x2f40	; 0x2f40 <_ZN4UTFT14LCD_Write_DATAEc>
    4dd2:	69 e7       	ldi	r22, 0x79	; 121
    4dd4:	ce 01       	movw	r24, r28
    4dd6:	0e 94 a0 17 	call	0x2f40	; 0x2f40 <_ZN4UTFT14LCD_Write_DATAEc>
    4dda:	6b ec       	ldi	r22, 0xCB	; 203
    4ddc:	ce 01       	movw	r24, r28
    4dde:	0e 94 64 17 	call	0x2ec8	; 0x2ec8 <_ZN4UTFT13LCD_Write_COMEc>
    4de2:	69 e3       	ldi	r22, 0x39	; 57
    4de4:	ce 01       	movw	r24, r28
    4de6:	0e 94 a0 17 	call	0x2f40	; 0x2f40 <_ZN4UTFT14LCD_Write_DATAEc>
    4dea:	6c e2       	ldi	r22, 0x2C	; 44
    4dec:	ce 01       	movw	r24, r28
    4dee:	0e 94 a0 17 	call	0x2f40	; 0x2f40 <_ZN4UTFT14LCD_Write_DATAEc>
    4df2:	60 e0       	ldi	r22, 0x00	; 0
    4df4:	ce 01       	movw	r24, r28
    4df6:	0e 94 a0 17 	call	0x2f40	; 0x2f40 <_ZN4UTFT14LCD_Write_DATAEc>
    4dfa:	64 e3       	ldi	r22, 0x34	; 52
    4dfc:	ce 01       	movw	r24, r28
    4dfe:	0e 94 a0 17 	call	0x2f40	; 0x2f40 <_ZN4UTFT14LCD_Write_DATAEc>
    4e02:	62 e0       	ldi	r22, 0x02	; 2
    4e04:	ce 01       	movw	r24, r28
    4e06:	0e 94 a0 17 	call	0x2f40	; 0x2f40 <_ZN4UTFT14LCD_Write_DATAEc>
    4e0a:	67 ef       	ldi	r22, 0xF7	; 247
    4e0c:	ce 01       	movw	r24, r28
    4e0e:	0e 94 64 17 	call	0x2ec8	; 0x2ec8 <_ZN4UTFT13LCD_Write_COMEc>
    4e12:	60 e2       	ldi	r22, 0x20	; 32
    4e14:	ce 01       	movw	r24, r28
    4e16:	0e 94 a0 17 	call	0x2f40	; 0x2f40 <_ZN4UTFT14LCD_Write_DATAEc>
    4e1a:	6a ee       	ldi	r22, 0xEA	; 234
    4e1c:	ce 01       	movw	r24, r28
    4e1e:	0e 94 64 17 	call	0x2ec8	; 0x2ec8 <_ZN4UTFT13LCD_Write_COMEc>
    4e22:	60 e0       	ldi	r22, 0x00	; 0
    4e24:	ce 01       	movw	r24, r28
    4e26:	0e 94 a0 17 	call	0x2f40	; 0x2f40 <_ZN4UTFT14LCD_Write_DATAEc>
    4e2a:	60 e0       	ldi	r22, 0x00	; 0
    4e2c:	ce 01       	movw	r24, r28
    4e2e:	0e 94 a0 17 	call	0x2f40	; 0x2f40 <_ZN4UTFT14LCD_Write_DATAEc>
    4e32:	60 ec       	ldi	r22, 0xC0	; 192
    4e34:	ce 01       	movw	r24, r28
    4e36:	0e 94 64 17 	call	0x2ec8	; 0x2ec8 <_ZN4UTFT13LCD_Write_COMEc>
    4e3a:	66 e2       	ldi	r22, 0x26	; 38
    4e3c:	ce 01       	movw	r24, r28
    4e3e:	0e 94 a0 17 	call	0x2f40	; 0x2f40 <_ZN4UTFT14LCD_Write_DATAEc>
    4e42:	61 ec       	ldi	r22, 0xC1	; 193
    4e44:	ce 01       	movw	r24, r28
    4e46:	0e 94 64 17 	call	0x2ec8	; 0x2ec8 <_ZN4UTFT13LCD_Write_COMEc>
    4e4a:	61 e1       	ldi	r22, 0x11	; 17
    4e4c:	ce 01       	movw	r24, r28
    4e4e:	0e 94 a0 17 	call	0x2f40	; 0x2f40 <_ZN4UTFT14LCD_Write_DATAEc>
    4e52:	65 ec       	ldi	r22, 0xC5	; 197
    4e54:	ce 01       	movw	r24, r28
    4e56:	0e 94 64 17 	call	0x2ec8	; 0x2ec8 <_ZN4UTFT13LCD_Write_COMEc>
    4e5a:	65 e3       	ldi	r22, 0x35	; 53
    4e5c:	ce 01       	movw	r24, r28
    4e5e:	0e 94 a0 17 	call	0x2f40	; 0x2f40 <_ZN4UTFT14LCD_Write_DATAEc>
    4e62:	6e e3       	ldi	r22, 0x3E	; 62
    4e64:	ce 01       	movw	r24, r28
    4e66:	0e 94 a0 17 	call	0x2f40	; 0x2f40 <_ZN4UTFT14LCD_Write_DATAEc>
    4e6a:	67 ec       	ldi	r22, 0xC7	; 199
    4e6c:	ce 01       	movw	r24, r28
    4e6e:	0e 94 64 17 	call	0x2ec8	; 0x2ec8 <_ZN4UTFT13LCD_Write_COMEc>
    4e72:	6e eb       	ldi	r22, 0xBE	; 190
    4e74:	ce 01       	movw	r24, r28
    4e76:	0e 94 a0 17 	call	0x2f40	; 0x2f40 <_ZN4UTFT14LCD_Write_DATAEc>
    4e7a:	61 eb       	ldi	r22, 0xB1	; 177
    4e7c:	ce 01       	movw	r24, r28
    4e7e:	0e 94 64 17 	call	0x2ec8	; 0x2ec8 <_ZN4UTFT13LCD_Write_COMEc>
    4e82:	60 e0       	ldi	r22, 0x00	; 0
    4e84:	ce 01       	movw	r24, r28
    4e86:	0e 94 a0 17 	call	0x2f40	; 0x2f40 <_ZN4UTFT14LCD_Write_DATAEc>
    4e8a:	6b e1       	ldi	r22, 0x1B	; 27
    4e8c:	ce 01       	movw	r24, r28
    4e8e:	0e 94 a0 17 	call	0x2f40	; 0x2f40 <_ZN4UTFT14LCD_Write_DATAEc>
    4e92:	66 eb       	ldi	r22, 0xB6	; 182
    4e94:	ce 01       	movw	r24, r28
    4e96:	0e 94 64 17 	call	0x2ec8	; 0x2ec8 <_ZN4UTFT13LCD_Write_COMEc>
    4e9a:	6a e0       	ldi	r22, 0x0A	; 10
    4e9c:	ce 01       	movw	r24, r28
    4e9e:	0e 94 a0 17 	call	0x2f40	; 0x2f40 <_ZN4UTFT14LCD_Write_DATAEc>
    4ea2:	62 e8       	ldi	r22, 0x82	; 130
    4ea4:	ce 01       	movw	r24, r28
    4ea6:	0e 94 a0 17 	call	0x2f40	; 0x2f40 <_ZN4UTFT14LCD_Write_DATAEc>
    4eaa:	67 e2       	ldi	r22, 0x27	; 39
    4eac:	ce 01       	movw	r24, r28
    4eae:	0e 94 a0 17 	call	0x2f40	; 0x2f40 <_ZN4UTFT14LCD_Write_DATAEc>
    4eb2:	60 e0       	ldi	r22, 0x00	; 0
    4eb4:	ce 01       	movw	r24, r28
    4eb6:	0e 94 a0 17 	call	0x2f40	; 0x2f40 <_ZN4UTFT14LCD_Write_DATAEc>
    4eba:	67 eb       	ldi	r22, 0xB7	; 183
    4ebc:	ce 01       	movw	r24, r28
    4ebe:	0e 94 64 17 	call	0x2ec8	; 0x2ec8 <_ZN4UTFT13LCD_Write_COMEc>
    4ec2:	67 e0       	ldi	r22, 0x07	; 7
    4ec4:	ce 01       	movw	r24, r28
    4ec6:	0e 94 a0 17 	call	0x2f40	; 0x2f40 <_ZN4UTFT14LCD_Write_DATAEc>
    4eca:	6a e3       	ldi	r22, 0x3A	; 58
    4ecc:	ce 01       	movw	r24, r28
    4ece:	0e 94 64 17 	call	0x2ec8	; 0x2ec8 <_ZN4UTFT13LCD_Write_COMEc>
    4ed2:	65 e5       	ldi	r22, 0x55	; 85
    4ed4:	ce 01       	movw	r24, r28
    4ed6:	0e 94 a0 17 	call	0x2f40	; 0x2f40 <_ZN4UTFT14LCD_Write_DATAEc>
    4eda:	66 e3       	ldi	r22, 0x36	; 54
    4edc:	ce 01       	movw	r24, r28
    4ede:	0e 94 64 17 	call	0x2ec8	; 0x2ec8 <_ZN4UTFT13LCD_Write_COMEc>
    4ee2:	68 e4       	ldi	r22, 0x48	; 72
    4ee4:	ce 01       	movw	r24, r28
    4ee6:	0e 94 a0 17 	call	0x2f40	; 0x2f40 <_ZN4UTFT14LCD_Write_DATAEc>
    4eea:	69 e2       	ldi	r22, 0x29	; 41
    4eec:	ce 01       	movw	r24, r28
    4eee:	0e 94 64 17 	call	0x2ec8	; 0x2ec8 <_ZN4UTFT13LCD_Write_COMEc>
    4ef2:	65 e0       	ldi	r22, 0x05	; 5
    4ef4:	70 e0       	ldi	r23, 0x00	; 0
    4ef6:	80 e0       	ldi	r24, 0x00	; 0
    4ef8:	90 e0       	ldi	r25, 0x00	; 0
    4efa:	5b c4       	rjmp	.+2230   	; 0x57b2 <_ZN4UTFT7InitLCDEh+0x25a2>
    4efc:	6b ec       	ldi	r22, 0xCB	; 203
    4efe:	ce 01       	movw	r24, r28
    4f00:	0e 94 64 17 	call	0x2ec8	; 0x2ec8 <_ZN4UTFT13LCD_Write_COMEc>
    4f04:	69 e3       	ldi	r22, 0x39	; 57
    4f06:	ce 01       	movw	r24, r28
    4f08:	0e 94 a0 17 	call	0x2f40	; 0x2f40 <_ZN4UTFT14LCD_Write_DATAEc>
    4f0c:	6c e2       	ldi	r22, 0x2C	; 44
    4f0e:	ce 01       	movw	r24, r28
    4f10:	0e 94 a0 17 	call	0x2f40	; 0x2f40 <_ZN4UTFT14LCD_Write_DATAEc>
    4f14:	60 e0       	ldi	r22, 0x00	; 0
    4f16:	ce 01       	movw	r24, r28
    4f18:	0e 94 a0 17 	call	0x2f40	; 0x2f40 <_ZN4UTFT14LCD_Write_DATAEc>
    4f1c:	64 e3       	ldi	r22, 0x34	; 52
    4f1e:	ce 01       	movw	r24, r28
    4f20:	0e 94 a0 17 	call	0x2f40	; 0x2f40 <_ZN4UTFT14LCD_Write_DATAEc>
    4f24:	62 e0       	ldi	r22, 0x02	; 2
    4f26:	ce 01       	movw	r24, r28
    4f28:	0e 94 a0 17 	call	0x2f40	; 0x2f40 <_ZN4UTFT14LCD_Write_DATAEc>
    4f2c:	6f ec       	ldi	r22, 0xCF	; 207
    4f2e:	ce 01       	movw	r24, r28
    4f30:	0e 94 64 17 	call	0x2ec8	; 0x2ec8 <_ZN4UTFT13LCD_Write_COMEc>
    4f34:	60 e0       	ldi	r22, 0x00	; 0
    4f36:	ce 01       	movw	r24, r28
    4f38:	0e 94 a0 17 	call	0x2f40	; 0x2f40 <_ZN4UTFT14LCD_Write_DATAEc>
    4f3c:	61 ec       	ldi	r22, 0xC1	; 193
    4f3e:	ce 01       	movw	r24, r28
    4f40:	0e 94 a0 17 	call	0x2f40	; 0x2f40 <_ZN4UTFT14LCD_Write_DATAEc>
    4f44:	60 e3       	ldi	r22, 0x30	; 48
    4f46:	ce 01       	movw	r24, r28
    4f48:	0e 94 a0 17 	call	0x2f40	; 0x2f40 <_ZN4UTFT14LCD_Write_DATAEc>
    4f4c:	68 ee       	ldi	r22, 0xE8	; 232
    4f4e:	ce 01       	movw	r24, r28
    4f50:	0e 94 64 17 	call	0x2ec8	; 0x2ec8 <_ZN4UTFT13LCD_Write_COMEc>
    4f54:	65 e8       	ldi	r22, 0x85	; 133
    4f56:	ce 01       	movw	r24, r28
    4f58:	0e 94 a0 17 	call	0x2f40	; 0x2f40 <_ZN4UTFT14LCD_Write_DATAEc>
    4f5c:	60 e0       	ldi	r22, 0x00	; 0
    4f5e:	ce 01       	movw	r24, r28
    4f60:	0e 94 a0 17 	call	0x2f40	; 0x2f40 <_ZN4UTFT14LCD_Write_DATAEc>
    4f64:	68 e7       	ldi	r22, 0x78	; 120
    4f66:	ce 01       	movw	r24, r28
    4f68:	0e 94 a0 17 	call	0x2f40	; 0x2f40 <_ZN4UTFT14LCD_Write_DATAEc>
    4f6c:	6a ee       	ldi	r22, 0xEA	; 234
    4f6e:	ce 01       	movw	r24, r28
    4f70:	0e 94 64 17 	call	0x2ec8	; 0x2ec8 <_ZN4UTFT13LCD_Write_COMEc>
    4f74:	60 e0       	ldi	r22, 0x00	; 0
    4f76:	ce 01       	movw	r24, r28
    4f78:	0e 94 a0 17 	call	0x2f40	; 0x2f40 <_ZN4UTFT14LCD_Write_DATAEc>
    4f7c:	60 e0       	ldi	r22, 0x00	; 0
    4f7e:	ce 01       	movw	r24, r28
    4f80:	0e 94 a0 17 	call	0x2f40	; 0x2f40 <_ZN4UTFT14LCD_Write_DATAEc>
    4f84:	6d ee       	ldi	r22, 0xED	; 237
    4f86:	ce 01       	movw	r24, r28
    4f88:	0e 94 64 17 	call	0x2ec8	; 0x2ec8 <_ZN4UTFT13LCD_Write_COMEc>
    4f8c:	64 e6       	ldi	r22, 0x64	; 100
    4f8e:	ce 01       	movw	r24, r28
    4f90:	0e 94 a0 17 	call	0x2f40	; 0x2f40 <_ZN4UTFT14LCD_Write_DATAEc>
    4f94:	63 e0       	ldi	r22, 0x03	; 3
    4f96:	ce 01       	movw	r24, r28
    4f98:	0e 94 a0 17 	call	0x2f40	; 0x2f40 <_ZN4UTFT14LCD_Write_DATAEc>
    4f9c:	62 e1       	ldi	r22, 0x12	; 18
    4f9e:	ce 01       	movw	r24, r28
    4fa0:	0e 94 a0 17 	call	0x2f40	; 0x2f40 <_ZN4UTFT14LCD_Write_DATAEc>
    4fa4:	61 e8       	ldi	r22, 0x81	; 129
    4fa6:	ce 01       	movw	r24, r28
    4fa8:	0e 94 a0 17 	call	0x2f40	; 0x2f40 <_ZN4UTFT14LCD_Write_DATAEc>
    4fac:	67 ef       	ldi	r22, 0xF7	; 247
    4fae:	ce 01       	movw	r24, r28
    4fb0:	0e 94 64 17 	call	0x2ec8	; 0x2ec8 <_ZN4UTFT13LCD_Write_COMEc>
    4fb4:	60 e2       	ldi	r22, 0x20	; 32
    4fb6:	ce 01       	movw	r24, r28
    4fb8:	0e 94 a0 17 	call	0x2f40	; 0x2f40 <_ZN4UTFT14LCD_Write_DATAEc>
    4fbc:	60 ec       	ldi	r22, 0xC0	; 192
    4fbe:	ce 01       	movw	r24, r28
    4fc0:	0e 94 64 17 	call	0x2ec8	; 0x2ec8 <_ZN4UTFT13LCD_Write_COMEc>
    4fc4:	63 e2       	ldi	r22, 0x23	; 35
    4fc6:	ce 01       	movw	r24, r28
    4fc8:	0e 94 a0 17 	call	0x2f40	; 0x2f40 <_ZN4UTFT14LCD_Write_DATAEc>
    4fcc:	61 ec       	ldi	r22, 0xC1	; 193
    4fce:	ce 01       	movw	r24, r28
    4fd0:	0e 94 64 17 	call	0x2ec8	; 0x2ec8 <_ZN4UTFT13LCD_Write_COMEc>
    4fd4:	60 e1       	ldi	r22, 0x10	; 16
    4fd6:	ce 01       	movw	r24, r28
    4fd8:	0e 94 a0 17 	call	0x2f40	; 0x2f40 <_ZN4UTFT14LCD_Write_DATAEc>
    4fdc:	65 ec       	ldi	r22, 0xC5	; 197
    4fde:	ce 01       	movw	r24, r28
    4fe0:	0e 94 64 17 	call	0x2ec8	; 0x2ec8 <_ZN4UTFT13LCD_Write_COMEc>
    4fe4:	6e e3       	ldi	r22, 0x3E	; 62
    4fe6:	ce 01       	movw	r24, r28
    4fe8:	0e 94 a0 17 	call	0x2f40	; 0x2f40 <_ZN4UTFT14LCD_Write_DATAEc>
    4fec:	68 e2       	ldi	r22, 0x28	; 40
    4fee:	ce 01       	movw	r24, r28
    4ff0:	0e 94 a0 17 	call	0x2f40	; 0x2f40 <_ZN4UTFT14LCD_Write_DATAEc>
    4ff4:	67 ec       	ldi	r22, 0xC7	; 199
    4ff6:	ce 01       	movw	r24, r28
    4ff8:	0e 94 64 17 	call	0x2ec8	; 0x2ec8 <_ZN4UTFT13LCD_Write_COMEc>
    4ffc:	66 e8       	ldi	r22, 0x86	; 134
    4ffe:	ce 01       	movw	r24, r28
    5000:	0e 94 a0 17 	call	0x2f40	; 0x2f40 <_ZN4UTFT14LCD_Write_DATAEc>
    5004:	66 e3       	ldi	r22, 0x36	; 54
    5006:	ce 01       	movw	r24, r28
    5008:	0e 94 64 17 	call	0x2ec8	; 0x2ec8 <_ZN4UTFT13LCD_Write_COMEc>
    500c:	68 e4       	ldi	r22, 0x48	; 72
    500e:	ce 01       	movw	r24, r28
    5010:	0e 94 a0 17 	call	0x2f40	; 0x2f40 <_ZN4UTFT14LCD_Write_DATAEc>
    5014:	6a e3       	ldi	r22, 0x3A	; 58
    5016:	ce 01       	movw	r24, r28
    5018:	0e 94 64 17 	call	0x2ec8	; 0x2ec8 <_ZN4UTFT13LCD_Write_COMEc>
    501c:	65 e5       	ldi	r22, 0x55	; 85
    501e:	ce 01       	movw	r24, r28
    5020:	0e 94 a0 17 	call	0x2f40	; 0x2f40 <_ZN4UTFT14LCD_Write_DATAEc>
    5024:	61 eb       	ldi	r22, 0xB1	; 177
    5026:	ce 01       	movw	r24, r28
    5028:	0e 94 64 17 	call	0x2ec8	; 0x2ec8 <_ZN4UTFT13LCD_Write_COMEc>
    502c:	60 e0       	ldi	r22, 0x00	; 0
    502e:	ce 01       	movw	r24, r28
    5030:	0e 94 a0 17 	call	0x2f40	; 0x2f40 <_ZN4UTFT14LCD_Write_DATAEc>
    5034:	68 e1       	ldi	r22, 0x18	; 24
    5036:	ce 01       	movw	r24, r28
    5038:	0e 94 a0 17 	call	0x2f40	; 0x2f40 <_ZN4UTFT14LCD_Write_DATAEc>
    503c:	66 eb       	ldi	r22, 0xB6	; 182
    503e:	ce 01       	movw	r24, r28
    5040:	0e 94 64 17 	call	0x2ec8	; 0x2ec8 <_ZN4UTFT13LCD_Write_COMEc>
    5044:	68 e0       	ldi	r22, 0x08	; 8
    5046:	ce 01       	movw	r24, r28
    5048:	0e 94 a0 17 	call	0x2f40	; 0x2f40 <_ZN4UTFT14LCD_Write_DATAEc>
    504c:	62 e8       	ldi	r22, 0x82	; 130
    504e:	ce 01       	movw	r24, r28
    5050:	0e 94 a0 17 	call	0x2f40	; 0x2f40 <_ZN4UTFT14LCD_Write_DATAEc>
    5054:	67 e2       	ldi	r22, 0x27	; 39
    5056:	ce 01       	movw	r24, r28
    5058:	0e 94 a0 17 	call	0x2f40	; 0x2f40 <_ZN4UTFT14LCD_Write_DATAEc>
    505c:	61 e1       	ldi	r22, 0x11	; 17
    505e:	ce 01       	movw	r24, r28
    5060:	0e 94 64 17 	call	0x2ec8	; 0x2ec8 <_ZN4UTFT13LCD_Write_COMEc>
    5064:	68 e7       	ldi	r22, 0x78	; 120
    5066:	70 e0       	ldi	r23, 0x00	; 0
    5068:	80 e0       	ldi	r24, 0x00	; 0
    506a:	90 e0       	ldi	r25, 0x00	; 0
    506c:	9d c2       	rjmp	.+1338   	; 0x55a8 <_ZN4UTFT7InitLCDEh+0x2398>
    506e:	60 eb       	ldi	r22, 0xB0	; 176
    5070:	ce 01       	movw	r24, r28
    5072:	0e 94 64 17 	call	0x2ec8	; 0x2ec8 <_ZN4UTFT13LCD_Write_COMEc>
    5076:	6e e1       	ldi	r22, 0x1E	; 30
    5078:	ce 01       	movw	r24, r28
    507a:	0e 94 a0 17 	call	0x2f40	; 0x2f40 <_ZN4UTFT14LCD_Write_DATAEc>
    507e:	60 eb       	ldi	r22, 0xB0	; 176
    5080:	ce 01       	movw	r24, r28
    5082:	0e 94 64 17 	call	0x2ec8	; 0x2ec8 <_ZN4UTFT13LCD_Write_COMEc>
    5086:	60 e0       	ldi	r22, 0x00	; 0
    5088:	ce 01       	movw	r24, r28
    508a:	0e 94 a0 17 	call	0x2f40	; 0x2f40 <_ZN4UTFT14LCD_Write_DATAEc>
    508e:	63 eb       	ldi	r22, 0xB3	; 179
    5090:	ce 01       	movw	r24, r28
    5092:	0e 94 64 17 	call	0x2ec8	; 0x2ec8 <_ZN4UTFT13LCD_Write_COMEc>
    5096:	62 e0       	ldi	r22, 0x02	; 2
    5098:	ce 01       	movw	r24, r28
    509a:	0e 94 a0 17 	call	0x2f40	; 0x2f40 <_ZN4UTFT14LCD_Write_DATAEc>
    509e:	60 e0       	ldi	r22, 0x00	; 0
    50a0:	ce 01       	movw	r24, r28
    50a2:	0e 94 a0 17 	call	0x2f40	; 0x2f40 <_ZN4UTFT14LCD_Write_DATAEc>
    50a6:	60 e0       	ldi	r22, 0x00	; 0
    50a8:	ce 01       	movw	r24, r28
    50aa:	0e 94 a0 17 	call	0x2f40	; 0x2f40 <_ZN4UTFT14LCD_Write_DATAEc>
    50ae:	60 e1       	ldi	r22, 0x10	; 16
    50b0:	ce 01       	movw	r24, r28
    50b2:	0e 94 a0 17 	call	0x2f40	; 0x2f40 <_ZN4UTFT14LCD_Write_DATAEc>
    50b6:	64 eb       	ldi	r22, 0xB4	; 180
    50b8:	ce 01       	movw	r24, r28
    50ba:	0e 94 64 17 	call	0x2ec8	; 0x2ec8 <_ZN4UTFT13LCD_Write_COMEc>
    50be:	60 e0       	ldi	r22, 0x00	; 0
    50c0:	ce 01       	movw	r24, r28
    50c2:	0e 94 a0 17 	call	0x2f40	; 0x2f40 <_ZN4UTFT14LCD_Write_DATAEc>
    50c6:	60 ec       	ldi	r22, 0xC0	; 192
    50c8:	ce 01       	movw	r24, r28
    50ca:	0e 94 64 17 	call	0x2ec8	; 0x2ec8 <_ZN4UTFT13LCD_Write_COMEc>
    50ce:	63 e0       	ldi	r22, 0x03	; 3
    50d0:	ce 01       	movw	r24, r28
    50d2:	0e 94 a0 17 	call	0x2f40	; 0x2f40 <_ZN4UTFT14LCD_Write_DATAEc>
    50d6:	6b e3       	ldi	r22, 0x3B	; 59
    50d8:	ce 01       	movw	r24, r28
    50da:	0e 94 a0 17 	call	0x2f40	; 0x2f40 <_ZN4UTFT14LCD_Write_DATAEc>
    50de:	60 e0       	ldi	r22, 0x00	; 0
    50e0:	ce 01       	movw	r24, r28
    50e2:	0e 94 a0 17 	call	0x2f40	; 0x2f40 <_ZN4UTFT14LCD_Write_DATAEc>
    50e6:	60 e0       	ldi	r22, 0x00	; 0
    50e8:	ce 01       	movw	r24, r28
    50ea:	0e 94 a0 17 	call	0x2f40	; 0x2f40 <_ZN4UTFT14LCD_Write_DATAEc>
    50ee:	60 e0       	ldi	r22, 0x00	; 0
    50f0:	ce 01       	movw	r24, r28
    50f2:	0e 94 a0 17 	call	0x2f40	; 0x2f40 <_ZN4UTFT14LCD_Write_DATAEc>
    50f6:	61 e0       	ldi	r22, 0x01	; 1
    50f8:	ce 01       	movw	r24, r28
    50fa:	0e 94 a0 17 	call	0x2f40	; 0x2f40 <_ZN4UTFT14LCD_Write_DATAEc>
    50fe:	60 e0       	ldi	r22, 0x00	; 0
    5100:	ce 01       	movw	r24, r28
    5102:	0e 94 a0 17 	call	0x2f40	; 0x2f40 <_ZN4UTFT14LCD_Write_DATAEc>
    5106:	63 e4       	ldi	r22, 0x43	; 67
    5108:	ce 01       	movw	r24, r28
    510a:	0e 94 a0 17 	call	0x2f40	; 0x2f40 <_ZN4UTFT14LCD_Write_DATAEc>
    510e:	61 ec       	ldi	r22, 0xC1	; 193
    5110:	ce 01       	movw	r24, r28
    5112:	0e 94 64 17 	call	0x2ec8	; 0x2ec8 <_ZN4UTFT13LCD_Write_COMEc>
    5116:	68 e0       	ldi	r22, 0x08	; 8
    5118:	ce 01       	movw	r24, r28
    511a:	0e 94 a0 17 	call	0x2f40	; 0x2f40 <_ZN4UTFT14LCD_Write_DATAEc>
    511e:	65 e1       	ldi	r22, 0x15	; 21
    5120:	ce 01       	movw	r24, r28
    5122:	0e 94 a0 17 	call	0x2f40	; 0x2f40 <_ZN4UTFT14LCD_Write_DATAEc>
    5126:	68 e0       	ldi	r22, 0x08	; 8
    5128:	ce 01       	movw	r24, r28
    512a:	0e 94 a0 17 	call	0x2f40	; 0x2f40 <_ZN4UTFT14LCD_Write_DATAEc>
    512e:	68 e0       	ldi	r22, 0x08	; 8
    5130:	ce 01       	movw	r24, r28
    5132:	0e 94 a0 17 	call	0x2f40	; 0x2f40 <_ZN4UTFT14LCD_Write_DATAEc>
    5136:	64 ec       	ldi	r22, 0xC4	; 196
    5138:	ce 01       	movw	r24, r28
    513a:	0e 94 64 17 	call	0x2ec8	; 0x2ec8 <_ZN4UTFT13LCD_Write_COMEc>
    513e:	65 e1       	ldi	r22, 0x15	; 21
    5140:	ce 01       	movw	r24, r28
    5142:	0e 94 a0 17 	call	0x2f40	; 0x2f40 <_ZN4UTFT14LCD_Write_DATAEc>
    5146:	63 e0       	ldi	r22, 0x03	; 3
    5148:	ce 01       	movw	r24, r28
    514a:	0e 94 a0 17 	call	0x2f40	; 0x2f40 <_ZN4UTFT14LCD_Write_DATAEc>
    514e:	63 e0       	ldi	r22, 0x03	; 3
    5150:	ce 01       	movw	r24, r28
    5152:	0e 94 a0 17 	call	0x2f40	; 0x2f40 <_ZN4UTFT14LCD_Write_DATAEc>
    5156:	61 e0       	ldi	r22, 0x01	; 1
    5158:	ce 01       	movw	r24, r28
    515a:	0e 94 a0 17 	call	0x2f40	; 0x2f40 <_ZN4UTFT14LCD_Write_DATAEc>
    515e:	66 ec       	ldi	r22, 0xC6	; 198
    5160:	ce 01       	movw	r24, r28
    5162:	0e 94 64 17 	call	0x2ec8	; 0x2ec8 <_ZN4UTFT13LCD_Write_COMEc>
    5166:	62 e0       	ldi	r22, 0x02	; 2
    5168:	ce 01       	movw	r24, r28
    516a:	0e 94 a0 17 	call	0x2f40	; 0x2f40 <_ZN4UTFT14LCD_Write_DATAEc>
    516e:	68 ec       	ldi	r22, 0xC8	; 200
    5170:	ce 01       	movw	r24, r28
    5172:	0e 94 64 17 	call	0x2ec8	; 0x2ec8 <_ZN4UTFT13LCD_Write_COMEc>
    5176:	6c e0       	ldi	r22, 0x0C	; 12
    5178:	ce 01       	movw	r24, r28
    517a:	0e 94 a0 17 	call	0x2f40	; 0x2f40 <_ZN4UTFT14LCD_Write_DATAEc>
    517e:	65 e0       	ldi	r22, 0x05	; 5
    5180:	ce 01       	movw	r24, r28
    5182:	0e 94 a0 17 	call	0x2f40	; 0x2f40 <_ZN4UTFT14LCD_Write_DATAEc>
    5186:	6a e0       	ldi	r22, 0x0A	; 10
    5188:	ce 01       	movw	r24, r28
    518a:	0e 94 a0 17 	call	0x2f40	; 0x2f40 <_ZN4UTFT14LCD_Write_DATAEc>
    518e:	6b e6       	ldi	r22, 0x6B	; 107
    5190:	ce 01       	movw	r24, r28
    5192:	0e 94 a0 17 	call	0x2f40	; 0x2f40 <_ZN4UTFT14LCD_Write_DATAEc>
    5196:	64 e0       	ldi	r22, 0x04	; 4
    5198:	ce 01       	movw	r24, r28
    519a:	0e 94 a0 17 	call	0x2f40	; 0x2f40 <_ZN4UTFT14LCD_Write_DATAEc>
    519e:	66 e0       	ldi	r22, 0x06	; 6
    51a0:	ce 01       	movw	r24, r28
    51a2:	0e 94 a0 17 	call	0x2f40	; 0x2f40 <_ZN4UTFT14LCD_Write_DATAEc>
    51a6:	65 e1       	ldi	r22, 0x15	; 21
    51a8:	ce 01       	movw	r24, r28
    51aa:	0e 94 a0 17 	call	0x2f40	; 0x2f40 <_ZN4UTFT14LCD_Write_DATAEc>
    51ae:	60 e1       	ldi	r22, 0x10	; 16
    51b0:	ce 01       	movw	r24, r28
    51b2:	0e 94 a0 17 	call	0x2f40	; 0x2f40 <_ZN4UTFT14LCD_Write_DATAEc>
    51b6:	60 e0       	ldi	r22, 0x00	; 0
    51b8:	ce 01       	movw	r24, r28
    51ba:	0e 94 a0 17 	call	0x2f40	; 0x2f40 <_ZN4UTFT14LCD_Write_DATAEc>
    51be:	60 e6       	ldi	r22, 0x60	; 96
    51c0:	ce 01       	movw	r24, r28
    51c2:	0e 94 a0 17 	call	0x2f40	; 0x2f40 <_ZN4UTFT14LCD_Write_DATAEc>
    51c6:	66 e3       	ldi	r22, 0x36	; 54
    51c8:	ce 01       	movw	r24, r28
    51ca:	0e 94 64 17 	call	0x2ec8	; 0x2ec8 <_ZN4UTFT13LCD_Write_COMEc>
    51ce:	6a e0       	ldi	r22, 0x0A	; 10
    51d0:	ce 01       	movw	r24, r28
    51d2:	0e 94 a0 17 	call	0x2f40	; 0x2f40 <_ZN4UTFT14LCD_Write_DATAEc>
    51d6:	6c e0       	ldi	r22, 0x0C	; 12
    51d8:	ce 01       	movw	r24, r28
    51da:	0e 94 64 17 	call	0x2ec8	; 0x2ec8 <_ZN4UTFT13LCD_Write_COMEc>
    51de:	65 e5       	ldi	r22, 0x55	; 85
    51e0:	ce 01       	movw	r24, r28
    51e2:	0e 94 a0 17 	call	0x2f40	; 0x2f40 <_ZN4UTFT14LCD_Write_DATAEc>
    51e6:	6a e3       	ldi	r22, 0x3A	; 58
    51e8:	ce 01       	movw	r24, r28
    51ea:	0e 94 64 17 	call	0x2ec8	; 0x2ec8 <_ZN4UTFT13LCD_Write_COMEc>
    51ee:	65 e5       	ldi	r22, 0x55	; 85
    51f0:	ce 01       	movw	r24, r28
    51f2:	0e 94 a0 17 	call	0x2f40	; 0x2f40 <_ZN4UTFT14LCD_Write_DATAEc>
    51f6:	68 e3       	ldi	r22, 0x38	; 56
    51f8:	ce 01       	movw	r24, r28
    51fa:	0e 94 64 17 	call	0x2ec8	; 0x2ec8 <_ZN4UTFT13LCD_Write_COMEc>
    51fe:	60 ed       	ldi	r22, 0xD0	; 208
    5200:	ce 01       	movw	r24, r28
    5202:	0e 94 64 17 	call	0x2ec8	; 0x2ec8 <_ZN4UTFT13LCD_Write_COMEc>
    5206:	67 e0       	ldi	r22, 0x07	; 7
    5208:	ce 01       	movw	r24, r28
    520a:	0e 94 a0 17 	call	0x2f40	; 0x2f40 <_ZN4UTFT14LCD_Write_DATAEc>
    520e:	67 e0       	ldi	r22, 0x07	; 7
    5210:	ce 01       	movw	r24, r28
    5212:	0e 94 a0 17 	call	0x2f40	; 0x2f40 <_ZN4UTFT14LCD_Write_DATAEc>
    5216:	64 e1       	ldi	r22, 0x14	; 20
    5218:	ce 01       	movw	r24, r28
    521a:	0e 94 a0 17 	call	0x2f40	; 0x2f40 <_ZN4UTFT14LCD_Write_DATAEc>
    521e:	62 ea       	ldi	r22, 0xA2	; 162
    5220:	ce 01       	movw	r24, r28
    5222:	0e 94 a0 17 	call	0x2f40	; 0x2f40 <_ZN4UTFT14LCD_Write_DATAEc>
    5226:	61 ed       	ldi	r22, 0xD1	; 209
    5228:	ce 01       	movw	r24, r28
    522a:	0e 94 64 17 	call	0x2ec8	; 0x2ec8 <_ZN4UTFT13LCD_Write_COMEc>
    522e:	63 e0       	ldi	r22, 0x03	; 3
    5230:	ce 01       	movw	r24, r28
    5232:	0e 94 a0 17 	call	0x2f40	; 0x2f40 <_ZN4UTFT14LCD_Write_DATAEc>
    5236:	6a e5       	ldi	r22, 0x5A	; 90
    5238:	ce 01       	movw	r24, r28
    523a:	0e 94 a0 17 	call	0x2f40	; 0x2f40 <_ZN4UTFT14LCD_Write_DATAEc>
    523e:	60 e1       	ldi	r22, 0x10	; 16
    5240:	ce 01       	movw	r24, r28
    5242:	0e 94 a0 17 	call	0x2f40	; 0x2f40 <_ZN4UTFT14LCD_Write_DATAEc>
    5246:	62 ed       	ldi	r22, 0xD2	; 210
    5248:	ce 01       	movw	r24, r28
    524a:	0e 94 64 17 	call	0x2ec8	; 0x2ec8 <_ZN4UTFT13LCD_Write_COMEc>
    524e:	63 e0       	ldi	r22, 0x03	; 3
    5250:	ce 01       	movw	r24, r28
    5252:	0e 94 a0 17 	call	0x2f40	; 0x2f40 <_ZN4UTFT14LCD_Write_DATAEc>
    5256:	64 e0       	ldi	r22, 0x04	; 4
    5258:	ce 01       	movw	r24, r28
    525a:	0e 94 a0 17 	call	0x2f40	; 0x2f40 <_ZN4UTFT14LCD_Write_DATAEc>
    525e:	64 e0       	ldi	r22, 0x04	; 4
    5260:	ce 01       	movw	r24, r28
    5262:	0e 94 a0 17 	call	0x2f40	; 0x2f40 <_ZN4UTFT14LCD_Write_DATAEc>
    5266:	61 e1       	ldi	r22, 0x11	; 17
    5268:	ce 01       	movw	r24, r28
    526a:	0e 94 64 17 	call	0x2ec8	; 0x2ec8 <_ZN4UTFT13LCD_Write_COMEc>
    526e:	66 e9       	ldi	r22, 0x96	; 150
    5270:	70 e0       	ldi	r23, 0x00	; 0
    5272:	80 e0       	ldi	r24, 0x00	; 0
    5274:	90 e0       	ldi	r25, 0x00	; 0
    5276:	0e 94 a6 36 	call	0x6d4c	; 0x6d4c <delay>
    527a:	6a e2       	ldi	r22, 0x2A	; 42
    527c:	ce 01       	movw	r24, r28
    527e:	0e 94 64 17 	call	0x2ec8	; 0x2ec8 <_ZN4UTFT13LCD_Write_COMEc>
    5282:	60 e0       	ldi	r22, 0x00	; 0
    5284:	ce 01       	movw	r24, r28
    5286:	0e 94 a0 17 	call	0x2f40	; 0x2f40 <_ZN4UTFT14LCD_Write_DATAEc>
    528a:	60 e0       	ldi	r22, 0x00	; 0
    528c:	ce 01       	movw	r24, r28
    528e:	0e 94 a0 17 	call	0x2f40	; 0x2f40 <_ZN4UTFT14LCD_Write_DATAEc>
    5292:	61 e0       	ldi	r22, 0x01	; 1
    5294:	ce 01       	movw	r24, r28
    5296:	0e 94 a0 17 	call	0x2f40	; 0x2f40 <_ZN4UTFT14LCD_Write_DATAEc>
    529a:	6f ed       	ldi	r22, 0xDF	; 223
    529c:	ce 01       	movw	r24, r28
    529e:	0e 94 a0 17 	call	0x2f40	; 0x2f40 <_ZN4UTFT14LCD_Write_DATAEc>
    52a2:	6b e2       	ldi	r22, 0x2B	; 43
    52a4:	ce 01       	movw	r24, r28
    52a6:	0e 94 64 17 	call	0x2ec8	; 0x2ec8 <_ZN4UTFT13LCD_Write_COMEc>
    52aa:	60 e0       	ldi	r22, 0x00	; 0
    52ac:	ce 01       	movw	r24, r28
    52ae:	0e 94 a0 17 	call	0x2f40	; 0x2f40 <_ZN4UTFT14LCD_Write_DATAEc>
    52b2:	60 e0       	ldi	r22, 0x00	; 0
    52b4:	ce 01       	movw	r24, r28
    52b6:	0e 94 a0 17 	call	0x2f40	; 0x2f40 <_ZN4UTFT14LCD_Write_DATAEc>
    52ba:	61 e0       	ldi	r22, 0x01	; 1
    52bc:	ce 01       	movw	r24, r28
    52be:	0e 94 a0 17 	call	0x2f40	; 0x2f40 <_ZN4UTFT14LCD_Write_DATAEc>
    52c2:	6f e3       	ldi	r22, 0x3F	; 63
    52c4:	ce 01       	movw	r24, r28
    52c6:	0e 94 a0 17 	call	0x2f40	; 0x2f40 <_ZN4UTFT14LCD_Write_DATAEc>
    52ca:	64 e6       	ldi	r22, 0x64	; 100
    52cc:	70 e0       	ldi	r23, 0x00	; 0
    52ce:	80 e0       	ldi	r24, 0x00	; 0
    52d0:	90 e0       	ldi	r25, 0x00	; 0
    52d2:	0e 94 a6 36 	call	0x6d4c	; 0x6d4c <delay>
    52d6:	69 e2       	ldi	r22, 0x29	; 41
    52d8:	ce 01       	movw	r24, r28
    52da:	0e 94 64 17 	call	0x2ec8	; 0x2ec8 <_ZN4UTFT13LCD_Write_COMEc>
    52de:	6e e1       	ldi	r22, 0x1E	; 30
    52e0:	70 e0       	ldi	r23, 0x00	; 0
    52e2:	80 e0       	ldi	r24, 0x00	; 0
    52e4:	90 e0       	ldi	r25, 0x00	; 0
    52e6:	0e 94 a6 36 	call	0x6d4c	; 0x6d4c <delay>
    52ea:	6c e2       	ldi	r22, 0x2C	; 44
    52ec:	ce 01       	movw	r24, r28
    52ee:	0e 94 64 17 	call	0x2ec8	; 0x2ec8 <_ZN4UTFT13LCD_Write_COMEc>
    52f2:	6e e1       	ldi	r22, 0x1E	; 30
    52f4:	70 e0       	ldi	r23, 0x00	; 0
    52f6:	80 e0       	ldi	r24, 0x00	; 0
    52f8:	90 e0       	ldi	r25, 0x00	; 0
    52fa:	5b c2       	rjmp	.+1206   	; 0x57b2 <_ZN4UTFT7InitLCDEh+0x25a2>
    52fc:	61 e1       	ldi	r22, 0x11	; 17
    52fe:	ce 01       	movw	r24, r28
    5300:	0e 94 64 17 	call	0x2ec8	; 0x2ec8 <_ZN4UTFT13LCD_Write_COMEc>
    5304:	62 e3       	ldi	r22, 0x32	; 50
    5306:	70 e0       	ldi	r23, 0x00	; 0
    5308:	80 e0       	ldi	r24, 0x00	; 0
    530a:	90 e0       	ldi	r25, 0x00	; 0
    530c:	0e 94 a6 36 	call	0x6d4c	; 0x6d4c <delay>
    5310:	62 ef       	ldi	r22, 0xF2	; 242
    5312:	ce 01       	movw	r24, r28
    5314:	0e 94 64 17 	call	0x2ec8	; 0x2ec8 <_ZN4UTFT13LCD_Write_COMEc>
    5318:	6c e1       	ldi	r22, 0x1C	; 28
    531a:	ce 01       	movw	r24, r28
    531c:	0e 94 a0 17 	call	0x2f40	; 0x2f40 <_ZN4UTFT14LCD_Write_DATAEc>
    5320:	63 ea       	ldi	r22, 0xA3	; 163
    5322:	ce 01       	movw	r24, r28
    5324:	0e 94 a0 17 	call	0x2f40	; 0x2f40 <_ZN4UTFT14LCD_Write_DATAEc>
    5328:	62 e3       	ldi	r22, 0x32	; 50
    532a:	ce 01       	movw	r24, r28
    532c:	0e 94 a0 17 	call	0x2f40	; 0x2f40 <_ZN4UTFT14LCD_Write_DATAEc>
    5330:	62 e0       	ldi	r22, 0x02	; 2
    5332:	ce 01       	movw	r24, r28
    5334:	0e 94 a0 17 	call	0x2f40	; 0x2f40 <_ZN4UTFT14LCD_Write_DATAEc>
    5338:	62 eb       	ldi	r22, 0xB2	; 178
    533a:	ce 01       	movw	r24, r28
    533c:	0e 94 a0 17 	call	0x2f40	; 0x2f40 <_ZN4UTFT14LCD_Write_DATAEc>
    5340:	62 e1       	ldi	r22, 0x12	; 18
    5342:	ce 01       	movw	r24, r28
    5344:	0e 94 a0 17 	call	0x2f40	; 0x2f40 <_ZN4UTFT14LCD_Write_DATAEc>
    5348:	6f ef       	ldi	r22, 0xFF	; 255
    534a:	ce 01       	movw	r24, r28
    534c:	0e 94 a0 17 	call	0x2f40	; 0x2f40 <_ZN4UTFT14LCD_Write_DATAEc>
    5350:	62 e1       	ldi	r22, 0x12	; 18
    5352:	ce 01       	movw	r24, r28
    5354:	0e 94 a0 17 	call	0x2f40	; 0x2f40 <_ZN4UTFT14LCD_Write_DATAEc>
    5358:	60 e0       	ldi	r22, 0x00	; 0
    535a:	ce 01       	movw	r24, r28
    535c:	0e 94 a0 17 	call	0x2f40	; 0x2f40 <_ZN4UTFT14LCD_Write_DATAEc>
    5360:	61 ef       	ldi	r22, 0xF1	; 241
    5362:	ce 01       	movw	r24, r28
    5364:	0e 94 64 17 	call	0x2ec8	; 0x2ec8 <_ZN4UTFT13LCD_Write_COMEc>
    5368:	66 e3       	ldi	r22, 0x36	; 54
    536a:	ce 01       	movw	r24, r28
    536c:	0e 94 a0 17 	call	0x2f40	; 0x2f40 <_ZN4UTFT14LCD_Write_DATAEc>
    5370:	64 ea       	ldi	r22, 0xA4	; 164
    5372:	ce 01       	movw	r24, r28
    5374:	0e 94 a0 17 	call	0x2f40	; 0x2f40 <_ZN4UTFT14LCD_Write_DATAEc>
    5378:	68 ef       	ldi	r22, 0xF8	; 248
    537a:	ce 01       	movw	r24, r28
    537c:	0e 94 64 17 	call	0x2ec8	; 0x2ec8 <_ZN4UTFT13LCD_Write_COMEc>
    5380:	61 e2       	ldi	r22, 0x21	; 33
    5382:	ce 01       	movw	r24, r28
    5384:	0e 94 a0 17 	call	0x2f40	; 0x2f40 <_ZN4UTFT14LCD_Write_DATAEc>
    5388:	64 e0       	ldi	r22, 0x04	; 4
    538a:	ce 01       	movw	r24, r28
    538c:	0e 94 a0 17 	call	0x2f40	; 0x2f40 <_ZN4UTFT14LCD_Write_DATAEc>
    5390:	69 ef       	ldi	r22, 0xF9	; 249
    5392:	ce 01       	movw	r24, r28
    5394:	0e 94 64 17 	call	0x2ec8	; 0x2ec8 <_ZN4UTFT13LCD_Write_COMEc>
    5398:	60 e0       	ldi	r22, 0x00	; 0
    539a:	ce 01       	movw	r24, r28
    539c:	0e 94 a0 17 	call	0x2f40	; 0x2f40 <_ZN4UTFT14LCD_Write_DATAEc>
    53a0:	68 e0       	ldi	r22, 0x08	; 8
    53a2:	ce 01       	movw	r24, r28
    53a4:	0e 94 a0 17 	call	0x2f40	; 0x2f40 <_ZN4UTFT14LCD_Write_DATAEc>
    53a8:	60 ec       	ldi	r22, 0xC0	; 192
    53aa:	ce 01       	movw	r24, r28
    53ac:	0e 94 64 17 	call	0x2ec8	; 0x2ec8 <_ZN4UTFT13LCD_Write_COMEc>
    53b0:	6d e0       	ldi	r22, 0x0D	; 13
    53b2:	ce 01       	movw	r24, r28
    53b4:	0e 94 a0 17 	call	0x2f40	; 0x2f40 <_ZN4UTFT14LCD_Write_DATAEc>
    53b8:	6d e0       	ldi	r22, 0x0D	; 13
    53ba:	ce 01       	movw	r24, r28
    53bc:	0e 94 a0 17 	call	0x2f40	; 0x2f40 <_ZN4UTFT14LCD_Write_DATAEc>
    53c0:	61 ec       	ldi	r22, 0xC1	; 193
    53c2:	ce 01       	movw	r24, r28
    53c4:	0e 94 64 17 	call	0x2ec8	; 0x2ec8 <_ZN4UTFT13LCD_Write_COMEc>
    53c8:	63 e4       	ldi	r22, 0x43	; 67
    53ca:	ce 01       	movw	r24, r28
    53cc:	0e 94 a0 17 	call	0x2f40	; 0x2f40 <_ZN4UTFT14LCD_Write_DATAEc>
    53d0:	60 e0       	ldi	r22, 0x00	; 0
    53d2:	ce 01       	movw	r24, r28
    53d4:	0e 94 a0 17 	call	0x2f40	; 0x2f40 <_ZN4UTFT14LCD_Write_DATAEc>
    53d8:	62 ec       	ldi	r22, 0xC2	; 194
    53da:	ce 01       	movw	r24, r28
    53dc:	0e 94 64 17 	call	0x2ec8	; 0x2ec8 <_ZN4UTFT13LCD_Write_COMEc>
    53e0:	60 e0       	ldi	r22, 0x00	; 0
    53e2:	ce 01       	movw	r24, r28
    53e4:	0e 94 a0 17 	call	0x2f40	; 0x2f40 <_ZN4UTFT14LCD_Write_DATAEc>
    53e8:	65 ec       	ldi	r22, 0xC5	; 197
    53ea:	ce 01       	movw	r24, r28
    53ec:	0e 94 64 17 	call	0x2ec8	; 0x2ec8 <_ZN4UTFT13LCD_Write_COMEc>
    53f0:	60 e0       	ldi	r22, 0x00	; 0
    53f2:	ce 01       	movw	r24, r28
    53f4:	0e 94 a0 17 	call	0x2f40	; 0x2f40 <_ZN4UTFT14LCD_Write_DATAEc>
    53f8:	68 e4       	ldi	r22, 0x48	; 72
    53fa:	ce 01       	movw	r24, r28
    53fc:	0e 94 a0 17 	call	0x2f40	; 0x2f40 <_ZN4UTFT14LCD_Write_DATAEc>
    5400:	66 eb       	ldi	r22, 0xB6	; 182
    5402:	ce 01       	movw	r24, r28
    5404:	0e 94 64 17 	call	0x2ec8	; 0x2ec8 <_ZN4UTFT13LCD_Write_COMEc>
    5408:	60 e0       	ldi	r22, 0x00	; 0
    540a:	ce 01       	movw	r24, r28
    540c:	0e 94 a0 17 	call	0x2f40	; 0x2f40 <_ZN4UTFT14LCD_Write_DATAEc>
    5410:	62 e2       	ldi	r22, 0x22	; 34
    5412:	ce 01       	movw	r24, r28
    5414:	0e 94 a0 17 	call	0x2f40	; 0x2f40 <_ZN4UTFT14LCD_Write_DATAEc>
    5418:	6b e3       	ldi	r22, 0x3B	; 59
    541a:	ce 01       	movw	r24, r28
    541c:	0e 94 a0 17 	call	0x2f40	; 0x2f40 <_ZN4UTFT14LCD_Write_DATAEc>
    5420:	60 ee       	ldi	r22, 0xE0	; 224
    5422:	ce 01       	movw	r24, r28
    5424:	0e 94 64 17 	call	0x2ec8	; 0x2ec8 <_ZN4UTFT13LCD_Write_COMEc>
    5428:	6f e0       	ldi	r22, 0x0F	; 15
    542a:	ce 01       	movw	r24, r28
    542c:	0e 94 a0 17 	call	0x2f40	; 0x2f40 <_ZN4UTFT14LCD_Write_DATAEc>
    5430:	64 e2       	ldi	r22, 0x24	; 36
    5432:	ce 01       	movw	r24, r28
    5434:	0e 94 a0 17 	call	0x2f40	; 0x2f40 <_ZN4UTFT14LCD_Write_DATAEc>
    5438:	6c e1       	ldi	r22, 0x1C	; 28
    543a:	ce 01       	movw	r24, r28
    543c:	0e 94 a0 17 	call	0x2f40	; 0x2f40 <_ZN4UTFT14LCD_Write_DATAEc>
    5440:	6a e0       	ldi	r22, 0x0A	; 10
    5442:	ce 01       	movw	r24, r28
    5444:	0e 94 a0 17 	call	0x2f40	; 0x2f40 <_ZN4UTFT14LCD_Write_DATAEc>
    5448:	6f e0       	ldi	r22, 0x0F	; 15
    544a:	ce 01       	movw	r24, r28
    544c:	0e 94 a0 17 	call	0x2f40	; 0x2f40 <_ZN4UTFT14LCD_Write_DATAEc>
    5450:	68 e0       	ldi	r22, 0x08	; 8
    5452:	ce 01       	movw	r24, r28
    5454:	0e 94 a0 17 	call	0x2f40	; 0x2f40 <_ZN4UTFT14LCD_Write_DATAEc>
    5458:	63 e4       	ldi	r22, 0x43	; 67
    545a:	ce 01       	movw	r24, r28
    545c:	0e 94 a0 17 	call	0x2f40	; 0x2f40 <_ZN4UTFT14LCD_Write_DATAEc>
    5460:	68 e8       	ldi	r22, 0x88	; 136
    5462:	ce 01       	movw	r24, r28
    5464:	0e 94 a0 17 	call	0x2f40	; 0x2f40 <_ZN4UTFT14LCD_Write_DATAEc>
    5468:	62 e3       	ldi	r22, 0x32	; 50
    546a:	ce 01       	movw	r24, r28
    546c:	0e 94 a0 17 	call	0x2f40	; 0x2f40 <_ZN4UTFT14LCD_Write_DATAEc>
    5470:	6f e0       	ldi	r22, 0x0F	; 15
    5472:	ce 01       	movw	r24, r28
    5474:	0e 94 a0 17 	call	0x2f40	; 0x2f40 <_ZN4UTFT14LCD_Write_DATAEc>
    5478:	60 e1       	ldi	r22, 0x10	; 16
    547a:	ce 01       	movw	r24, r28
    547c:	0e 94 a0 17 	call	0x2f40	; 0x2f40 <_ZN4UTFT14LCD_Write_DATAEc>
    5480:	66 e0       	ldi	r22, 0x06	; 6
    5482:	ce 01       	movw	r24, r28
    5484:	0e 94 a0 17 	call	0x2f40	; 0x2f40 <_ZN4UTFT14LCD_Write_DATAEc>
    5488:	6f e0       	ldi	r22, 0x0F	; 15
    548a:	ce 01       	movw	r24, r28
    548c:	0e 94 a0 17 	call	0x2f40	; 0x2f40 <_ZN4UTFT14LCD_Write_DATAEc>
    5490:	67 e0       	ldi	r22, 0x07	; 7
    5492:	ce 01       	movw	r24, r28
    5494:	0e 94 a0 17 	call	0x2f40	; 0x2f40 <_ZN4UTFT14LCD_Write_DATAEc>
    5498:	60 e0       	ldi	r22, 0x00	; 0
    549a:	ce 01       	movw	r24, r28
    549c:	0e 94 a0 17 	call	0x2f40	; 0x2f40 <_ZN4UTFT14LCD_Write_DATAEc>
    54a0:	61 ee       	ldi	r22, 0xE1	; 225
    54a2:	ce 01       	movw	r24, r28
    54a4:	0e 94 64 17 	call	0x2ec8	; 0x2ec8 <_ZN4UTFT13LCD_Write_COMEc>
    54a8:	6f e0       	ldi	r22, 0x0F	; 15
    54aa:	ce 01       	movw	r24, r28
    54ac:	0e 94 a0 17 	call	0x2f40	; 0x2f40 <_ZN4UTFT14LCD_Write_DATAEc>
    54b0:	68 e3       	ldi	r22, 0x38	; 56
    54b2:	ce 01       	movw	r24, r28
    54b4:	0e 94 a0 17 	call	0x2f40	; 0x2f40 <_ZN4UTFT14LCD_Write_DATAEc>
    54b8:	60 e3       	ldi	r22, 0x30	; 48
    54ba:	ce 01       	movw	r24, r28
    54bc:	0e 94 a0 17 	call	0x2f40	; 0x2f40 <_ZN4UTFT14LCD_Write_DATAEc>
    54c0:	69 e0       	ldi	r22, 0x09	; 9
    54c2:	ce 01       	movw	r24, r28
    54c4:	0e 94 a0 17 	call	0x2f40	; 0x2f40 <_ZN4UTFT14LCD_Write_DATAEc>
    54c8:	6f e0       	ldi	r22, 0x0F	; 15
    54ca:	ce 01       	movw	r24, r28
    54cc:	0e 94 a0 17 	call	0x2f40	; 0x2f40 <_ZN4UTFT14LCD_Write_DATAEc>
    54d0:	6f e0       	ldi	r22, 0x0F	; 15
    54d2:	ce 01       	movw	r24, r28
    54d4:	0e 94 a0 17 	call	0x2f40	; 0x2f40 <_ZN4UTFT14LCD_Write_DATAEc>
    54d8:	6e e4       	ldi	r22, 0x4E	; 78
    54da:	ce 01       	movw	r24, r28
    54dc:	0e 94 a0 17 	call	0x2f40	; 0x2f40 <_ZN4UTFT14LCD_Write_DATAEc>
    54e0:	67 e7       	ldi	r22, 0x77	; 119
    54e2:	ce 01       	movw	r24, r28
    54e4:	0e 94 a0 17 	call	0x2f40	; 0x2f40 <_ZN4UTFT14LCD_Write_DATAEc>
    54e8:	6c e3       	ldi	r22, 0x3C	; 60
    54ea:	ce 01       	movw	r24, r28
    54ec:	0e 94 a0 17 	call	0x2f40	; 0x2f40 <_ZN4UTFT14LCD_Write_DATAEc>
    54f0:	67 e0       	ldi	r22, 0x07	; 7
    54f2:	ce 01       	movw	r24, r28
    54f4:	0e 94 a0 17 	call	0x2f40	; 0x2f40 <_ZN4UTFT14LCD_Write_DATAEc>
    54f8:	60 e1       	ldi	r22, 0x10	; 16
    54fa:	ce 01       	movw	r24, r28
    54fc:	0e 94 a0 17 	call	0x2f40	; 0x2f40 <_ZN4UTFT14LCD_Write_DATAEc>
    5500:	65 e0       	ldi	r22, 0x05	; 5
    5502:	ce 01       	movw	r24, r28
    5504:	0e 94 a0 17 	call	0x2f40	; 0x2f40 <_ZN4UTFT14LCD_Write_DATAEc>
    5508:	63 e2       	ldi	r22, 0x23	; 35
    550a:	ce 01       	movw	r24, r28
    550c:	0e 94 a0 17 	call	0x2f40	; 0x2f40 <_ZN4UTFT14LCD_Write_DATAEc>
    5510:	6b e1       	ldi	r22, 0x1B	; 27
    5512:	ce 01       	movw	r24, r28
    5514:	0e 94 a0 17 	call	0x2f40	; 0x2f40 <_ZN4UTFT14LCD_Write_DATAEc>
    5518:	60 e0       	ldi	r22, 0x00	; 0
    551a:	ce 01       	movw	r24, r28
    551c:	0e 94 a0 17 	call	0x2f40	; 0x2f40 <_ZN4UTFT14LCD_Write_DATAEc>
    5520:	60 e2       	ldi	r22, 0x20	; 32
    5522:	ce 01       	movw	r24, r28
    5524:	0e 94 64 17 	call	0x2ec8	; 0x2ec8 <_ZN4UTFT13LCD_Write_COMEc>
    5528:	60 e0       	ldi	r22, 0x00	; 0
    552a:	ce 01       	movw	r24, r28
    552c:	0e 94 a0 17 	call	0x2f40	; 0x2f40 <_ZN4UTFT14LCD_Write_DATAEc>
    5530:	66 e3       	ldi	r22, 0x36	; 54
    5532:	ce 01       	movw	r24, r28
    5534:	0e 94 64 17 	call	0x2ec8	; 0x2ec8 <_ZN4UTFT13LCD_Write_COMEc>
    5538:	6a e0       	ldi	r22, 0x0A	; 10
    553a:	ce 01       	movw	r24, r28
    553c:	0e 94 a0 17 	call	0x2f40	; 0x2f40 <_ZN4UTFT14LCD_Write_DATAEc>
    5540:	6a e3       	ldi	r22, 0x3A	; 58
    5542:	ce 01       	movw	r24, r28
    5544:	0e 94 64 17 	call	0x2ec8	; 0x2ec8 <_ZN4UTFT13LCD_Write_COMEc>
    5548:	65 e5       	ldi	r22, 0x55	; 85
    554a:	ce 01       	movw	r24, r28
    554c:	0e 94 a0 17 	call	0x2f40	; 0x2f40 <_ZN4UTFT14LCD_Write_DATAEc>
    5550:	6a e2       	ldi	r22, 0x2A	; 42
    5552:	ce 01       	movw	r24, r28
    5554:	0e 94 64 17 	call	0x2ec8	; 0x2ec8 <_ZN4UTFT13LCD_Write_COMEc>
    5558:	60 e0       	ldi	r22, 0x00	; 0
    555a:	ce 01       	movw	r24, r28
    555c:	0e 94 a0 17 	call	0x2f40	; 0x2f40 <_ZN4UTFT14LCD_Write_DATAEc>
    5560:	60 e0       	ldi	r22, 0x00	; 0
    5562:	ce 01       	movw	r24, r28
    5564:	0e 94 a0 17 	call	0x2f40	; 0x2f40 <_ZN4UTFT14LCD_Write_DATAEc>
    5568:	61 e0       	ldi	r22, 0x01	; 1
    556a:	ce 01       	movw	r24, r28
    556c:	0e 94 a0 17 	call	0x2f40	; 0x2f40 <_ZN4UTFT14LCD_Write_DATAEc>
    5570:	6f ed       	ldi	r22, 0xDF	; 223
    5572:	ce 01       	movw	r24, r28
    5574:	0e 94 a0 17 	call	0x2f40	; 0x2f40 <_ZN4UTFT14LCD_Write_DATAEc>
    5578:	6b e2       	ldi	r22, 0x2B	; 43
    557a:	ce 01       	movw	r24, r28
    557c:	0e 94 64 17 	call	0x2ec8	; 0x2ec8 <_ZN4UTFT13LCD_Write_COMEc>
    5580:	60 e0       	ldi	r22, 0x00	; 0
    5582:	ce 01       	movw	r24, r28
    5584:	0e 94 a0 17 	call	0x2f40	; 0x2f40 <_ZN4UTFT14LCD_Write_DATAEc>
    5588:	60 e0       	ldi	r22, 0x00	; 0
    558a:	ce 01       	movw	r24, r28
    558c:	0e 94 a0 17 	call	0x2f40	; 0x2f40 <_ZN4UTFT14LCD_Write_DATAEc>
    5590:	61 e0       	ldi	r22, 0x01	; 1
    5592:	ce 01       	movw	r24, r28
    5594:	0e 94 a0 17 	call	0x2f40	; 0x2f40 <_ZN4UTFT14LCD_Write_DATAEc>
    5598:	6f e3       	ldi	r22, 0x3F	; 63
    559a:	ce 01       	movw	r24, r28
    559c:	0e 94 a0 17 	call	0x2f40	; 0x2f40 <_ZN4UTFT14LCD_Write_DATAEc>
    55a0:	62 e3       	ldi	r22, 0x32	; 50
    55a2:	70 e0       	ldi	r23, 0x00	; 0
    55a4:	80 e0       	ldi	r24, 0x00	; 0
    55a6:	90 e0       	ldi	r25, 0x00	; 0
    55a8:	0e 94 a6 36 	call	0x6d4c	; 0x6d4c <delay>
    55ac:	69 e2       	ldi	r22, 0x29	; 41
    55ae:	ce 01       	movw	r24, r28
    55b0:	0e 94 64 17 	call	0x2ec8	; 0x2ec8 <_ZN4UTFT13LCD_Write_COMEc>
    55b4:	6c e2       	ldi	r22, 0x2C	; 44
    55b6:	0c 94 02 1d 	jmp	0x3a04	; 0x3a04 <_ZN4UTFT7InitLCDEh+0x7f4>
    55ba:	8c 81       	ldd	r24, Y+4	; 0x04
    55bc:	81 30       	cpi	r24, 0x01	; 1
    55be:	11 f4       	brne	.+4      	; 0x55c4 <_ZN4UTFT7InitLCDEh+0x23b4>
    55c0:	1c 82       	std	Y+4, r1	; 0x04
    55c2:	02 c0       	rjmp	.+4      	; 0x55c8 <_ZN4UTFT7InitLCDEh+0x23b8>
    55c4:	81 e0       	ldi	r24, 0x01	; 1
    55c6:	8c 83       	std	Y+4, r24	; 0x04
    55c8:	6f e0       	ldi	r22, 0x0F	; 15
    55ca:	ce 01       	movw	r24, r28
    55cc:	0e 94 64 17 	call	0x2ec8	; 0x2ec8 <_ZN4UTFT13LCD_Write_COMEc>
    55d0:	40 e1       	ldi	r20, 0x10	; 16
    55d2:	50 e0       	ldi	r21, 0x00	; 0
    55d4:	61 e0       	ldi	r22, 0x01	; 1
    55d6:	ce 01       	movw	r24, r28
    55d8:	0e 94 b8 17 	call	0x2f70	; 0x2f70 <_ZN4UTFT18LCD_Write_COM_DATAEci>
    55dc:	6f e0       	ldi	r22, 0x0F	; 15
    55de:	0c 94 02 1d 	jmp	0x3a04	; 0x3a04 <_ZN4UTFT7InitLCDEh+0x7f4>
    55e2:	69 eb       	ldi	r22, 0xB9	; 185
    55e4:	ce 01       	movw	r24, r28
    55e6:	0e 94 64 17 	call	0x2ec8	; 0x2ec8 <_ZN4UTFT13LCD_Write_COMEc>
    55ea:	6f ef       	ldi	r22, 0xFF	; 255
    55ec:	ce 01       	movw	r24, r28
    55ee:	0e 94 a0 17 	call	0x2f40	; 0x2f40 <_ZN4UTFT14LCD_Write_DATAEc>
    55f2:	63 e8       	ldi	r22, 0x83	; 131
    55f4:	ce 01       	movw	r24, r28
    55f6:	0e 94 a0 17 	call	0x2f40	; 0x2f40 <_ZN4UTFT14LCD_Write_DATAEc>
    55fa:	63 e5       	ldi	r22, 0x53	; 83
    55fc:	ce 01       	movw	r24, r28
    55fe:	0e 94 a0 17 	call	0x2f40	; 0x2f40 <_ZN4UTFT14LCD_Write_DATAEc>
    5602:	60 eb       	ldi	r22, 0xB0	; 176
    5604:	ce 01       	movw	r24, r28
    5606:	0e 94 64 17 	call	0x2ec8	; 0x2ec8 <_ZN4UTFT13LCD_Write_COMEc>
    560a:	6c e3       	ldi	r22, 0x3C	; 60
    560c:	ce 01       	movw	r24, r28
    560e:	0e 94 a0 17 	call	0x2f40	; 0x2f40 <_ZN4UTFT14LCD_Write_DATAEc>
    5612:	61 e0       	ldi	r22, 0x01	; 1
    5614:	ce 01       	movw	r24, r28
    5616:	0e 94 a0 17 	call	0x2f40	; 0x2f40 <_ZN4UTFT14LCD_Write_DATAEc>
    561a:	66 eb       	ldi	r22, 0xB6	; 182
    561c:	ce 01       	movw	r24, r28
    561e:	0e 94 64 17 	call	0x2ec8	; 0x2ec8 <_ZN4UTFT13LCD_Write_COMEc>
    5622:	64 e9       	ldi	r22, 0x94	; 148
    5624:	ce 01       	movw	r24, r28
    5626:	0e 94 a0 17 	call	0x2f40	; 0x2f40 <_ZN4UTFT14LCD_Write_DATAEc>
    562a:	6c e6       	ldi	r22, 0x6C	; 108
    562c:	ce 01       	movw	r24, r28
    562e:	0e 94 a0 17 	call	0x2f40	; 0x2f40 <_ZN4UTFT14LCD_Write_DATAEc>
    5632:	60 e5       	ldi	r22, 0x50	; 80
    5634:	ce 01       	movw	r24, r28
    5636:	0e 94 a0 17 	call	0x2f40	; 0x2f40 <_ZN4UTFT14LCD_Write_DATAEc>
    563a:	61 eb       	ldi	r22, 0xB1	; 177
    563c:	ce 01       	movw	r24, r28
    563e:	0e 94 64 17 	call	0x2ec8	; 0x2ec8 <_ZN4UTFT13LCD_Write_COMEc>
    5642:	60 e0       	ldi	r22, 0x00	; 0
    5644:	ce 01       	movw	r24, r28
    5646:	0e 94 a0 17 	call	0x2f40	; 0x2f40 <_ZN4UTFT14LCD_Write_DATAEc>
    564a:	61 e0       	ldi	r22, 0x01	; 1
    564c:	ce 01       	movw	r24, r28
    564e:	0e 94 a0 17 	call	0x2f40	; 0x2f40 <_ZN4UTFT14LCD_Write_DATAEc>
    5652:	6b e1       	ldi	r22, 0x1B	; 27
    5654:	ce 01       	movw	r24, r28
    5656:	0e 94 a0 17 	call	0x2f40	; 0x2f40 <_ZN4UTFT14LCD_Write_DATAEc>
    565a:	63 e0       	ldi	r22, 0x03	; 3
    565c:	ce 01       	movw	r24, r28
    565e:	0e 94 a0 17 	call	0x2f40	; 0x2f40 <_ZN4UTFT14LCD_Write_DATAEc>
    5662:	61 e0       	ldi	r22, 0x01	; 1
    5664:	ce 01       	movw	r24, r28
    5666:	0e 94 a0 17 	call	0x2f40	; 0x2f40 <_ZN4UTFT14LCD_Write_DATAEc>
    566a:	68 e0       	ldi	r22, 0x08	; 8
    566c:	ce 01       	movw	r24, r28
    566e:	0e 94 a0 17 	call	0x2f40	; 0x2f40 <_ZN4UTFT14LCD_Write_DATAEc>
    5672:	67 e7       	ldi	r22, 0x77	; 119
    5674:	ce 01       	movw	r24, r28
    5676:	0e 94 a0 17 	call	0x2f40	; 0x2f40 <_ZN4UTFT14LCD_Write_DATAEc>
    567a:	69 e8       	ldi	r22, 0x89	; 137
    567c:	ce 01       	movw	r24, r28
    567e:	0e 94 a0 17 	call	0x2f40	; 0x2f40 <_ZN4UTFT14LCD_Write_DATAEc>
    5682:	60 ee       	ldi	r22, 0xE0	; 224
    5684:	ce 01       	movw	r24, r28
    5686:	0e 94 64 17 	call	0x2ec8	; 0x2ec8 <_ZN4UTFT13LCD_Write_COMEc>
    568a:	60 e5       	ldi	r22, 0x50	; 80
    568c:	ce 01       	movw	r24, r28
    568e:	0e 94 a0 17 	call	0x2f40	; 0x2f40 <_ZN4UTFT14LCD_Write_DATAEc>
    5692:	67 e7       	ldi	r22, 0x77	; 119
    5694:	ce 01       	movw	r24, r28
    5696:	0e 94 a0 17 	call	0x2f40	; 0x2f40 <_ZN4UTFT14LCD_Write_DATAEc>
    569a:	60 e4       	ldi	r22, 0x40	; 64
    569c:	ce 01       	movw	r24, r28
    569e:	0e 94 a0 17 	call	0x2f40	; 0x2f40 <_ZN4UTFT14LCD_Write_DATAEc>
    56a2:	68 e0       	ldi	r22, 0x08	; 8
    56a4:	ce 01       	movw	r24, r28
    56a6:	0e 94 a0 17 	call	0x2f40	; 0x2f40 <_ZN4UTFT14LCD_Write_DATAEc>
    56aa:	6f eb       	ldi	r22, 0xBF	; 191
    56ac:	ce 01       	movw	r24, r28
    56ae:	0e 94 a0 17 	call	0x2f40	; 0x2f40 <_ZN4UTFT14LCD_Write_DATAEc>
    56b2:	60 e0       	ldi	r22, 0x00	; 0
    56b4:	ce 01       	movw	r24, r28
    56b6:	0e 94 a0 17 	call	0x2f40	; 0x2f40 <_ZN4UTFT14LCD_Write_DATAEc>
    56ba:	63 e0       	ldi	r22, 0x03	; 3
    56bc:	ce 01       	movw	r24, r28
    56be:	0e 94 a0 17 	call	0x2f40	; 0x2f40 <_ZN4UTFT14LCD_Write_DATAEc>
    56c2:	6f e0       	ldi	r22, 0x0F	; 15
    56c4:	ce 01       	movw	r24, r28
    56c6:	0e 94 a0 17 	call	0x2f40	; 0x2f40 <_ZN4UTFT14LCD_Write_DATAEc>
    56ca:	60 e0       	ldi	r22, 0x00	; 0
    56cc:	ce 01       	movw	r24, r28
    56ce:	0e 94 a0 17 	call	0x2f40	; 0x2f40 <_ZN4UTFT14LCD_Write_DATAEc>
    56d2:	61 e0       	ldi	r22, 0x01	; 1
    56d4:	ce 01       	movw	r24, r28
    56d6:	0e 94 a0 17 	call	0x2f40	; 0x2f40 <_ZN4UTFT14LCD_Write_DATAEc>
    56da:	63 e7       	ldi	r22, 0x73	; 115
    56dc:	ce 01       	movw	r24, r28
    56de:	0e 94 a0 17 	call	0x2f40	; 0x2f40 <_ZN4UTFT14LCD_Write_DATAEc>
    56e2:	60 e0       	ldi	r22, 0x00	; 0
    56e4:	ce 01       	movw	r24, r28
    56e6:	0e 94 a0 17 	call	0x2f40	; 0x2f40 <_ZN4UTFT14LCD_Write_DATAEc>
    56ea:	62 e7       	ldi	r22, 0x72	; 114
    56ec:	ce 01       	movw	r24, r28
    56ee:	0e 94 a0 17 	call	0x2f40	; 0x2f40 <_ZN4UTFT14LCD_Write_DATAEc>
    56f2:	63 e0       	ldi	r22, 0x03	; 3
    56f4:	ce 01       	movw	r24, r28
    56f6:	0e 94 a0 17 	call	0x2f40	; 0x2f40 <_ZN4UTFT14LCD_Write_DATAEc>
    56fa:	60 eb       	ldi	r22, 0xB0	; 176
    56fc:	ce 01       	movw	r24, r28
    56fe:	0e 94 a0 17 	call	0x2f40	; 0x2f40 <_ZN4UTFT14LCD_Write_DATAEc>
    5702:	6f e0       	ldi	r22, 0x0F	; 15
    5704:	ce 01       	movw	r24, r28
    5706:	0e 94 a0 17 	call	0x2f40	; 0x2f40 <_ZN4UTFT14LCD_Write_DATAEc>
    570a:	68 e0       	ldi	r22, 0x08	; 8
    570c:	ce 01       	movw	r24, r28
    570e:	0e 94 a0 17 	call	0x2f40	; 0x2f40 <_ZN4UTFT14LCD_Write_DATAEc>
    5712:	60 e0       	ldi	r22, 0x00	; 0
    5714:	ce 01       	movw	r24, r28
    5716:	0e 94 a0 17 	call	0x2f40	; 0x2f40 <_ZN4UTFT14LCD_Write_DATAEc>
    571a:	6f e0       	ldi	r22, 0x0F	; 15
    571c:	ce 01       	movw	r24, r28
    571e:	0e 94 a0 17 	call	0x2f40	; 0x2f40 <_ZN4UTFT14LCD_Write_DATAEc>
    5722:	6a e3       	ldi	r22, 0x3A	; 58
    5724:	ce 01       	movw	r24, r28
    5726:	0e 94 64 17 	call	0x2ec8	; 0x2ec8 <_ZN4UTFT13LCD_Write_COMEc>
    572a:	65 e0       	ldi	r22, 0x05	; 5
    572c:	ce 01       	movw	r24, r28
    572e:	0e 94 a0 17 	call	0x2f40	; 0x2f40 <_ZN4UTFT14LCD_Write_DATAEc>
    5732:	66 e3       	ldi	r22, 0x36	; 54
    5734:	ce 01       	movw	r24, r28
    5736:	0e 94 64 17 	call	0x2ec8	; 0x2ec8 <_ZN4UTFT13LCD_Write_COMEc>
    573a:	60 ec       	ldi	r22, 0xC0	; 192
    573c:	ce 01       	movw	r24, r28
    573e:	0e 94 a0 17 	call	0x2f40	; 0x2f40 <_ZN4UTFT14LCD_Write_DATAEc>
    5742:	61 e1       	ldi	r22, 0x11	; 17
    5744:	ce 01       	movw	r24, r28
    5746:	0e 94 64 17 	call	0x2ec8	; 0x2ec8 <_ZN4UTFT13LCD_Write_COMEc>
    574a:	66 e9       	ldi	r22, 0x96	; 150
    574c:	70 e0       	ldi	r23, 0x00	; 0
    574e:	80 e0       	ldi	r24, 0x00	; 0
    5750:	90 e0       	ldi	r25, 0x00	; 0
    5752:	0e 94 a6 36 	call	0x6d4c	; 0x6d4c <delay>
    5756:	69 e2       	ldi	r22, 0x29	; 41
    5758:	ce 01       	movw	r24, r28
    575a:	0e 94 64 17 	call	0x2ec8	; 0x2ec8 <_ZN4UTFT13LCD_Write_COMEc>
    575e:	66 e9       	ldi	r22, 0x96	; 150
    5760:	70 e0       	ldi	r23, 0x00	; 0
    5762:	80 e0       	ldi	r24, 0x00	; 0
    5764:	90 e0       	ldi	r25, 0x00	; 0
    5766:	0e 94 a6 36 	call	0x6d4c	; 0x6d4c <delay>
    576a:	6d e2       	ldi	r22, 0x2D	; 45
    576c:	ce 01       	movw	r24, r28
    576e:	0e 94 64 17 	call	0x2ec8	; 0x2ec8 <_ZN4UTFT13LCD_Write_COMEc>
    5772:	10 e0       	ldi	r17, 0x00	; 0
    5774:	61 2f       	mov	r22, r17
    5776:	ce 01       	movw	r24, r28
    5778:	0e 94 a0 17 	call	0x2f40	; 0x2f40 <_ZN4UTFT14LCD_Write_DATAEc>
    577c:	1e 5f       	subi	r17, 0xFE	; 254
    577e:	10 34       	cpi	r17, 0x40	; 64
    5780:	c9 f7       	brne	.-14     	; 0x5774 <_ZN4UTFT7InitLCDEh+0x2564>
    5782:	10 e0       	ldi	r17, 0x00	; 0
    5784:	61 2f       	mov	r22, r17
    5786:	ce 01       	movw	r24, r28
    5788:	0e 94 a0 17 	call	0x2f40	; 0x2f40 <_ZN4UTFT14LCD_Write_DATAEc>
    578c:	1f 5f       	subi	r17, 0xFF	; 255
    578e:	10 34       	cpi	r17, 0x40	; 64
    5790:	c9 f7       	brne	.-14     	; 0x5784 <_ZN4UTFT7InitLCDEh+0x2574>
    5792:	10 e0       	ldi	r17, 0x00	; 0
    5794:	61 2f       	mov	r22, r17
    5796:	ce 01       	movw	r24, r28
    5798:	0e 94 a0 17 	call	0x2f40	; 0x2f40 <_ZN4UTFT14LCD_Write_DATAEc>
    579c:	1e 5f       	subi	r17, 0xFE	; 254
    579e:	10 34       	cpi	r17, 0x40	; 64
    57a0:	c9 f7       	brne	.-14     	; 0x5794 <_ZN4UTFT7InitLCDEh+0x2584>
    57a2:	6c e2       	ldi	r22, 0x2C	; 44
    57a4:	ce 01       	movw	r24, r28
    57a6:	0e 94 64 17 	call	0x2ec8	; 0x2ec8 <_ZN4UTFT13LCD_Write_COMEc>
    57aa:	66 e9       	ldi	r22, 0x96	; 150
    57ac:	70 e0       	ldi	r23, 0x00	; 0
    57ae:	80 e0       	ldi	r24, 0x00	; 0
    57b0:	90 e0       	ldi	r25, 0x00	; 0
    57b2:	0e 94 a6 36 	call	0x6d4c	; 0x6d4c <delay>
    57b6:	ec 89       	ldd	r30, Y+20	; 0x14
    57b8:	fd 89       	ldd	r31, Y+21	; 0x15
    57ba:	90 81       	ld	r25, Z
    57bc:	88 a1       	ldd	r24, Y+32	; 0x20
    57be:	89 2b       	or	r24, r25
    57c0:	80 83       	st	Z, r24
    57c2:	8f ef       	ldi	r24, 0xFF	; 255
    57c4:	88 83       	st	Y, r24
    57c6:	89 83       	std	Y+1, r24	; 0x01
    57c8:	1a 82       	std	Y+2, r1	; 0x02
    57ca:	1b 82       	std	Y+3, r1	; 0x03
    57cc:	18 aa       	std	Y+48, r1	; 0x30
    57ce:	1b a6       	std	Y+43, r1	; 0x2b
    57d0:	1a a6       	std	Y+42, r1	; 0x2a
    57d2:	df 91       	pop	r29
    57d4:	cf 91       	pop	r28
    57d6:	1f 91       	pop	r17
    57d8:	0f 91       	pop	r16
    57da:	08 95       	ret

000057dc <_ZN4UTFT5clrXYEv>:
    57dc:	0f 93       	push	r16
    57de:	1f 93       	push	r17
    57e0:	fc 01       	movw	r30, r24
    57e2:	64 81       	ldd	r22, Z+4	; 0x04
    57e4:	21 85       	ldd	r18, Z+9	; 0x09
    57e6:	32 85       	ldd	r19, Z+10	; 0x0a
    57e8:	45 81       	ldd	r20, Z+5	; 0x05
    57ea:	56 81       	ldd	r21, Z+6	; 0x06
    57ec:	61 11       	cpse	r22, r1
    57ee:	03 c0       	rjmp	.+6      	; 0x57f6 <_ZN4UTFT5clrXYEv+0x1a>
    57f0:	89 01       	movw	r16, r18
    57f2:	9a 01       	movw	r18, r20
    57f4:	01 c0       	rjmp	.+2      	; 0x57f8 <_ZN4UTFT5clrXYEv+0x1c>
    57f6:	8a 01       	movw	r16, r20
    57f8:	40 e0       	ldi	r20, 0x00	; 0
    57fa:	50 e0       	ldi	r21, 0x00	; 0
    57fc:	60 e0       	ldi	r22, 0x00	; 0
    57fe:	70 e0       	ldi	r23, 0x00	; 0
    5800:	0e 94 c7 17 	call	0x2f8e	; 0x2f8e <_ZN4UTFT5setXYEjjjj>
    5804:	1f 91       	pop	r17
    5806:	0f 91       	pop	r16
    5808:	08 95       	ret

0000580a <_ZN4UTFT6clrScrEv>:
    580a:	cf 92       	push	r12
    580c:	df 92       	push	r13
    580e:	ef 92       	push	r14
    5810:	ff 92       	push	r15
    5812:	0f 93       	push	r16
    5814:	1f 93       	push	r17
    5816:	cf 93       	push	r28
    5818:	df 93       	push	r29
    581a:	ec 01       	movw	r28, r24
    581c:	ec 89       	ldd	r30, Y+20	; 0x14
    581e:	fd 89       	ldd	r31, Y+21	; 0x15
    5820:	90 81       	ld	r25, Z
    5822:	88 a1       	ldd	r24, Y+32	; 0x20
    5824:	80 95       	com	r24
    5826:	89 23       	and	r24, r25
    5828:	80 83       	st	Z, r24
    582a:	ce 01       	movw	r24, r28
    582c:	d7 df       	rcall	.-82     	; 0x57dc <_ZN4UTFT5clrXYEv>
    582e:	8e 85       	ldd	r24, Y+14	; 0x0e
    5830:	81 30       	cpi	r24, 0x01	; 1
    5832:	31 f0       	breq	.+12     	; 0x5840 <_ZN4UTFT6clrScrEv+0x36>
    5834:	e8 89       	ldd	r30, Y+16	; 0x10
    5836:	f9 89       	ldd	r31, Y+17	; 0x11
    5838:	90 81       	ld	r25, Z
    583a:	8e 8d       	ldd	r24, Y+30	; 0x1e
    583c:	89 2b       	or	r24, r25
    583e:	80 83       	st	Z, r24
    5840:	ee 85       	ldd	r30, Y+14	; 0x0e
    5842:	4d 81       	ldd	r20, Y+5	; 0x05
    5844:	5e 81       	ldd	r21, Y+6	; 0x06
    5846:	6f 81       	ldd	r22, Y+7	; 0x07
    5848:	78 85       	ldd	r23, Y+8	; 0x08
    584a:	89 85       	ldd	r24, Y+9	; 0x09
    584c:	9a 85       	ldd	r25, Y+10	; 0x0a
    584e:	ab 85       	ldd	r26, Y+11	; 0x0b
    5850:	bc 85       	ldd	r27, Y+12	; 0x0c
    5852:	e0 31       	cpi	r30, 0x10	; 16
    5854:	c1 f4       	brne	.+48     	; 0x5886 <_ZN4UTFT6clrScrEv+0x7c>
    5856:	9a 01       	movw	r18, r20
    5858:	ab 01       	movw	r20, r22
    585a:	2f 5f       	subi	r18, 0xFF	; 255
    585c:	3f 4f       	sbci	r19, 0xFF	; 255
    585e:	4f 4f       	sbci	r20, 0xFF	; 255
    5860:	5f 4f       	sbci	r21, 0xFF	; 255
    5862:	bc 01       	movw	r22, r24
    5864:	cd 01       	movw	r24, r26
    5866:	6f 5f       	subi	r22, 0xFF	; 255
    5868:	7f 4f       	sbci	r23, 0xFF	; 255
    586a:	8f 4f       	sbci	r24, 0xFF	; 255
    586c:	9f 4f       	sbci	r25, 0xFF	; 255
    586e:	0e 94 e1 39 	call	0x73c2	; 0x73c2 <__mulsi3>
    5872:	8b 01       	movw	r16, r22
    5874:	9c 01       	movw	r18, r24
    5876:	40 e0       	ldi	r20, 0x00	; 0
    5878:	50 e0       	ldi	r21, 0x00	; 0
    587a:	60 e0       	ldi	r22, 0x00	; 0
    587c:	70 e0       	ldi	r23, 0x00	; 0
    587e:	ce 01       	movw	r24, r28
    5880:	0e 94 7c 12 	call	0x24f8	; 0x24f8 <_ZN4UTFT13_fast_fill_16Eiil>
    5884:	4f c0       	rjmp	.+158    	; 0x5924 <_ZN4UTFT6clrScrEv+0x11a>
    5886:	e8 30       	cpi	r30, 0x08	; 8
    5888:	21 f0       	breq	.+8      	; 0x5892 <_ZN4UTFT6clrScrEv+0x88>
    588a:	c1 2c       	mov	r12, r1
    588c:	d1 2c       	mov	r13, r1
    588e:	76 01       	movw	r14, r12
    5890:	23 c0       	rjmp	.+70     	; 0x58d8 <_ZN4UTFT6clrScrEv+0xce>
    5892:	9a 01       	movw	r18, r20
    5894:	ab 01       	movw	r20, r22
    5896:	2f 5f       	subi	r18, 0xFF	; 255
    5898:	3f 4f       	sbci	r19, 0xFF	; 255
    589a:	4f 4f       	sbci	r20, 0xFF	; 255
    589c:	5f 4f       	sbci	r21, 0xFF	; 255
    589e:	bc 01       	movw	r22, r24
    58a0:	cd 01       	movw	r24, r26
    58a2:	6f 5f       	subi	r22, 0xFF	; 255
    58a4:	7f 4f       	sbci	r23, 0xFF	; 255
    58a6:	8f 4f       	sbci	r24, 0xFF	; 255
    58a8:	9f 4f       	sbci	r25, 0xFF	; 255
    58aa:	0e 94 e1 39 	call	0x73c2	; 0x73c2 <__mulsi3>
    58ae:	9b 01       	movw	r18, r22
    58b0:	ac 01       	movw	r20, r24
    58b2:	60 e0       	ldi	r22, 0x00	; 0
    58b4:	70 e0       	ldi	r23, 0x00	; 0
    58b6:	ce 01       	movw	r24, r28
    58b8:	0e 94 ae 13 	call	0x275c	; 0x275c <_ZN4UTFT12_fast_fill_8Eil>
    58bc:	33 c0       	rjmp	.+102    	; 0x5924 <_ZN4UTFT6clrScrEv+0x11a>
    58be:	2e 85       	ldd	r18, Y+14	; 0x0e
    58c0:	21 30       	cpi	r18, 0x01	; 1
    58c2:	31 f1       	breq	.+76     	; 0x5910 <_ZN4UTFT6clrScrEv+0x106>
    58c4:	40 e0       	ldi	r20, 0x00	; 0
    58c6:	60 e0       	ldi	r22, 0x00	; 0
    58c8:	ce 01       	movw	r24, r28
    58ca:	0e 94 d5 10 	call	0x21aa	; 0x21aa <_ZN4UTFT12LCD_Writ_BusEcch>
    58ce:	8f ef       	ldi	r24, 0xFF	; 255
    58d0:	c8 1a       	sub	r12, r24
    58d2:	d8 0a       	sbc	r13, r24
    58d4:	e8 0a       	sbc	r14, r24
    58d6:	f8 0a       	sbc	r15, r24
    58d8:	8d 81       	ldd	r24, Y+5	; 0x05
    58da:	9e 81       	ldd	r25, Y+6	; 0x06
    58dc:	af 81       	ldd	r26, Y+7	; 0x07
    58de:	b8 85       	ldd	r27, Y+8	; 0x08
    58e0:	9c 01       	movw	r18, r24
    58e2:	ad 01       	movw	r20, r26
    58e4:	2f 5f       	subi	r18, 0xFF	; 255
    58e6:	3f 4f       	sbci	r19, 0xFF	; 255
    58e8:	4f 4f       	sbci	r20, 0xFF	; 255
    58ea:	5f 4f       	sbci	r21, 0xFF	; 255
    58ec:	89 85       	ldd	r24, Y+9	; 0x09
    58ee:	9a 85       	ldd	r25, Y+10	; 0x0a
    58f0:	ab 85       	ldd	r26, Y+11	; 0x0b
    58f2:	bc 85       	ldd	r27, Y+12	; 0x0c
    58f4:	bc 01       	movw	r22, r24
    58f6:	cd 01       	movw	r24, r26
    58f8:	6f 5f       	subi	r22, 0xFF	; 255
    58fa:	7f 4f       	sbci	r23, 0xFF	; 255
    58fc:	8f 4f       	sbci	r24, 0xFF	; 255
    58fe:	9f 4f       	sbci	r25, 0xFF	; 255
    5900:	0e 94 e1 39 	call	0x73c2	; 0x73c2 <__mulsi3>
    5904:	c6 16       	cp	r12, r22
    5906:	d7 06       	cpc	r13, r23
    5908:	e8 06       	cpc	r14, r24
    590a:	f9 06       	cpc	r15, r25
    590c:	c4 f2       	brlt	.-80     	; 0x58be <_ZN4UTFT6clrScrEv+0xb4>
    590e:	0a c0       	rjmp	.+20     	; 0x5924 <_ZN4UTFT6clrScrEv+0x11a>
    5910:	21 e0       	ldi	r18, 0x01	; 1
    5912:	40 e0       	ldi	r20, 0x00	; 0
    5914:	61 e0       	ldi	r22, 0x01	; 1
    5916:	ce 01       	movw	r24, r28
    5918:	0e 94 d5 10 	call	0x21aa	; 0x21aa <_ZN4UTFT12LCD_Writ_BusEcch>
    591c:	2e 85       	ldd	r18, Y+14	; 0x0e
    591e:	40 e0       	ldi	r20, 0x00	; 0
    5920:	61 e0       	ldi	r22, 0x01	; 1
    5922:	d2 cf       	rjmp	.-92     	; 0x58c8 <_ZN4UTFT6clrScrEv+0xbe>
    5924:	ec 89       	ldd	r30, Y+20	; 0x14
    5926:	fd 89       	ldd	r31, Y+21	; 0x15
    5928:	90 81       	ld	r25, Z
    592a:	88 a1       	ldd	r24, Y+32	; 0x20
    592c:	89 2b       	or	r24, r25
    592e:	80 83       	st	Z, r24
    5930:	df 91       	pop	r29
    5932:	cf 91       	pop	r28
    5934:	1f 91       	pop	r17
    5936:	0f 91       	pop	r16
    5938:	ff 90       	pop	r15
    593a:	ef 90       	pop	r14
    593c:	df 90       	pop	r13
    593e:	cf 90       	pop	r12
    5940:	08 95       	ret

00005942 <_ZN4UTFT8setColorEj>:
    5942:	fc 01       	movw	r30, r24
    5944:	70 83       	st	Z, r23
    5946:	61 83       	std	Z+1, r22	; 0x01
    5948:	08 95       	ret

0000594a <_ZN4UTFT12setBackColorEm>:
    594a:	fc 01       	movw	r30, r24
    594c:	4f 3f       	cpi	r20, 0xFF	; 255
    594e:	8f ef       	ldi	r24, 0xFF	; 255
    5950:	58 07       	cpc	r21, r24
    5952:	68 07       	cpc	r22, r24
    5954:	78 07       	cpc	r23, r24
    5956:	19 f4       	brne	.+6      	; 0x595e <_ZN4UTFT12setBackColorEm+0x14>
    5958:	81 e0       	ldi	r24, 0x01	; 1
    595a:	80 ab       	std	Z+48, r24	; 0x30
    595c:	08 95       	ret
    595e:	52 83       	std	Z+2, r21	; 0x02
    5960:	43 83       	std	Z+3, r20	; 0x03
    5962:	10 aa       	std	Z+48, r1	; 0x30
    5964:	08 95       	ret

00005966 <_ZN4UTFT8setPixelEj>:
    5966:	46 2f       	mov	r20, r22
    5968:	67 2f       	mov	r22, r23
    596a:	0c 94 7c 17 	jmp	0x2ef8	; 0x2ef8 <_ZN4UTFT14LCD_Write_DATAEcc>

0000596e <_ZN4UTFT9drawHLineEiii>:
    596e:	ef 92       	push	r14
    5970:	ff 92       	push	r15
    5972:	0f 93       	push	r16
    5974:	1f 93       	push	r17
    5976:	cf 93       	push	r28
    5978:	df 93       	push	r29
    597a:	ec 01       	movw	r28, r24
    597c:	79 01       	movw	r14, r18
    597e:	37 ff       	sbrs	r19, 7
    5980:	05 c0       	rjmp	.+10     	; 0x598c <_ZN4UTFT9drawHLineEiii+0x1e>
    5982:	62 0f       	add	r22, r18
    5984:	73 1f       	adc	r23, r19
    5986:	f1 94       	neg	r15
    5988:	e1 94       	neg	r14
    598a:	f1 08       	sbc	r15, r1
    598c:	ec 89       	ldd	r30, Y+20	; 0x14
    598e:	fd 89       	ldd	r31, Y+21	; 0x15
    5990:	90 81       	ld	r25, Z
    5992:	88 a1       	ldd	r24, Y+32	; 0x20
    5994:	80 95       	com	r24
    5996:	89 23       	and	r24, r25
    5998:	80 83       	st	Z, r24
    599a:	9b 01       	movw	r18, r22
    599c:	2e 0d       	add	r18, r14
    599e:	3f 1d       	adc	r19, r15
    59a0:	8a 01       	movw	r16, r20
    59a2:	ce 01       	movw	r24, r28
    59a4:	0e 94 c7 17 	call	0x2f8e	; 0x2f8e <_ZN4UTFT5setXYEjjjj>
    59a8:	8e 85       	ldd	r24, Y+14	; 0x0e
    59aa:	80 31       	cpi	r24, 0x10	; 16
    59ac:	91 f4       	brne	.+36     	; 0x59d2 <_ZN4UTFT9drawHLineEiii+0x64>
    59ae:	e8 89       	ldd	r30, Y+16	; 0x10
    59b0:	f9 89       	ldd	r31, Y+17	; 0x11
    59b2:	90 81       	ld	r25, Z
    59b4:	8e 8d       	ldd	r24, Y+30	; 0x1e
    59b6:	89 2b       	or	r24, r25
    59b8:	80 83       	st	Z, r24
    59ba:	87 01       	movw	r16, r14
    59bc:	ff 0c       	add	r15, r15
    59be:	22 0b       	sbc	r18, r18
    59c0:	33 0b       	sbc	r19, r19
    59c2:	49 81       	ldd	r20, Y+1	; 0x01
    59c4:	50 e0       	ldi	r21, 0x00	; 0
    59c6:	68 81       	ld	r22, Y
    59c8:	70 e0       	ldi	r23, 0x00	; 0
    59ca:	ce 01       	movw	r24, r28
    59cc:	0e 94 7c 12 	call	0x24f8	; 0x24f8 <_ZN4UTFT13_fast_fill_16Eiil>
    59d0:	22 c0       	rjmp	.+68     	; 0x5a16 <_ZN4UTFT9drawHLineEiii+0xa8>
    59d2:	88 30       	cpi	r24, 0x08	; 8
    59d4:	a1 f4       	brne	.+40     	; 0x59fe <_ZN4UTFT9drawHLineEiii+0x90>
    59d6:	98 81       	ld	r25, Y
    59d8:	89 81       	ldd	r24, Y+1	; 0x01
    59da:	98 13       	cpse	r25, r24
    59dc:	10 c0       	rjmp	.+32     	; 0x59fe <_ZN4UTFT9drawHLineEiii+0x90>
    59de:	e8 89       	ldd	r30, Y+16	; 0x10
    59e0:	f9 89       	ldd	r31, Y+17	; 0x11
    59e2:	90 81       	ld	r25, Z
    59e4:	8e 8d       	ldd	r24, Y+30	; 0x1e
    59e6:	89 2b       	or	r24, r25
    59e8:	80 83       	st	Z, r24
    59ea:	97 01       	movw	r18, r14
    59ec:	ff 0c       	add	r15, r15
    59ee:	44 0b       	sbc	r20, r20
    59f0:	55 0b       	sbc	r21, r21
    59f2:	68 81       	ld	r22, Y
    59f4:	70 e0       	ldi	r23, 0x00	; 0
    59f6:	ce 01       	movw	r24, r28
    59f8:	0e 94 ae 13 	call	0x275c	; 0x275c <_ZN4UTFT12_fast_fill_8Eil>
    59fc:	0c c0       	rjmp	.+24     	; 0x5a16 <_ZN4UTFT9drawHLineEiii+0xa8>
    59fe:	00 e0       	ldi	r16, 0x00	; 0
    5a00:	10 e0       	ldi	r17, 0x00	; 0
    5a02:	49 81       	ldd	r20, Y+1	; 0x01
    5a04:	68 81       	ld	r22, Y
    5a06:	ce 01       	movw	r24, r28
    5a08:	0e 94 7c 17 	call	0x2ef8	; 0x2ef8 <_ZN4UTFT14LCD_Write_DATAEcc>
    5a0c:	0f 5f       	subi	r16, 0xFF	; 255
    5a0e:	1f 4f       	sbci	r17, 0xFF	; 255
    5a10:	e0 16       	cp	r14, r16
    5a12:	f1 06       	cpc	r15, r17
    5a14:	b4 f7       	brge	.-20     	; 0x5a02 <_ZN4UTFT9drawHLineEiii+0x94>
    5a16:	ec 89       	ldd	r30, Y+20	; 0x14
    5a18:	fd 89       	ldd	r31, Y+21	; 0x15
    5a1a:	90 81       	ld	r25, Z
    5a1c:	88 a1       	ldd	r24, Y+32	; 0x20
    5a1e:	89 2b       	or	r24, r25
    5a20:	80 83       	st	Z, r24
    5a22:	ce 01       	movw	r24, r28
    5a24:	df 91       	pop	r29
    5a26:	cf 91       	pop	r28
    5a28:	1f 91       	pop	r17
    5a2a:	0f 91       	pop	r16
    5a2c:	ff 90       	pop	r15
    5a2e:	ef 90       	pop	r14
    5a30:	d5 ce       	rjmp	.-598    	; 0x57dc <_ZN4UTFT5clrXYEv>

00005a32 <_ZN4UTFT9drawVLineEiii>:
    5a32:	ef 92       	push	r14
    5a34:	ff 92       	push	r15
    5a36:	0f 93       	push	r16
    5a38:	1f 93       	push	r17
    5a3a:	cf 93       	push	r28
    5a3c:	df 93       	push	r29
    5a3e:	ec 01       	movw	r28, r24
    5a40:	79 01       	movw	r14, r18
    5a42:	37 ff       	sbrs	r19, 7
    5a44:	05 c0       	rjmp	.+10     	; 0x5a50 <_ZN4UTFT9drawVLineEiii+0x1e>
    5a46:	42 0f       	add	r20, r18
    5a48:	53 1f       	adc	r21, r19
    5a4a:	f1 94       	neg	r15
    5a4c:	e1 94       	neg	r14
    5a4e:	f1 08       	sbc	r15, r1
    5a50:	ec 89       	ldd	r30, Y+20	; 0x14
    5a52:	fd 89       	ldd	r31, Y+21	; 0x15
    5a54:	90 81       	ld	r25, Z
    5a56:	88 a1       	ldd	r24, Y+32	; 0x20
    5a58:	80 95       	com	r24
    5a5a:	89 23       	and	r24, r25
    5a5c:	80 83       	st	Z, r24
    5a5e:	8a 01       	movw	r16, r20
    5a60:	0e 0d       	add	r16, r14
    5a62:	1f 1d       	adc	r17, r15
    5a64:	9b 01       	movw	r18, r22
    5a66:	ce 01       	movw	r24, r28
    5a68:	0e 94 c7 17 	call	0x2f8e	; 0x2f8e <_ZN4UTFT5setXYEjjjj>
    5a6c:	8e 85       	ldd	r24, Y+14	; 0x0e
    5a6e:	80 31       	cpi	r24, 0x10	; 16
    5a70:	91 f4       	brne	.+36     	; 0x5a96 <_ZN4UTFT9drawVLineEiii+0x64>
    5a72:	e8 89       	ldd	r30, Y+16	; 0x10
    5a74:	f9 89       	ldd	r31, Y+17	; 0x11
    5a76:	90 81       	ld	r25, Z
    5a78:	8e 8d       	ldd	r24, Y+30	; 0x1e
    5a7a:	89 2b       	or	r24, r25
    5a7c:	80 83       	st	Z, r24
    5a7e:	87 01       	movw	r16, r14
    5a80:	ff 0c       	add	r15, r15
    5a82:	22 0b       	sbc	r18, r18
    5a84:	33 0b       	sbc	r19, r19
    5a86:	49 81       	ldd	r20, Y+1	; 0x01
    5a88:	50 e0       	ldi	r21, 0x00	; 0
    5a8a:	68 81       	ld	r22, Y
    5a8c:	70 e0       	ldi	r23, 0x00	; 0
    5a8e:	ce 01       	movw	r24, r28
    5a90:	0e 94 7c 12 	call	0x24f8	; 0x24f8 <_ZN4UTFT13_fast_fill_16Eiil>
    5a94:	22 c0       	rjmp	.+68     	; 0x5ada <_ZN4UTFT9drawVLineEiii+0xa8>
    5a96:	88 30       	cpi	r24, 0x08	; 8
    5a98:	a1 f4       	brne	.+40     	; 0x5ac2 <_ZN4UTFT9drawVLineEiii+0x90>
    5a9a:	98 81       	ld	r25, Y
    5a9c:	89 81       	ldd	r24, Y+1	; 0x01
    5a9e:	98 13       	cpse	r25, r24
    5aa0:	10 c0       	rjmp	.+32     	; 0x5ac2 <_ZN4UTFT9drawVLineEiii+0x90>
    5aa2:	e8 89       	ldd	r30, Y+16	; 0x10
    5aa4:	f9 89       	ldd	r31, Y+17	; 0x11
    5aa6:	90 81       	ld	r25, Z
    5aa8:	8e 8d       	ldd	r24, Y+30	; 0x1e
    5aaa:	89 2b       	or	r24, r25
    5aac:	80 83       	st	Z, r24
    5aae:	97 01       	movw	r18, r14
    5ab0:	ff 0c       	add	r15, r15
    5ab2:	44 0b       	sbc	r20, r20
    5ab4:	55 0b       	sbc	r21, r21
    5ab6:	68 81       	ld	r22, Y
    5ab8:	70 e0       	ldi	r23, 0x00	; 0
    5aba:	ce 01       	movw	r24, r28
    5abc:	0e 94 ae 13 	call	0x275c	; 0x275c <_ZN4UTFT12_fast_fill_8Eil>
    5ac0:	0c c0       	rjmp	.+24     	; 0x5ada <_ZN4UTFT9drawVLineEiii+0xa8>
    5ac2:	00 e0       	ldi	r16, 0x00	; 0
    5ac4:	10 e0       	ldi	r17, 0x00	; 0
    5ac6:	49 81       	ldd	r20, Y+1	; 0x01
    5ac8:	68 81       	ld	r22, Y
    5aca:	ce 01       	movw	r24, r28
    5acc:	0e 94 7c 17 	call	0x2ef8	; 0x2ef8 <_ZN4UTFT14LCD_Write_DATAEcc>
    5ad0:	0f 5f       	subi	r16, 0xFF	; 255
    5ad2:	1f 4f       	sbci	r17, 0xFF	; 255
    5ad4:	e0 16       	cp	r14, r16
    5ad6:	f1 06       	cpc	r15, r17
    5ad8:	b4 f7       	brge	.-20     	; 0x5ac6 <_ZN4UTFT9drawVLineEiii+0x94>
    5ada:	ec 89       	ldd	r30, Y+20	; 0x14
    5adc:	fd 89       	ldd	r31, Y+21	; 0x15
    5ade:	90 81       	ld	r25, Z
    5ae0:	88 a1       	ldd	r24, Y+32	; 0x20
    5ae2:	89 2b       	or	r24, r25
    5ae4:	80 83       	st	Z, r24
    5ae6:	ce 01       	movw	r24, r28
    5ae8:	df 91       	pop	r29
    5aea:	cf 91       	pop	r28
    5aec:	1f 91       	pop	r17
    5aee:	0f 91       	pop	r16
    5af0:	ff 90       	pop	r15
    5af2:	ef 90       	pop	r14
    5af4:	73 ce       	rjmp	.-794    	; 0x57dc <_ZN4UTFT5clrXYEv>

00005af6 <_ZN4UTFT8fillRectEiiii>:
    5af6:	6f 92       	push	r6
    5af8:	7f 92       	push	r7
    5afa:	8f 92       	push	r8
    5afc:	9f 92       	push	r9
    5afe:	af 92       	push	r10
    5b00:	bf 92       	push	r11
    5b02:	cf 92       	push	r12
    5b04:	df 92       	push	r13
    5b06:	ef 92       	push	r14
    5b08:	ff 92       	push	r15
    5b0a:	0f 93       	push	r16
    5b0c:	1f 93       	push	r17
    5b0e:	cf 93       	push	r28
    5b10:	df 93       	push	r29
    5b12:	ec 01       	movw	r28, r24
    5b14:	4b 01       	movw	r8, r22
    5b16:	5a 01       	movw	r10, r20
    5b18:	69 01       	movw	r12, r18
    5b1a:	78 01       	movw	r14, r16
    5b1c:	26 17       	cp	r18, r22
    5b1e:	37 07       	cpc	r19, r23
    5b20:	24 f4       	brge	.+8      	; 0x5b2a <_ZN4UTFT8fillRectEiiii+0x34>
    5b22:	89 2d       	mov	r24, r9
    5b24:	49 01       	movw	r8, r18
    5b26:	c6 2e       	mov	r12, r22
    5b28:	d8 2e       	mov	r13, r24
    5b2a:	ea 14       	cp	r14, r10
    5b2c:	fb 04       	cpc	r15, r11
    5b2e:	2c f4       	brge	.+10     	; 0x5b3a <_ZN4UTFT8fillRectEiiii+0x44>
    5b30:	9a 2d       	mov	r25, r10
    5b32:	8b 2d       	mov	r24, r11
    5b34:	57 01       	movw	r10, r14
    5b36:	e9 2e       	mov	r14, r25
    5b38:	f8 2e       	mov	r15, r24
    5b3a:	8e 85       	ldd	r24, Y+14	; 0x0e
    5b3c:	80 31       	cpi	r24, 0x10	; 16
    5b3e:	d9 f5       	brne	.+118    	; 0x5bb6 <_ZN4UTFT8fillRectEiiii+0xc0>
    5b40:	ec 89       	ldd	r30, Y+20	; 0x14
    5b42:	fd 89       	ldd	r31, Y+21	; 0x15
    5b44:	90 81       	ld	r25, Z
    5b46:	88 a1       	ldd	r24, Y+32	; 0x20
    5b48:	80 95       	com	r24
    5b4a:	89 23       	and	r24, r25
    5b4c:	80 83       	st	Z, r24
    5b4e:	87 01       	movw	r16, r14
    5b50:	96 01       	movw	r18, r12
    5b52:	a5 01       	movw	r20, r10
    5b54:	b4 01       	movw	r22, r8
    5b56:	ce 01       	movw	r24, r28
    5b58:	0e 94 c7 17 	call	0x2f8e	; 0x2f8e <_ZN4UTFT5setXYEjjjj>
    5b5c:	e8 89       	ldd	r30, Y+16	; 0x10
    5b5e:	f9 89       	ldd	r31, Y+17	; 0x11
    5b60:	90 81       	ld	r25, Z
    5b62:	8e 8d       	ldd	r24, Y+30	; 0x1e
    5b64:	89 2b       	or	r24, r25
    5b66:	80 83       	st	Z, r24
    5b68:	96 01       	movw	r18, r12
    5b6a:	28 19       	sub	r18, r8
    5b6c:	39 09       	sbc	r19, r9
    5b6e:	c9 01       	movw	r24, r18
    5b70:	33 0f       	add	r19, r19
    5b72:	aa 0b       	sbc	r26, r26
    5b74:	bb 0b       	sbc	r27, r27
    5b76:	9c 01       	movw	r18, r24
    5b78:	ad 01       	movw	r20, r26
    5b7a:	2f 5f       	subi	r18, 0xFF	; 255
    5b7c:	3f 4f       	sbci	r19, 0xFF	; 255
    5b7e:	4f 4f       	sbci	r20, 0xFF	; 255
    5b80:	5f 4f       	sbci	r21, 0xFF	; 255
    5b82:	b7 01       	movw	r22, r14
    5b84:	6a 19       	sub	r22, r10
    5b86:	7b 09       	sbc	r23, r11
    5b88:	cb 01       	movw	r24, r22
    5b8a:	77 0f       	add	r23, r23
    5b8c:	aa 0b       	sbc	r26, r26
    5b8e:	bb 0b       	sbc	r27, r27
    5b90:	bc 01       	movw	r22, r24
    5b92:	cd 01       	movw	r24, r26
    5b94:	6f 5f       	subi	r22, 0xFF	; 255
    5b96:	7f 4f       	sbci	r23, 0xFF	; 255
    5b98:	8f 4f       	sbci	r24, 0xFF	; 255
    5b9a:	9f 4f       	sbci	r25, 0xFF	; 255
    5b9c:	0e 94 e1 39 	call	0x73c2	; 0x73c2 <__mulsi3>
    5ba0:	8b 01       	movw	r16, r22
    5ba2:	9c 01       	movw	r18, r24
    5ba4:	49 81       	ldd	r20, Y+1	; 0x01
    5ba6:	50 e0       	ldi	r21, 0x00	; 0
    5ba8:	88 81       	ld	r24, Y
    5baa:	68 2f       	mov	r22, r24
    5bac:	70 e0       	ldi	r23, 0x00	; 0
    5bae:	ce 01       	movw	r24, r28
    5bb0:	0e 94 7c 12 	call	0x24f8	; 0x24f8 <_ZN4UTFT13_fast_fill_16Eiil>
    5bb4:	3f c0       	rjmp	.+126    	; 0x5c34 <_ZN4UTFT8fillRectEiiii+0x13e>
    5bb6:	88 30       	cpi	r24, 0x08	; 8
    5bb8:	09 f0       	breq	.+2      	; 0x5bbc <_ZN4UTFT8fillRectEiiii+0xc6>
    5bba:	43 c0       	rjmp	.+134    	; 0x5c42 <_ZN4UTFT8fillRectEiiii+0x14c>
    5bbc:	98 81       	ld	r25, Y
    5bbe:	89 81       	ldd	r24, Y+1	; 0x01
    5bc0:	98 13       	cpse	r25, r24
    5bc2:	3f c0       	rjmp	.+126    	; 0x5c42 <_ZN4UTFT8fillRectEiiii+0x14c>
    5bc4:	ec 89       	ldd	r30, Y+20	; 0x14
    5bc6:	fd 89       	ldd	r31, Y+21	; 0x15
    5bc8:	90 81       	ld	r25, Z
    5bca:	88 a1       	ldd	r24, Y+32	; 0x20
    5bcc:	80 95       	com	r24
    5bce:	89 23       	and	r24, r25
    5bd0:	80 83       	st	Z, r24
    5bd2:	87 01       	movw	r16, r14
    5bd4:	96 01       	movw	r18, r12
    5bd6:	a5 01       	movw	r20, r10
    5bd8:	b4 01       	movw	r22, r8
    5bda:	ce 01       	movw	r24, r28
    5bdc:	0e 94 c7 17 	call	0x2f8e	; 0x2f8e <_ZN4UTFT5setXYEjjjj>
    5be0:	e8 89       	ldd	r30, Y+16	; 0x10
    5be2:	f9 89       	ldd	r31, Y+17	; 0x11
    5be4:	90 81       	ld	r25, Z
    5be6:	8e 8d       	ldd	r24, Y+30	; 0x1e
    5be8:	89 2b       	or	r24, r25
    5bea:	80 83       	st	Z, r24
    5bec:	96 01       	movw	r18, r12
    5bee:	28 19       	sub	r18, r8
    5bf0:	39 09       	sbc	r19, r9
    5bf2:	c9 01       	movw	r24, r18
    5bf4:	33 0f       	add	r19, r19
    5bf6:	aa 0b       	sbc	r26, r26
    5bf8:	bb 0b       	sbc	r27, r27
    5bfa:	9c 01       	movw	r18, r24
    5bfc:	ad 01       	movw	r20, r26
    5bfe:	2f 5f       	subi	r18, 0xFF	; 255
    5c00:	3f 4f       	sbci	r19, 0xFF	; 255
    5c02:	4f 4f       	sbci	r20, 0xFF	; 255
    5c04:	5f 4f       	sbci	r21, 0xFF	; 255
    5c06:	b7 01       	movw	r22, r14
    5c08:	6a 19       	sub	r22, r10
    5c0a:	7b 09       	sbc	r23, r11
    5c0c:	cb 01       	movw	r24, r22
    5c0e:	77 0f       	add	r23, r23
    5c10:	aa 0b       	sbc	r26, r26
    5c12:	bb 0b       	sbc	r27, r27
    5c14:	bc 01       	movw	r22, r24
    5c16:	cd 01       	movw	r24, r26
    5c18:	6f 5f       	subi	r22, 0xFF	; 255
    5c1a:	7f 4f       	sbci	r23, 0xFF	; 255
    5c1c:	8f 4f       	sbci	r24, 0xFF	; 255
    5c1e:	9f 4f       	sbci	r25, 0xFF	; 255
    5c20:	0e 94 e1 39 	call	0x73c2	; 0x73c2 <__mulsi3>
    5c24:	9b 01       	movw	r18, r22
    5c26:	ac 01       	movw	r20, r24
    5c28:	88 81       	ld	r24, Y
    5c2a:	68 2f       	mov	r22, r24
    5c2c:	70 e0       	ldi	r23, 0x00	; 0
    5c2e:	ce 01       	movw	r24, r28
    5c30:	0e 94 ae 13 	call	0x275c	; 0x275c <_ZN4UTFT12_fast_fill_8Eil>
    5c34:	ec 89       	ldd	r30, Y+20	; 0x14
    5c36:	fd 89       	ldd	r31, Y+21	; 0x15
    5c38:	90 81       	ld	r25, Z
    5c3a:	88 a1       	ldd	r24, Y+32	; 0x20
    5c3c:	89 2b       	or	r24, r25
    5c3e:	80 83       	st	Z, r24
    5c40:	47 c0       	rjmp	.+142    	; 0x5cd0 <_ZN4UTFT8fillRectEiiii+0x1da>
    5c42:	8c 81       	ldd	r24, Y+4	; 0x04
    5c44:	81 11       	cpse	r24, r1
    5c46:	22 c0       	rjmp	.+68     	; 0x5c8c <_ZN4UTFT8fillRectEiiii+0x196>
    5c48:	37 01       	movw	r6, r14
    5c4a:	6a 18       	sub	r6, r10
    5c4c:	7b 08       	sbc	r7, r11
    5c4e:	77 fe       	sbrs	r7, 7
    5c50:	03 c0       	rjmp	.+6      	; 0x5c58 <_ZN4UTFT8fillRectEiiii+0x162>
    5c52:	8f ef       	ldi	r24, 0xFF	; 255
    5c54:	68 1a       	sub	r6, r24
    5c56:	78 0a       	sbc	r7, r24
    5c58:	75 94       	asr	r7
    5c5a:	67 94       	ror	r6
    5c5c:	00 e0       	ldi	r16, 0x00	; 0
    5c5e:	10 e0       	ldi	r17, 0x00	; 0
    5c60:	c8 18       	sub	r12, r8
    5c62:	d9 08       	sbc	r13, r9
    5c64:	60 16       	cp	r6, r16
    5c66:	71 06       	cpc	r7, r17
    5c68:	9c f1       	brlt	.+102    	; 0x5cd0 <_ZN4UTFT8fillRectEiiii+0x1da>
    5c6a:	a5 01       	movw	r20, r10
    5c6c:	40 0f       	add	r20, r16
    5c6e:	51 1f       	adc	r21, r17
    5c70:	96 01       	movw	r18, r12
    5c72:	b4 01       	movw	r22, r8
    5c74:	ce 01       	movw	r24, r28
    5c76:	7b de       	rcall	.-778    	; 0x596e <_ZN4UTFT9drawHLineEiii>
    5c78:	a7 01       	movw	r20, r14
    5c7a:	40 1b       	sub	r20, r16
    5c7c:	51 0b       	sbc	r21, r17
    5c7e:	96 01       	movw	r18, r12
    5c80:	b4 01       	movw	r22, r8
    5c82:	ce 01       	movw	r24, r28
    5c84:	74 de       	rcall	.-792    	; 0x596e <_ZN4UTFT9drawHLineEiii>
    5c86:	0f 5f       	subi	r16, 0xFF	; 255
    5c88:	1f 4f       	sbci	r17, 0xFF	; 255
    5c8a:	ec cf       	rjmp	.-40     	; 0x5c64 <_ZN4UTFT8fillRectEiiii+0x16e>
    5c8c:	36 01       	movw	r6, r12
    5c8e:	68 18       	sub	r6, r8
    5c90:	79 08       	sbc	r7, r9
    5c92:	77 fe       	sbrs	r7, 7
    5c94:	03 c0       	rjmp	.+6      	; 0x5c9c <_ZN4UTFT8fillRectEiiii+0x1a6>
    5c96:	8f ef       	ldi	r24, 0xFF	; 255
    5c98:	68 1a       	sub	r6, r24
    5c9a:	78 0a       	sbc	r7, r24
    5c9c:	75 94       	asr	r7
    5c9e:	67 94       	ror	r6
    5ca0:	00 e0       	ldi	r16, 0x00	; 0
    5ca2:	10 e0       	ldi	r17, 0x00	; 0
    5ca4:	ea 18       	sub	r14, r10
    5ca6:	fb 08       	sbc	r15, r11
    5ca8:	60 16       	cp	r6, r16
    5caa:	71 06       	cpc	r7, r17
    5cac:	8c f0       	brlt	.+34     	; 0x5cd0 <_ZN4UTFT8fillRectEiiii+0x1da>
    5cae:	b4 01       	movw	r22, r8
    5cb0:	60 0f       	add	r22, r16
    5cb2:	71 1f       	adc	r23, r17
    5cb4:	97 01       	movw	r18, r14
    5cb6:	a5 01       	movw	r20, r10
    5cb8:	ce 01       	movw	r24, r28
    5cba:	bb de       	rcall	.-650    	; 0x5a32 <_ZN4UTFT9drawVLineEiii>
    5cbc:	b6 01       	movw	r22, r12
    5cbe:	60 1b       	sub	r22, r16
    5cc0:	71 0b       	sbc	r23, r17
    5cc2:	97 01       	movw	r18, r14
    5cc4:	a5 01       	movw	r20, r10
    5cc6:	ce 01       	movw	r24, r28
    5cc8:	b4 de       	rcall	.-664    	; 0x5a32 <_ZN4UTFT9drawVLineEiii>
    5cca:	0f 5f       	subi	r16, 0xFF	; 255
    5ccc:	1f 4f       	sbci	r17, 0xFF	; 255
    5cce:	ec cf       	rjmp	.-40     	; 0x5ca8 <_ZN4UTFT8fillRectEiiii+0x1b2>
    5cd0:	df 91       	pop	r29
    5cd2:	cf 91       	pop	r28
    5cd4:	1f 91       	pop	r17
    5cd6:	0f 91       	pop	r16
    5cd8:	ff 90       	pop	r15
    5cda:	ef 90       	pop	r14
    5cdc:	df 90       	pop	r13
    5cde:	cf 90       	pop	r12
    5ce0:	bf 90       	pop	r11
    5ce2:	af 90       	pop	r10
    5ce4:	9f 90       	pop	r9
    5ce6:	8f 90       	pop	r8
    5ce8:	7f 90       	pop	r7
    5cea:	6f 90       	pop	r6
    5cec:	08 95       	ret

00005cee <_ZN4UTFT9printCharEhii>:
    5cee:	2f 92       	push	r2
    5cf0:	3f 92       	push	r3
    5cf2:	4f 92       	push	r4
    5cf4:	5f 92       	push	r5
    5cf6:	6f 92       	push	r6
    5cf8:	7f 92       	push	r7
    5cfa:	8f 92       	push	r8
    5cfc:	9f 92       	push	r9
    5cfe:	af 92       	push	r10
    5d00:	bf 92       	push	r11
    5d02:	cf 92       	push	r12
    5d04:	df 92       	push	r13
    5d06:	ef 92       	push	r14
    5d08:	ff 92       	push	r15
    5d0a:	0f 93       	push	r16
    5d0c:	1f 93       	push	r17
    5d0e:	cf 93       	push	r28
    5d10:	df 93       	push	r29
    5d12:	cd b7       	in	r28, 0x3d	; 61
    5d14:	de b7       	in	r29, 0x3e	; 62
    5d16:	28 97       	sbiw	r28, 0x08	; 8
    5d18:	0f b6       	in	r0, 0x3f	; 63
    5d1a:	f8 94       	cli
    5d1c:	de bf       	out	0x3e, r29	; 62
    5d1e:	0f be       	out	0x3f, r0	; 63
    5d20:	cd bf       	out	0x3d, r28	; 61
    5d22:	98 87       	std	Y+8, r25	; 0x08
    5d24:	8f 83       	std	Y+7, r24	; 0x07
    5d26:	3a 01       	movw	r6, r20
    5d28:	29 01       	movw	r4, r18
    5d2a:	dc 01       	movw	r26, r24
    5d2c:	54 96       	adiw	r26, 0x14	; 20
    5d2e:	ed 91       	ld	r30, X+
    5d30:	fc 91       	ld	r31, X
    5d32:	55 97       	sbiw	r26, 0x15	; 21
    5d34:	90 81       	ld	r25, Z
    5d36:	90 96       	adiw	r26, 0x20	; 32
    5d38:	8c 91       	ld	r24, X
    5d3a:	90 97       	sbiw	r26, 0x20	; 32
    5d3c:	80 95       	com	r24
    5d3e:	89 23       	and	r24, r25
    5d40:	80 83       	st	Z, r24
    5d42:	d0 96       	adiw	r26, 0x30	; 48
    5d44:	2c 91       	ld	r18, X
    5d46:	d0 97       	sbiw	r26, 0x30	; 48
    5d48:	9d 96       	adiw	r26, 0x2d	; 45
    5d4a:	9c 91       	ld	r25, X
    5d4c:	9d 97       	sbiw	r26, 0x2d	; 45
    5d4e:	9c 96       	adiw	r26, 0x2c	; 44
    5d50:	8c 91       	ld	r24, X
    5d52:	9c 97       	sbiw	r26, 0x2c	; 44
    5d54:	e6 2e       	mov	r14, r22
    5d56:	f1 2c       	mov	r15, r1
    5d58:	21 11       	cpse	r18, r1
    5d5a:	00 c1       	rjmp	.+512    	; 0x5f5c <_ZN4UTFT9printCharEhii+0x26e>
    5d5c:	14 96       	adiw	r26, 0x04	; 4
    5d5e:	2c 91       	ld	r18, X
    5d60:	14 97       	sbiw	r26, 0x04	; 4
    5d62:	21 11       	cpse	r18, r1
    5d64:	6f c0       	rjmp	.+222    	; 0x5e44 <_ZN4UTFT9printCharEhii+0x156>
    5d66:	82 01       	movw	r16, r4
    5d68:	09 0f       	add	r16, r25
    5d6a:	11 1d       	adc	r17, r1
    5d6c:	01 50       	subi	r16, 0x01	; 1
    5d6e:	11 09       	sbc	r17, r1
    5d70:	9a 01       	movw	r18, r20
    5d72:	28 0f       	add	r18, r24
    5d74:	31 1d       	adc	r19, r1
    5d76:	21 50       	subi	r18, 0x01	; 1
    5d78:	31 09       	sbc	r19, r1
    5d7a:	a2 01       	movw	r20, r4
    5d7c:	b3 01       	movw	r22, r6
    5d7e:	cd 01       	movw	r24, r26
    5d80:	0e 94 c7 17 	call	0x2f8e	; 0x2f8e <_ZN4UTFT5setXYEjjjj>
    5d84:	ef 81       	ldd	r30, Y+7	; 0x07
    5d86:	f8 85       	ldd	r31, Y+8	; 0x08
    5d88:	84 a5       	ldd	r24, Z+44	; 0x2c
    5d8a:	86 95       	lsr	r24
    5d8c:	86 95       	lsr	r24
    5d8e:	86 95       	lsr	r24
    5d90:	95 a5       	ldd	r25, Z+45	; 0x2d
    5d92:	26 a5       	ldd	r18, Z+46	; 0x2e
    5d94:	e2 1a       	sub	r14, r18
    5d96:	f1 08       	sbc	r15, r1
    5d98:	89 9f       	mul	r24, r25
    5d9a:	c0 01       	movw	r24, r0
    5d9c:	11 24       	eor	r1, r1
    5d9e:	e8 9e       	mul	r14, r24
    5da0:	90 01       	movw	r18, r0
    5da2:	e9 9e       	mul	r14, r25
    5da4:	30 0d       	add	r19, r0
    5da6:	f8 9e       	mul	r15, r24
    5da8:	30 0d       	add	r19, r0
    5daa:	11 24       	eor	r1, r1
    5dac:	79 01       	movw	r14, r18
    5dae:	f4 e0       	ldi	r31, 0x04	; 4
    5db0:	ef 0e       	add	r14, r31
    5db2:	f1 1c       	adc	r15, r1
    5db4:	c1 2c       	mov	r12, r1
    5db6:	d1 2c       	mov	r13, r1
    5db8:	af 81       	ldd	r26, Y+7	; 0x07
    5dba:	b8 85       	ldd	r27, Y+8	; 0x08
    5dbc:	9c 96       	adiw	r26, 0x2c	; 44
    5dbe:	8c 91       	ld	r24, X
    5dc0:	9c 97       	sbiw	r26, 0x2c	; 44
    5dc2:	86 95       	lsr	r24
    5dc4:	86 95       	lsr	r24
    5dc6:	86 95       	lsr	r24
    5dc8:	9d 96       	adiw	r26, 0x2d	; 45
    5dca:	9c 91       	ld	r25, X
    5dcc:	9d 97       	sbiw	r26, 0x2d	; 45
    5dce:	89 9f       	mul	r24, r25
    5dd0:	c0 01       	movw	r24, r0
    5dd2:	11 24       	eor	r1, r1
    5dd4:	c8 16       	cp	r12, r24
    5dd6:	d9 06       	cpc	r13, r25
    5dd8:	08 f0       	brcs	.+2      	; 0x5ddc <_ZN4UTFT9printCharEhii+0xee>
    5dda:	3d c1       	rjmp	.+634    	; 0x6056 <_ZN4UTFT9printCharEhii+0x368>
    5ddc:	9a 96       	adiw	r26, 0x2a	; 42
    5dde:	ed 91       	ld	r30, X+
    5de0:	fc 91       	ld	r31, X
    5de2:	9b 97       	sbiw	r26, 0x2b	; 43
    5de4:	ee 0d       	add	r30, r14
    5de6:	ff 1d       	adc	r31, r15
    5de8:	e4 91       	lpm	r30, Z
    5dea:	97 e0       	ldi	r25, 0x07	; 7
    5dec:	a9 2e       	mov	r10, r25
    5dee:	b1 2c       	mov	r11, r1
    5df0:	0e 2f       	mov	r16, r30
    5df2:	10 e0       	ldi	r17, 0x00	; 0
    5df4:	c8 01       	movw	r24, r16
    5df6:	0a 2c       	mov	r0, r10
    5df8:	02 c0       	rjmp	.+4      	; 0x5dfe <_ZN4UTFT9printCharEhii+0x110>
    5dfa:	95 95       	asr	r25
    5dfc:	87 95       	ror	r24
    5dfe:	0a 94       	dec	r0
    5e00:	e2 f7       	brpl	.-8      	; 0x5dfa <_ZN4UTFT9printCharEhii+0x10c>
    5e02:	80 ff       	sbrs	r24, 0
    5e04:	09 c0       	rjmp	.+18     	; 0x5e18 <_ZN4UTFT9printCharEhii+0x12a>
    5e06:	ef 81       	ldd	r30, Y+7	; 0x07
    5e08:	f8 85       	ldd	r31, Y+8	; 0x08
    5e0a:	60 81       	ld	r22, Z
    5e0c:	71 81       	ldd	r23, Z+1	; 0x01
    5e0e:	76 27       	eor	r23, r22
    5e10:	67 27       	eor	r22, r23
    5e12:	76 27       	eor	r23, r22
    5e14:	cf 01       	movw	r24, r30
    5e16:	0a c0       	rjmp	.+20     	; 0x5e2c <_ZN4UTFT9printCharEhii+0x13e>
    5e18:	af 81       	ldd	r26, Y+7	; 0x07
    5e1a:	b8 85       	ldd	r27, Y+8	; 0x08
    5e1c:	12 96       	adiw	r26, 0x02	; 2
    5e1e:	6d 91       	ld	r22, X+
    5e20:	7c 91       	ld	r23, X
    5e22:	13 97       	sbiw	r26, 0x03	; 3
    5e24:	76 27       	eor	r23, r22
    5e26:	67 27       	eor	r22, r23
    5e28:	76 27       	eor	r23, r22
    5e2a:	cd 01       	movw	r24, r26
    5e2c:	9c dd       	rcall	.-1224   	; 0x5966 <_ZN4UTFT8setPixelEj>
    5e2e:	b1 e0       	ldi	r27, 0x01	; 1
    5e30:	ab 1a       	sub	r10, r27
    5e32:	b1 08       	sbc	r11, r1
    5e34:	f8 f6       	brcc	.-66     	; 0x5df4 <_ZN4UTFT9printCharEhii+0x106>
    5e36:	ff ef       	ldi	r31, 0xFF	; 255
    5e38:	ef 1a       	sub	r14, r31
    5e3a:	ff 0a       	sbc	r15, r31
    5e3c:	8f ef       	ldi	r24, 0xFF	; 255
    5e3e:	c8 1a       	sub	r12, r24
    5e40:	d8 0a       	sbc	r13, r24
    5e42:	ba cf       	rjmp	.-140    	; 0x5db8 <_ZN4UTFT9printCharEhii+0xca>
    5e44:	86 95       	lsr	r24
    5e46:	86 95       	lsr	r24
    5e48:	86 95       	lsr	r24
    5e4a:	af 81       	ldd	r26, Y+7	; 0x07
    5e4c:	b8 85       	ldd	r27, Y+8	; 0x08
    5e4e:	9e 96       	adiw	r26, 0x2e	; 46
    5e50:	2c 91       	ld	r18, X
    5e52:	e2 1a       	sub	r14, r18
    5e54:	f1 08       	sbc	r15, r1
    5e56:	89 9f       	mul	r24, r25
    5e58:	c0 01       	movw	r24, r0
    5e5a:	11 24       	eor	r1, r1
    5e5c:	e8 9e       	mul	r14, r24
    5e5e:	90 01       	movw	r18, r0
    5e60:	e9 9e       	mul	r14, r25
    5e62:	30 0d       	add	r19, r0
    5e64:	f8 9e       	mul	r15, r24
    5e66:	30 0d       	add	r19, r0
    5e68:	11 24       	eor	r1, r1
    5e6a:	79 01       	movw	r14, r18
    5e6c:	b4 e0       	ldi	r27, 0x04	; 4
    5e6e:	eb 0e       	add	r14, r27
    5e70:	f1 1c       	adc	r15, r1
    5e72:	c1 2c       	mov	r12, r1
    5e74:	d1 2c       	mov	r13, r1
    5e76:	ef 81       	ldd	r30, Y+7	; 0x07
    5e78:	f8 85       	ldd	r31, Y+8	; 0x08
    5e7a:	24 a5       	ldd	r18, Z+44	; 0x2c
    5e7c:	62 2f       	mov	r22, r18
    5e7e:	66 95       	lsr	r22
    5e80:	66 95       	lsr	r22
    5e82:	66 95       	lsr	r22
    5e84:	85 a5       	ldd	r24, Z+45	; 0x2d
    5e86:	68 9f       	mul	r22, r24
    5e88:	c0 01       	movw	r24, r0
    5e8a:	11 24       	eor	r1, r1
    5e8c:	c8 16       	cp	r12, r24
    5e8e:	d9 06       	cpc	r13, r25
    5e90:	08 f0       	brcs	.+2      	; 0x5e94 <_ZN4UTFT9printCharEhii+0x1a6>
    5e92:	e1 c0       	rjmp	.+450    	; 0x6056 <_ZN4UTFT9printCharEhii+0x368>
    5e94:	70 e0       	ldi	r23, 0x00	; 0
    5e96:	c6 01       	movw	r24, r12
    5e98:	0e 94 f0 39 	call	0x73e0	; 0x73e0 <__udivmodhi4>
    5e9c:	ab 01       	movw	r20, r22
    5e9e:	44 0d       	add	r20, r4
    5ea0:	55 1d       	adc	r21, r5
    5ea2:	c3 01       	movw	r24, r6
    5ea4:	82 0f       	add	r24, r18
    5ea6:	91 1d       	adc	r25, r1
    5ea8:	9c 01       	movw	r18, r24
    5eaa:	21 50       	subi	r18, 0x01	; 1
    5eac:	31 09       	sbc	r19, r1
    5eae:	8a 01       	movw	r16, r20
    5eb0:	b3 01       	movw	r22, r6
    5eb2:	cf 01       	movw	r24, r30
    5eb4:	0e 94 c7 17 	call	0x2f8e	; 0x2f8e <_ZN4UTFT5setXYEjjjj>
    5eb8:	af 81       	ldd	r26, Y+7	; 0x07
    5eba:	b8 85       	ldd	r27, Y+8	; 0x08
    5ebc:	9c 96       	adiw	r26, 0x2c	; 44
    5ebe:	8c 90       	ld	r8, X
    5ec0:	86 94       	lsr	r8
    5ec2:	86 94       	lsr	r8
    5ec4:	86 94       	lsr	r8
    5ec6:	91 2c       	mov	r9, r1
    5ec8:	b1 e0       	ldi	r27, 0x01	; 1
    5eca:	8b 1a       	sub	r8, r27
    5ecc:	91 08       	sbc	r9, r1
    5ece:	af 81       	ldd	r26, Y+7	; 0x07
    5ed0:	b8 85       	ldd	r27, Y+8	; 0x08
    5ed2:	ef ef       	ldi	r30, 0xFF	; 255
    5ed4:	8e 16       	cp	r8, r30
    5ed6:	9e 06       	cpc	r9, r30
    5ed8:	b1 f1       	breq	.+108    	; 0x5f46 <_ZN4UTFT9printCharEhii+0x258>
    5eda:	9a 96       	adiw	r26, 0x2a	; 42
    5edc:	ed 91       	ld	r30, X+
    5ede:	fc 91       	ld	r31, X
    5ee0:	9b 97       	sbiw	r26, 0x2b	; 43
    5ee2:	c4 01       	movw	r24, r8
    5ee4:	8e 0d       	add	r24, r14
    5ee6:	9f 1d       	adc	r25, r15
    5ee8:	e8 0f       	add	r30, r24
    5eea:	f9 1f       	adc	r31, r25
    5eec:	e4 91       	lpm	r30, Z
    5eee:	a1 2c       	mov	r10, r1
    5ef0:	b1 2c       	mov	r11, r1
    5ef2:	0e 2f       	mov	r16, r30
    5ef4:	10 e0       	ldi	r17, 0x00	; 0
    5ef6:	c8 01       	movw	r24, r16
    5ef8:	0a 2c       	mov	r0, r10
    5efa:	02 c0       	rjmp	.+4      	; 0x5f00 <_ZN4UTFT9printCharEhii+0x212>
    5efc:	95 95       	asr	r25
    5efe:	87 95       	ror	r24
    5f00:	0a 94       	dec	r0
    5f02:	e2 f7       	brpl	.-8      	; 0x5efc <_ZN4UTFT9printCharEhii+0x20e>
    5f04:	80 ff       	sbrs	r24, 0
    5f06:	09 c0       	rjmp	.+18     	; 0x5f1a <_ZN4UTFT9printCharEhii+0x22c>
    5f08:	ef 81       	ldd	r30, Y+7	; 0x07
    5f0a:	f8 85       	ldd	r31, Y+8	; 0x08
    5f0c:	60 81       	ld	r22, Z
    5f0e:	71 81       	ldd	r23, Z+1	; 0x01
    5f10:	76 27       	eor	r23, r22
    5f12:	67 27       	eor	r22, r23
    5f14:	76 27       	eor	r23, r22
    5f16:	cf 01       	movw	r24, r30
    5f18:	0a c0       	rjmp	.+20     	; 0x5f2e <_ZN4UTFT9printCharEhii+0x240>
    5f1a:	af 81       	ldd	r26, Y+7	; 0x07
    5f1c:	b8 85       	ldd	r27, Y+8	; 0x08
    5f1e:	12 96       	adiw	r26, 0x02	; 2
    5f20:	6d 91       	ld	r22, X+
    5f22:	7c 91       	ld	r23, X
    5f24:	13 97       	sbiw	r26, 0x03	; 3
    5f26:	76 27       	eor	r23, r22
    5f28:	67 27       	eor	r22, r23
    5f2a:	76 27       	eor	r23, r22
    5f2c:	cd 01       	movw	r24, r26
    5f2e:	1b dd       	rcall	.-1482   	; 0x5966 <_ZN4UTFT8setPixelEj>
    5f30:	bf ef       	ldi	r27, 0xFF	; 255
    5f32:	ab 1a       	sub	r10, r27
    5f34:	bb 0a       	sbc	r11, r27
    5f36:	e8 e0       	ldi	r30, 0x08	; 8
    5f38:	ae 16       	cp	r10, r30
    5f3a:	b1 04       	cpc	r11, r1
    5f3c:	e1 f6       	brne	.-72     	; 0x5ef6 <_ZN4UTFT9printCharEhii+0x208>
    5f3e:	f1 e0       	ldi	r31, 0x01	; 1
    5f40:	8f 1a       	sub	r8, r31
    5f42:	91 08       	sbc	r9, r1
    5f44:	c4 cf       	rjmp	.-120    	; 0x5ece <_ZN4UTFT9printCharEhii+0x1e0>
    5f46:	9c 96       	adiw	r26, 0x2c	; 44
    5f48:	8c 91       	ld	r24, X
    5f4a:	86 95       	lsr	r24
    5f4c:	86 95       	lsr	r24
    5f4e:	86 95       	lsr	r24
    5f50:	90 e0       	ldi	r25, 0x00	; 0
    5f52:	e8 0e       	add	r14, r24
    5f54:	f9 1e       	adc	r15, r25
    5f56:	c8 0e       	add	r12, r24
    5f58:	d9 1e       	adc	r13, r25
    5f5a:	8d cf       	rjmp	.-230    	; 0x5e76 <_ZN4UTFT9printCharEhii+0x188>
    5f5c:	86 95       	lsr	r24
    5f5e:	86 95       	lsr	r24
    5f60:	86 95       	lsr	r24
    5f62:	ef 81       	ldd	r30, Y+7	; 0x07
    5f64:	f8 85       	ldd	r31, Y+8	; 0x08
    5f66:	26 a5       	ldd	r18, Z+46	; 0x2e
    5f68:	e2 1a       	sub	r14, r18
    5f6a:	f1 08       	sbc	r15, r1
    5f6c:	89 9f       	mul	r24, r25
    5f6e:	c0 01       	movw	r24, r0
    5f70:	11 24       	eor	r1, r1
    5f72:	e8 9e       	mul	r14, r24
    5f74:	10 01       	movw	r2, r0
    5f76:	e9 9e       	mul	r14, r25
    5f78:	30 0c       	add	r3, r0
    5f7a:	f8 9e       	mul	r15, r24
    5f7c:	30 0c       	add	r3, r0
    5f7e:	11 24       	eor	r1, r1
    5f80:	f4 e0       	ldi	r31, 0x04	; 4
    5f82:	2f 0e       	add	r2, r31
    5f84:	31 1c       	adc	r3, r1
    5f86:	72 01       	movw	r14, r4
    5f88:	af 81       	ldd	r26, Y+7	; 0x07
    5f8a:	b8 85       	ldd	r27, Y+8	; 0x08
    5f8c:	9d 96       	adiw	r26, 0x2d	; 45
    5f8e:	8c 91       	ld	r24, X
    5f90:	90 e0       	ldi	r25, 0x00	; 0
    5f92:	97 01       	movw	r18, r14
    5f94:	24 19       	sub	r18, r4
    5f96:	35 09       	sbc	r19, r5
    5f98:	28 17       	cp	r18, r24
    5f9a:	39 07       	cpc	r19, r25
    5f9c:	08 f0       	brcs	.+2      	; 0x5fa0 <_ZN4UTFT9printCharEhii+0x2b2>
    5f9e:	5b c0       	rjmp	.+182    	; 0x6056 <_ZN4UTFT9printCharEhii+0x368>
    5fa0:	43 01       	movw	r8, r6
    5fa2:	c1 2c       	mov	r12, r1
    5fa4:	d1 2c       	mov	r13, r1
    5fa6:	f7 01       	movw	r30, r14
    5fa8:	31 96       	adiw	r30, 0x01	; 1
    5faa:	fe 83       	std	Y+6, r31	; 0x06
    5fac:	ed 83       	std	Y+5, r30	; 0x05
    5fae:	af 81       	ldd	r26, Y+7	; 0x07
    5fb0:	b8 85       	ldd	r27, Y+8	; 0x08
    5fb2:	9c 96       	adiw	r26, 0x2c	; 44
    5fb4:	8c 91       	ld	r24, X
    5fb6:	9c 97       	sbiw	r26, 0x2c	; 44
    5fb8:	86 95       	lsr	r24
    5fba:	86 95       	lsr	r24
    5fbc:	86 95       	lsr	r24
    5fbe:	90 e0       	ldi	r25, 0x00	; 0
    5fc0:	c8 16       	cp	r12, r24
    5fc2:	d9 06       	cpc	r13, r25
    5fc4:	0c f0       	brlt	.+2      	; 0x5fc8 <_ZN4UTFT9printCharEhii+0x2da>
    5fc6:	41 c0       	rjmp	.+130    	; 0x604a <_ZN4UTFT9printCharEhii+0x35c>
    5fc8:	9a 96       	adiw	r26, 0x2a	; 42
    5fca:	ed 91       	ld	r30, X+
    5fcc:	fc 91       	ld	r31, X
    5fce:	9b 97       	sbiw	r26, 0x2b	; 43
    5fd0:	c6 01       	movw	r24, r12
    5fd2:	82 0d       	add	r24, r2
    5fd4:	93 1d       	adc	r25, r3
    5fd6:	e8 0f       	add	r30, r24
    5fd8:	f9 1f       	adc	r31, r25
    5fda:	e4 91       	lpm	r30, Z
    5fdc:	b4 01       	movw	r22, r8
    5fde:	87 e0       	ldi	r24, 0x07	; 7
    5fe0:	a8 2e       	mov	r10, r24
    5fe2:	b1 2c       	mov	r11, r1
    5fe4:	8e 2f       	mov	r24, r30
    5fe6:	90 e0       	ldi	r25, 0x00	; 0
    5fe8:	9c 83       	std	Y+4, r25	; 0x04
    5fea:	8b 83       	std	Y+3, r24	; 0x03
    5fec:	db 01       	movw	r26, r22
    5fee:	11 96       	adiw	r26, 0x01	; 1
    5ff0:	ba 83       	std	Y+2, r27	; 0x02
    5ff2:	a9 83       	std	Y+1, r26	; 0x01
    5ff4:	8b 81       	ldd	r24, Y+3	; 0x03
    5ff6:	9c 81       	ldd	r25, Y+4	; 0x04
    5ff8:	0a 2c       	mov	r0, r10
    5ffa:	02 c0       	rjmp	.+4      	; 0x6000 <_ZN4UTFT9printCharEhii+0x312>
    5ffc:	95 95       	asr	r25
    5ffe:	87 95       	ror	r24
    6000:	0a 94       	dec	r0
    6002:	e2 f7       	brpl	.-8      	; 0x5ffc <_ZN4UTFT9printCharEhii+0x30e>
    6004:	80 ff       	sbrs	r24, 0
    6006:	11 c0       	rjmp	.+34     	; 0x602a <_ZN4UTFT9printCharEhii+0x33c>
    6008:	0d 81       	ldd	r16, Y+5	; 0x05
    600a:	1e 81       	ldd	r17, Y+6	; 0x06
    600c:	9d 01       	movw	r18, r26
    600e:	a7 01       	movw	r20, r14
    6010:	8f 81       	ldd	r24, Y+7	; 0x07
    6012:	98 85       	ldd	r25, Y+8	; 0x08
    6014:	0e 94 c7 17 	call	0x2f8e	; 0x2f8e <_ZN4UTFT5setXYEjjjj>
    6018:	ef 81       	ldd	r30, Y+7	; 0x07
    601a:	f8 85       	ldd	r31, Y+8	; 0x08
    601c:	60 81       	ld	r22, Z
    601e:	71 81       	ldd	r23, Z+1	; 0x01
    6020:	76 27       	eor	r23, r22
    6022:	67 27       	eor	r22, r23
    6024:	76 27       	eor	r23, r22
    6026:	cf 01       	movw	r24, r30
    6028:	9e dc       	rcall	.-1732   	; 0x5966 <_ZN4UTFT8setPixelEj>
    602a:	f1 e0       	ldi	r31, 0x01	; 1
    602c:	af 1a       	sub	r10, r31
    602e:	b1 08       	sbc	r11, r1
    6030:	69 81       	ldd	r22, Y+1	; 0x01
    6032:	7a 81       	ldd	r23, Y+2	; 0x02
    6034:	8f ef       	ldi	r24, 0xFF	; 255
    6036:	a8 16       	cp	r10, r24
    6038:	b8 06       	cpc	r11, r24
    603a:	c1 f6       	brne	.-80     	; 0x5fec <_ZN4UTFT9printCharEhii+0x2fe>
    603c:	9f ef       	ldi	r25, 0xFF	; 255
    603e:	c9 1a       	sub	r12, r25
    6040:	d9 0a       	sbc	r13, r25
    6042:	a8 e0       	ldi	r26, 0x08	; 8
    6044:	8a 0e       	add	r8, r26
    6046:	91 1c       	adc	r9, r1
    6048:	b2 cf       	rjmp	.-156    	; 0x5fae <_ZN4UTFT9printCharEhii+0x2c0>
    604a:	28 0e       	add	r2, r24
    604c:	39 1e       	adc	r3, r25
    604e:	bf ef       	ldi	r27, 0xFF	; 255
    6050:	eb 1a       	sub	r14, r27
    6052:	fb 0a       	sbc	r15, r27
    6054:	99 cf       	rjmp	.-206    	; 0x5f88 <_ZN4UTFT9printCharEhii+0x29a>
    6056:	af 81       	ldd	r26, Y+7	; 0x07
    6058:	b8 85       	ldd	r27, Y+8	; 0x08
    605a:	54 96       	adiw	r26, 0x14	; 20
    605c:	ed 91       	ld	r30, X+
    605e:	fc 91       	ld	r31, X
    6060:	55 97       	sbiw	r26, 0x15	; 21
    6062:	90 81       	ld	r25, Z
    6064:	90 96       	adiw	r26, 0x20	; 32
    6066:	8c 91       	ld	r24, X
    6068:	90 97       	sbiw	r26, 0x20	; 32
    606a:	89 2b       	or	r24, r25
    606c:	80 83       	st	Z, r24
    606e:	cd 01       	movw	r24, r26
    6070:	28 96       	adiw	r28, 0x08	; 8
    6072:	0f b6       	in	r0, 0x3f	; 63
    6074:	f8 94       	cli
    6076:	de bf       	out	0x3e, r29	; 62
    6078:	0f be       	out	0x3f, r0	; 63
    607a:	cd bf       	out	0x3d, r28	; 61
    607c:	df 91       	pop	r29
    607e:	cf 91       	pop	r28
    6080:	1f 91       	pop	r17
    6082:	0f 91       	pop	r16
    6084:	ff 90       	pop	r15
    6086:	ef 90       	pop	r14
    6088:	df 90       	pop	r13
    608a:	cf 90       	pop	r12
    608c:	bf 90       	pop	r11
    608e:	af 90       	pop	r10
    6090:	9f 90       	pop	r9
    6092:	8f 90       	pop	r8
    6094:	7f 90       	pop	r7
    6096:	6f 90       	pop	r6
    6098:	5f 90       	pop	r5
    609a:	4f 90       	pop	r4
    609c:	3f 90       	pop	r3
    609e:	2f 90       	pop	r2
    60a0:	9d cb       	rjmp	.-2246   	; 0x57dc <_ZN4UTFT5clrXYEv>

000060a2 <_ZN4UTFT10rotateCharEhiiii>:
    60a2:	2f 92       	push	r2
    60a4:	3f 92       	push	r3
    60a6:	4f 92       	push	r4
    60a8:	5f 92       	push	r5
    60aa:	6f 92       	push	r6
    60ac:	7f 92       	push	r7
    60ae:	8f 92       	push	r8
    60b0:	9f 92       	push	r9
    60b2:	af 92       	push	r10
    60b4:	bf 92       	push	r11
    60b6:	cf 92       	push	r12
    60b8:	df 92       	push	r13
    60ba:	ef 92       	push	r14
    60bc:	ff 92       	push	r15
    60be:	0f 93       	push	r16
    60c0:	1f 93       	push	r17
    60c2:	cf 93       	push	r28
    60c4:	df 93       	push	r29
    60c6:	cd b7       	in	r28, 0x3d	; 61
    60c8:	de b7       	in	r29, 0x3e	; 62
    60ca:	ab 97       	sbiw	r28, 0x2b	; 43
    60cc:	0f b6       	in	r0, 0x3f	; 63
    60ce:	f8 94       	cli
    60d0:	de bf       	out	0x3e, r29	; 62
    60d2:	0f be       	out	0x3f, r0	; 63
    60d4:	cd bf       	out	0x3d, r28	; 61
    60d6:	9b a7       	std	Y+43, r25	; 0x2b
    60d8:	8a a7       	std	Y+42, r24	; 0x2a
    60da:	76 2e       	mov	r7, r22
    60dc:	4a 01       	movw	r8, r20
    60de:	59 01       	movw	r10, r18
    60e0:	1b 8f       	std	Y+27, r17	; 0x1b
    60e2:	0a 8f       	std	Y+26, r16	; 0x1a
    60e4:	b7 01       	movw	r22, r14
    60e6:	ff 0c       	add	r15, r15
    60e8:	88 0b       	sbc	r24, r24
    60ea:	99 0b       	sbc	r25, r25
    60ec:	ff d2       	rcall	.+1534   	; 0x66ec <__floatsisf>
    60ee:	29 e2       	ldi	r18, 0x29	; 41
    60f0:	3c e5       	ldi	r19, 0x5C	; 92
    60f2:	4f e8       	ldi	r20, 0x8F	; 143
    60f4:	5c e3       	ldi	r21, 0x3C	; 60
    60f6:	bf d3       	rcall	.+1918   	; 0x6876 <__mulsf3>
    60f8:	6b 01       	movw	r12, r22
    60fa:	7c 01       	movw	r14, r24
    60fc:	aa a5       	ldd	r26, Y+42	; 0x2a
    60fe:	bb a5       	ldd	r27, Y+43	; 0x2b
    6100:	54 96       	adiw	r26, 0x14	; 20
    6102:	ed 91       	ld	r30, X+
    6104:	fc 91       	ld	r31, X
    6106:	55 97       	sbiw	r26, 0x15	; 21
    6108:	90 81       	ld	r25, Z
    610a:	90 96       	adiw	r26, 0x20	; 32
    610c:	8c 91       	ld	r24, X
    610e:	90 97       	sbiw	r26, 0x20	; 32
    6110:	80 95       	com	r24
    6112:	89 23       	and	r24, r25
    6114:	80 83       	st	Z, r24
    6116:	9c 96       	adiw	r26, 0x2c	; 44
    6118:	8c 91       	ld	r24, X
    611a:	9c 97       	sbiw	r26, 0x2c	; 44
    611c:	86 95       	lsr	r24
    611e:	86 95       	lsr	r24
    6120:	86 95       	lsr	r24
    6122:	9d 96       	adiw	r26, 0x2d	; 45
    6124:	9c 91       	ld	r25, X
    6126:	9d 97       	sbiw	r26, 0x2d	; 45
    6128:	27 2d       	mov	r18, r7
    612a:	30 e0       	ldi	r19, 0x00	; 0
    612c:	9e 96       	adiw	r26, 0x2e	; 46
    612e:	4c 91       	ld	r20, X
    6130:	24 1b       	sub	r18, r20
    6132:	31 09       	sbc	r19, r1
    6134:	89 9f       	mul	r24, r25
    6136:	c0 01       	movw	r24, r0
    6138:	11 24       	eor	r1, r1
    613a:	28 9f       	mul	r18, r24
    613c:	a0 01       	movw	r20, r0
    613e:	29 9f       	mul	r18, r25
    6140:	50 0d       	add	r21, r0
    6142:	38 9f       	mul	r19, r24
    6144:	50 0d       	add	r21, r0
    6146:	11 24       	eor	r1, r1
    6148:	fa 01       	movw	r30, r20
    614a:	34 96       	adiw	r30, 0x04	; 4
    614c:	fd 83       	std	Y+5, r31	; 0x05
    614e:	ec 83       	std	Y+4, r30	; 0x04
    6150:	1b 82       	std	Y+3, r1	; 0x03
    6152:	c4 01       	movw	r24, r8
    6154:	99 0c       	add	r9, r9
    6156:	aa 0b       	sbc	r26, r26
    6158:	bb 0b       	sbc	r27, r27
    615a:	8a a3       	std	Y+34, r24	; 0x22
    615c:	9b a3       	std	Y+35, r25	; 0x23
    615e:	ac a3       	std	Y+36, r26	; 0x24
    6160:	bd a3       	std	Y+37, r27	; 0x25
    6162:	c5 01       	movw	r24, r10
    6164:	bb 0c       	add	r11, r11
    6166:	aa 0b       	sbc	r26, r26
    6168:	bb 0b       	sbc	r27, r27
    616a:	8e a3       	std	Y+38, r24	; 0x26
    616c:	9f a3       	std	Y+39, r25	; 0x27
    616e:	a8 a7       	std	Y+40, r26	; 0x28
    6170:	b9 a7       	std	Y+41, r27	; 0x29
    6172:	aa a5       	ldd	r26, Y+42	; 0x2a
    6174:	bb a5       	ldd	r27, Y+43	; 0x2b
    6176:	9d 96       	adiw	r26, 0x2d	; 45
    6178:	8c 91       	ld	r24, X
    617a:	bb 81       	ldd	r27, Y+3	; 0x03
    617c:	b8 17       	cp	r27, r24
    617e:	08 f0       	brcs	.+2      	; 0x6182 <_ZN4UTFT10rotateCharEhiiii+0xe0>
    6180:	ee c0       	rjmp	.+476    	; 0x635e <_ZN4UTFT10rotateCharEhiiii+0x2bc>
    6182:	19 86       	std	Y+9, r1	; 0x09
    6184:	18 86       	std	Y+8, r1	; 0x08
    6186:	21 2c       	mov	r2, r1
    6188:	31 2c       	mov	r3, r1
    618a:	8b 2f       	mov	r24, r27
    618c:	90 e0       	ldi	r25, 0x00	; 0
    618e:	a0 e0       	ldi	r26, 0x00	; 0
    6190:	b0 e0       	ldi	r27, 0x00	; 0
    6192:	8e 8f       	std	Y+30, r24	; 0x1e
    6194:	9f 8f       	std	Y+31, r25	; 0x1f
    6196:	a8 a3       	std	Y+32, r26	; 0x20
    6198:	b9 a3       	std	Y+33, r27	; 0x21
    619a:	aa a5       	ldd	r26, Y+42	; 0x2a
    619c:	bb a5       	ldd	r27, Y+43	; 0x2b
    619e:	9c 96       	adiw	r26, 0x2c	; 44
    61a0:	8c 91       	ld	r24, X
    61a2:	9c 97       	sbiw	r26, 0x2c	; 44
    61a4:	86 95       	lsr	r24
    61a6:	86 95       	lsr	r24
    61a8:	86 95       	lsr	r24
    61aa:	90 e0       	ldi	r25, 0x00	; 0
    61ac:	28 16       	cp	r2, r24
    61ae:	39 06       	cpc	r3, r25
    61b0:	0c f0       	brlt	.+2      	; 0x61b4 <_ZN4UTFT10rotateCharEhiiii+0x112>
    61b2:	cb c0       	rjmp	.+406    	; 0x634a <_ZN4UTFT10rotateCharEhiiii+0x2a8>
    61b4:	9a 96       	adiw	r26, 0x2a	; 42
    61b6:	ed 91       	ld	r30, X+
    61b8:	fc 91       	ld	r31, X
    61ba:	9b 97       	sbiw	r26, 0x2b	; 43
    61bc:	8c 81       	ldd	r24, Y+4	; 0x04
    61be:	9d 81       	ldd	r25, Y+5	; 0x05
    61c0:	82 0d       	add	r24, r2
    61c2:	93 1d       	adc	r25, r3
    61c4:	e8 0f       	add	r30, r24
    61c6:	f9 1f       	adc	r31, r25
    61c8:	74 90       	lpm	r7, Z
    61ca:	c7 01       	movw	r24, r14
    61cc:	b6 01       	movw	r22, r12
    61ce:	58 d2       	rcall	.+1200   	; 0x6680 <cos>
    61d0:	6a 87       	std	Y+10, r22	; 0x0a
    61d2:	7b 87       	std	Y+11, r23	; 0x0b
    61d4:	8c 87       	std	Y+12, r24	; 0x0c
    61d6:	9d 87       	std	Y+13, r25	; 0x0d
    61d8:	6e 8d       	ldd	r22, Y+30	; 0x1e
    61da:	7f 8d       	ldd	r23, Y+31	; 0x1f
    61dc:	88 a1       	ldd	r24, Y+32	; 0x20
    61de:	99 a1       	ldd	r25, Y+33	; 0x21
    61e0:	85 d2       	rcall	.+1290   	; 0x66ec <__floatsisf>
    61e2:	4b 01       	movw	r8, r22
    61e4:	5c 01       	movw	r10, r24
    61e6:	c7 01       	movw	r24, r14
    61e8:	b6 01       	movw	r22, r12
    61ea:	a8 d3       	rcall	.+1872   	; 0x693c <sin>
    61ec:	6e 87       	std	Y+14, r22	; 0x0e
    61ee:	7f 87       	std	Y+15, r23	; 0x0f
    61f0:	88 8b       	std	Y+16, r24	; 0x10
    61f2:	99 8b       	std	Y+17, r25	; 0x11
    61f4:	9b 01       	movw	r18, r22
    61f6:	ac 01       	movw	r20, r24
    61f8:	c5 01       	movw	r24, r10
    61fa:	b4 01       	movw	r22, r8
    61fc:	3c d3       	rcall	.+1656   	; 0x6876 <__mulsf3>
    61fe:	6a 8b       	std	Y+18, r22	; 0x12
    6200:	7b 8b       	std	Y+19, r23	; 0x13
    6202:	8c 8b       	std	Y+20, r24	; 0x14
    6204:	9d 8b       	std	Y+21, r25	; 0x15
    6206:	a5 01       	movw	r20, r10
    6208:	94 01       	movw	r18, r8
    620a:	6a 85       	ldd	r22, Y+10	; 0x0a
    620c:	7b 85       	ldd	r23, Y+11	; 0x0b
    620e:	8c 85       	ldd	r24, Y+12	; 0x0c
    6210:	9d 85       	ldd	r25, Y+13	; 0x0d
    6212:	31 d3       	rcall	.+1634   	; 0x6876 <__mulsf3>
    6214:	6e 8b       	std	Y+22, r22	; 0x16
    6216:	7f 8b       	std	Y+23, r23	; 0x17
    6218:	88 8f       	std	Y+24, r24	; 0x18
    621a:	99 8f       	std	Y+25, r25	; 0x19
    621c:	e8 85       	ldd	r30, Y+8	; 0x08
    621e:	f9 85       	ldd	r31, Y+9	; 0x09
    6220:	ff 83       	std	Y+7, r31	; 0x07
    6222:	ee 83       	std	Y+6, r30	; 0x06
    6224:	27 e0       	ldi	r18, 0x07	; 7
    6226:	30 e0       	ldi	r19, 0x00	; 0
    6228:	3a 83       	std	Y+2, r19	; 0x02
    622a:	29 83       	std	Y+1, r18	; 0x01
    622c:	87 2d       	mov	r24, r7
    622e:	90 e0       	ldi	r25, 0x00	; 0
    6230:	9d 8f       	std	Y+29, r25	; 0x1d
    6232:	8c 8f       	std	Y+28, r24	; 0x1c
    6234:	aa a5       	ldd	r26, Y+42	; 0x2a
    6236:	bb a5       	ldd	r27, Y+43	; 0x2b
    6238:	9c 96       	adiw	r26, 0x2c	; 44
    623a:	8c 91       	ld	r24, X
    623c:	ea 8d       	ldd	r30, Y+26	; 0x1a
    623e:	fb 8d       	ldd	r31, Y+27	; 0x1b
    6240:	8e 9f       	mul	r24, r30
    6242:	b0 01       	movw	r22, r0
    6244:	8f 9f       	mul	r24, r31
    6246:	70 0d       	add	r23, r0
    6248:	11 24       	eor	r1, r1
    624a:	2e 81       	ldd	r18, Y+6	; 0x06
    624c:	3f 81       	ldd	r19, Y+7	; 0x07
    624e:	62 0f       	add	r22, r18
    6250:	73 1f       	adc	r23, r19
    6252:	07 2e       	mov	r0, r23
    6254:	00 0c       	add	r0, r0
    6256:	88 0b       	sbc	r24, r24
    6258:	99 0b       	sbc	r25, r25
    625a:	48 d2       	rcall	.+1168   	; 0x66ec <__floatsisf>
    625c:	2b 01       	movw	r4, r22
    625e:	3c 01       	movw	r6, r24
    6260:	2a 85       	ldd	r18, Y+10	; 0x0a
    6262:	3b 85       	ldd	r19, Y+11	; 0x0b
    6264:	4c 85       	ldd	r20, Y+12	; 0x0c
    6266:	5d 85       	ldd	r21, Y+13	; 0x0d
    6268:	06 d3       	rcall	.+1548   	; 0x6876 <__mulsf3>
    626a:	2a 89       	ldd	r18, Y+18	; 0x12
    626c:	3b 89       	ldd	r19, Y+19	; 0x13
    626e:	4c 89       	ldd	r20, Y+20	; 0x14
    6270:	5d 89       	ldd	r21, Y+21	; 0x15
    6272:	a1 d1       	rcall	.+834    	; 0x65b6 <__subsf3>
    6274:	4b 01       	movw	r8, r22
    6276:	5c 01       	movw	r10, r24
    6278:	6a a1       	ldd	r22, Y+34	; 0x22
    627a:	7b a1       	ldd	r23, Y+35	; 0x23
    627c:	8c a1       	ldd	r24, Y+36	; 0x24
    627e:	9d a1       	ldd	r25, Y+37	; 0x25
    6280:	35 d2       	rcall	.+1130   	; 0x66ec <__floatsisf>
    6282:	9b 01       	movw	r18, r22
    6284:	ac 01       	movw	r20, r24
    6286:	c5 01       	movw	r24, r10
    6288:	b4 01       	movw	r22, r8
    628a:	96 d1       	rcall	.+812    	; 0x65b8 <__addsf3>
    628c:	fc d1       	rcall	.+1016   	; 0x6686 <__fixsfsi>
    628e:	4b 01       	movw	r8, r22
    6290:	5c 01       	movw	r10, r24
    6292:	2e 85       	ldd	r18, Y+14	; 0x0e
    6294:	3f 85       	ldd	r19, Y+15	; 0x0f
    6296:	48 89       	ldd	r20, Y+16	; 0x10
    6298:	59 89       	ldd	r21, Y+17	; 0x11
    629a:	c3 01       	movw	r24, r6
    629c:	b2 01       	movw	r22, r4
    629e:	eb d2       	rcall	.+1494   	; 0x6876 <__mulsf3>
    62a0:	2e 89       	ldd	r18, Y+22	; 0x16
    62a2:	3f 89       	ldd	r19, Y+23	; 0x17
    62a4:	48 8d       	ldd	r20, Y+24	; 0x18
    62a6:	59 8d       	ldd	r21, Y+25	; 0x19
    62a8:	87 d1       	rcall	.+782    	; 0x65b8 <__addsf3>
    62aa:	2b 01       	movw	r4, r22
    62ac:	3c 01       	movw	r6, r24
    62ae:	6e a1       	ldd	r22, Y+38	; 0x26
    62b0:	7f a1       	ldd	r23, Y+39	; 0x27
    62b2:	88 a5       	ldd	r24, Y+40	; 0x28
    62b4:	99 a5       	ldd	r25, Y+41	; 0x29
    62b6:	1a d2       	rcall	.+1076   	; 0x66ec <__floatsisf>
    62b8:	9b 01       	movw	r18, r22
    62ba:	ac 01       	movw	r20, r24
    62bc:	c3 01       	movw	r24, r6
    62be:	b2 01       	movw	r22, r4
    62c0:	7b d1       	rcall	.+758    	; 0x65b8 <__addsf3>
    62c2:	e1 d1       	rcall	.+962    	; 0x6686 <__fixsfsi>
    62c4:	8b 01       	movw	r16, r22
    62c6:	0f 5f       	subi	r16, 0xFF	; 255
    62c8:	1f 4f       	sbci	r17, 0xFF	; 255
    62ca:	94 01       	movw	r18, r8
    62cc:	2f 5f       	subi	r18, 0xFF	; 255
    62ce:	3f 4f       	sbci	r19, 0xFF	; 255
    62d0:	ab 01       	movw	r20, r22
    62d2:	b4 01       	movw	r22, r8
    62d4:	8a a5       	ldd	r24, Y+42	; 0x2a
    62d6:	9b a5       	ldd	r25, Y+43	; 0x2b
    62d8:	0e 94 c7 17 	call	0x2f8e	; 0x2f8e <_ZN4UTFT5setXYEjjjj>
    62dc:	8c 8d       	ldd	r24, Y+28	; 0x1c
    62de:	9d 8d       	ldd	r25, Y+29	; 0x1d
    62e0:	09 80       	ldd	r0, Y+1	; 0x01
    62e2:	02 c0       	rjmp	.+4      	; 0x62e8 <_ZN4UTFT10rotateCharEhiiii+0x246>
    62e4:	95 95       	asr	r25
    62e6:	87 95       	ror	r24
    62e8:	0a 94       	dec	r0
    62ea:	e2 f7       	brpl	.-8      	; 0x62e4 <_ZN4UTFT10rotateCharEhiiii+0x242>
    62ec:	80 ff       	sbrs	r24, 0
    62ee:	0a c0       	rjmp	.+20     	; 0x6304 <_ZN4UTFT10rotateCharEhiiii+0x262>
    62f0:	aa a5       	ldd	r26, Y+42	; 0x2a
    62f2:	bb a5       	ldd	r27, Y+43	; 0x2b
    62f4:	6d 91       	ld	r22, X+
    62f6:	7c 91       	ld	r23, X
    62f8:	11 97       	sbiw	r26, 0x01	; 1
    62fa:	76 27       	eor	r23, r22
    62fc:	67 27       	eor	r22, r23
    62fe:	76 27       	eor	r23, r22
    6300:	cd 01       	movw	r24, r26
    6302:	0b c0       	rjmp	.+22     	; 0x631a <_ZN4UTFT10rotateCharEhiiii+0x278>
    6304:	ea a5       	ldd	r30, Y+42	; 0x2a
    6306:	fb a5       	ldd	r31, Y+43	; 0x2b
    6308:	80 a9       	ldd	r24, Z+48	; 0x30
    630a:	81 11       	cpse	r24, r1
    630c:	07 c0       	rjmp	.+14     	; 0x631c <_ZN4UTFT10rotateCharEhiiii+0x27a>
    630e:	62 81       	ldd	r22, Z+2	; 0x02
    6310:	73 81       	ldd	r23, Z+3	; 0x03
    6312:	76 27       	eor	r23, r22
    6314:	67 27       	eor	r22, r23
    6316:	76 27       	eor	r23, r22
    6318:	cf 01       	movw	r24, r30
    631a:	25 db       	rcall	.-2486   	; 0x5966 <_ZN4UTFT8setPixelEj>
    631c:	2e 81       	ldd	r18, Y+6	; 0x06
    631e:	3f 81       	ldd	r19, Y+7	; 0x07
    6320:	2f 5f       	subi	r18, 0xFF	; 255
    6322:	3f 4f       	sbci	r19, 0xFF	; 255
    6324:	3f 83       	std	Y+7, r19	; 0x07
    6326:	2e 83       	std	Y+6, r18	; 0x06
    6328:	89 81       	ldd	r24, Y+1	; 0x01
    632a:	9a 81       	ldd	r25, Y+2	; 0x02
    632c:	01 97       	sbiw	r24, 0x01	; 1
    632e:	9a 83       	std	Y+2, r25	; 0x02
    6330:	89 83       	std	Y+1, r24	; 0x01
    6332:	01 96       	adiw	r24, 0x01	; 1
    6334:	09 f0       	breq	.+2      	; 0x6338 <_ZN4UTFT10rotateCharEhiiii+0x296>
    6336:	7e cf       	rjmp	.-260    	; 0x6234 <_ZN4UTFT10rotateCharEhiiii+0x192>
    6338:	bf ef       	ldi	r27, 0xFF	; 255
    633a:	2b 1a       	sub	r2, r27
    633c:	3b 0a       	sbc	r3, r27
    633e:	e8 85       	ldd	r30, Y+8	; 0x08
    6340:	f9 85       	ldd	r31, Y+9	; 0x09
    6342:	38 96       	adiw	r30, 0x08	; 8
    6344:	f9 87       	std	Y+9, r31	; 0x09
    6346:	e8 87       	std	Y+8, r30	; 0x08
    6348:	28 cf       	rjmp	.-432    	; 0x619a <_ZN4UTFT10rotateCharEhiiii+0xf8>
    634a:	2c 81       	ldd	r18, Y+4	; 0x04
    634c:	3d 81       	ldd	r19, Y+5	; 0x05
    634e:	28 0f       	add	r18, r24
    6350:	39 1f       	adc	r19, r25
    6352:	3d 83       	std	Y+5, r19	; 0x05
    6354:	2c 83       	std	Y+4, r18	; 0x04
    6356:	3b 81       	ldd	r19, Y+3	; 0x03
    6358:	3f 5f       	subi	r19, 0xFF	; 255
    635a:	3b 83       	std	Y+3, r19	; 0x03
    635c:	0a cf       	rjmp	.-492    	; 0x6172 <_ZN4UTFT10rotateCharEhiiii+0xd0>
    635e:	aa a5       	ldd	r26, Y+42	; 0x2a
    6360:	bb a5       	ldd	r27, Y+43	; 0x2b
    6362:	54 96       	adiw	r26, 0x14	; 20
    6364:	ed 91       	ld	r30, X+
    6366:	fc 91       	ld	r31, X
    6368:	55 97       	sbiw	r26, 0x15	; 21
    636a:	90 81       	ld	r25, Z
    636c:	90 96       	adiw	r26, 0x20	; 32
    636e:	8c 91       	ld	r24, X
    6370:	90 97       	sbiw	r26, 0x20	; 32
    6372:	89 2b       	or	r24, r25
    6374:	80 83       	st	Z, r24
    6376:	cd 01       	movw	r24, r26
    6378:	ab 96       	adiw	r28, 0x2b	; 43
    637a:	0f b6       	in	r0, 0x3f	; 63
    637c:	f8 94       	cli
    637e:	de bf       	out	0x3e, r29	; 62
    6380:	0f be       	out	0x3f, r0	; 63
    6382:	cd bf       	out	0x3d, r28	; 61
    6384:	df 91       	pop	r29
    6386:	cf 91       	pop	r28
    6388:	1f 91       	pop	r17
    638a:	0f 91       	pop	r16
    638c:	ff 90       	pop	r15
    638e:	ef 90       	pop	r14
    6390:	df 90       	pop	r13
    6392:	cf 90       	pop	r12
    6394:	bf 90       	pop	r11
    6396:	af 90       	pop	r10
    6398:	9f 90       	pop	r9
    639a:	8f 90       	pop	r8
    639c:	7f 90       	pop	r7
    639e:	6f 90       	pop	r6
    63a0:	5f 90       	pop	r5
    63a2:	4f 90       	pop	r4
    63a4:	3f 90       	pop	r3
    63a6:	2f 90       	pop	r2
    63a8:	19 ca       	rjmp	.-3022   	; 0x57dc <_ZN4UTFT5clrXYEv>

000063aa <_ZN4UTFT5printEPciii>:
    63aa:	2f 92       	push	r2
    63ac:	3f 92       	push	r3
    63ae:	4f 92       	push	r4
    63b0:	5f 92       	push	r5
    63b2:	6f 92       	push	r6
    63b4:	7f 92       	push	r7
    63b6:	8f 92       	push	r8
    63b8:	9f 92       	push	r9
    63ba:	af 92       	push	r10
    63bc:	bf 92       	push	r11
    63be:	cf 92       	push	r12
    63c0:	df 92       	push	r13
    63c2:	ef 92       	push	r14
    63c4:	ff 92       	push	r15
    63c6:	0f 93       	push	r16
    63c8:	1f 93       	push	r17
    63ca:	cf 93       	push	r28
    63cc:	df 93       	push	r29
    63ce:	6c 01       	movw	r12, r24
    63d0:	2b 01       	movw	r4, r22
    63d2:	ea 01       	movw	r28, r20
    63d4:	39 01       	movw	r6, r18
    63d6:	18 01       	movw	r2, r16
    63d8:	fb 01       	movw	r30, r22
    63da:	01 90       	ld	r0, Z+
    63dc:	00 20       	and	r0, r0
    63de:	e9 f7       	brne	.-6      	; 0x63da <_ZN4UTFT5printEPciii+0x30>
    63e0:	31 97       	sbiw	r30, 0x01	; 1
    63e2:	5f 01       	movw	r10, r30
    63e4:	a6 1a       	sub	r10, r22
    63e6:	b7 0a       	sbc	r11, r23
    63e8:	fc 01       	movw	r30, r24
    63ea:	84 81       	ldd	r24, Z+4	; 0x04
    63ec:	81 11       	cpse	r24, r1
    63ee:	19 c0       	rjmp	.+50     	; 0x6422 <_ZN4UTFT5printEPciii+0x78>
    63f0:	4f 30       	cpi	r20, 0x0F	; 15
    63f2:	57 42       	sbci	r21, 0x27	; 39
    63f4:	61 f4       	brne	.+24     	; 0x640e <_ZN4UTFT5printEPciii+0x64>
    63f6:	f6 01       	movw	r30, r12
    63f8:	c5 81       	ldd	r28, Z+5	; 0x05
    63fa:	d6 81       	ldd	r29, Z+6	; 0x06
    63fc:	21 96       	adiw	r28, 0x01	; 1
    63fe:	24 a5       	ldd	r18, Z+44	; 0x2c
    6400:	2a 9d       	mul	r18, r10
    6402:	c0 01       	movw	r24, r0
    6404:	2b 9d       	mul	r18, r11
    6406:	90 0d       	add	r25, r0
    6408:	11 24       	eor	r1, r1
    640a:	c8 1b       	sub	r28, r24
    640c:	d9 0b       	sbc	r29, r25
    640e:	ce 30       	cpi	r28, 0x0E	; 14
    6410:	f7 e2       	ldi	r31, 0x27	; 39
    6412:	df 07       	cpc	r29, r31
    6414:	b9 f5       	brne	.+110    	; 0x6484 <_ZN4UTFT5printEPciii+0xda>
    6416:	f6 01       	movw	r30, r12
    6418:	85 81       	ldd	r24, Z+5	; 0x05
    641a:	96 81       	ldd	r25, Z+6	; 0x06
    641c:	a7 81       	ldd	r26, Z+7	; 0x07
    641e:	b0 85       	ldd	r27, Z+8	; 0x08
    6420:	18 c0       	rjmp	.+48     	; 0x6452 <_ZN4UTFT5printEPciii+0xa8>
    6422:	4f 30       	cpi	r20, 0x0F	; 15
    6424:	57 42       	sbci	r21, 0x27	; 39
    6426:	61 f4       	brne	.+24     	; 0x6440 <_ZN4UTFT5printEPciii+0x96>
    6428:	f6 01       	movw	r30, r12
    642a:	c1 85       	ldd	r28, Z+9	; 0x09
    642c:	d2 85       	ldd	r29, Z+10	; 0x0a
    642e:	21 96       	adiw	r28, 0x01	; 1
    6430:	24 a5       	ldd	r18, Z+44	; 0x2c
    6432:	2a 9d       	mul	r18, r10
    6434:	c0 01       	movw	r24, r0
    6436:	2b 9d       	mul	r18, r11
    6438:	90 0d       	add	r25, r0
    643a:	11 24       	eor	r1, r1
    643c:	c8 1b       	sub	r28, r24
    643e:	d9 0b       	sbc	r29, r25
    6440:	ce 30       	cpi	r28, 0x0E	; 14
    6442:	f7 e2       	ldi	r31, 0x27	; 39
    6444:	df 07       	cpc	r29, r31
    6446:	f1 f4       	brne	.+60     	; 0x6484 <_ZN4UTFT5printEPciii+0xda>
    6448:	f6 01       	movw	r30, r12
    644a:	81 85       	ldd	r24, Z+9	; 0x09
    644c:	92 85       	ldd	r25, Z+10	; 0x0a
    644e:	a3 85       	ldd	r26, Z+11	; 0x0b
    6450:	b4 85       	ldd	r27, Z+12	; 0x0c
    6452:	01 96       	adiw	r24, 0x01	; 1
    6454:	a1 1d       	adc	r26, r1
    6456:	b1 1d       	adc	r27, r1
    6458:	24 a5       	ldd	r18, Z+44	; 0x2c
    645a:	2a 9d       	mul	r18, r10
    645c:	80 01       	movw	r16, r0
    645e:	2b 9d       	mul	r18, r11
    6460:	10 0d       	add	r17, r0
    6462:	11 24       	eor	r1, r1
    6464:	01 2e       	mov	r0, r17
    6466:	00 0c       	add	r0, r0
    6468:	22 0b       	sbc	r18, r18
    646a:	33 0b       	sbc	r19, r19
    646c:	bc 01       	movw	r22, r24
    646e:	cd 01       	movw	r24, r26
    6470:	60 1b       	sub	r22, r16
    6472:	71 0b       	sbc	r23, r17
    6474:	82 0b       	sbc	r24, r18
    6476:	93 0b       	sbc	r25, r19
    6478:	22 e0       	ldi	r18, 0x02	; 2
    647a:	30 e0       	ldi	r19, 0x00	; 0
    647c:	40 e0       	ldi	r20, 0x00	; 0
    647e:	50 e0       	ldi	r21, 0x00	; 0
    6480:	e5 d7       	rcall	.+4042   	; 0x744c <__divmodsi4>
    6482:	e9 01       	movw	r28, r18
    6484:	81 2c       	mov	r8, r1
    6486:	91 2c       	mov	r9, r1
    6488:	8a 14       	cp	r8, r10
    648a:	9b 04       	cpc	r9, r11
    648c:	0c f5       	brge	.+66     	; 0x64d0 <_ZN4UTFT5printEPciii+0x126>
    648e:	21 14       	cp	r2, r1
    6490:	31 04       	cpc	r3, r1
    6492:	79 f4       	brne	.+30     	; 0x64b2 <_ZN4UTFT5printEPciii+0x108>
    6494:	f6 01       	movw	r30, r12
    6496:	84 a5       	ldd	r24, Z+44	; 0x2c
    6498:	88 9d       	mul	r24, r8
    649a:	a0 01       	movw	r20, r0
    649c:	89 9d       	mul	r24, r9
    649e:	50 0d       	add	r21, r0
    64a0:	11 24       	eor	r1, r1
    64a2:	4c 0f       	add	r20, r28
    64a4:	5d 1f       	adc	r21, r29
    64a6:	93 01       	movw	r18, r6
    64a8:	f2 01       	movw	r30, r4
    64aa:	60 81       	ld	r22, Z
    64ac:	c6 01       	movw	r24, r12
    64ae:	1f dc       	rcall	.-1986   	; 0x5cee <_ZN4UTFT9printCharEhii>
    64b0:	08 c0       	rjmp	.+16     	; 0x64c2 <_ZN4UTFT5printEPciii+0x118>
    64b2:	71 01       	movw	r14, r2
    64b4:	84 01       	movw	r16, r8
    64b6:	93 01       	movw	r18, r6
    64b8:	ae 01       	movw	r20, r28
    64ba:	f2 01       	movw	r30, r4
    64bc:	60 81       	ld	r22, Z
    64be:	c6 01       	movw	r24, r12
    64c0:	f0 dd       	rcall	.-1056   	; 0x60a2 <_ZN4UTFT10rotateCharEhiiii>
    64c2:	ff ef       	ldi	r31, 0xFF	; 255
    64c4:	8f 1a       	sub	r8, r31
    64c6:	9f 0a       	sbc	r9, r31
    64c8:	8f ef       	ldi	r24, 0xFF	; 255
    64ca:	48 1a       	sub	r4, r24
    64cc:	58 0a       	sbc	r5, r24
    64ce:	dc cf       	rjmp	.-72     	; 0x6488 <_ZN4UTFT5printEPciii+0xde>
    64d0:	df 91       	pop	r29
    64d2:	cf 91       	pop	r28
    64d4:	1f 91       	pop	r17
    64d6:	0f 91       	pop	r16
    64d8:	ff 90       	pop	r15
    64da:	ef 90       	pop	r14
    64dc:	df 90       	pop	r13
    64de:	cf 90       	pop	r12
    64e0:	bf 90       	pop	r11
    64e2:	af 90       	pop	r10
    64e4:	9f 90       	pop	r9
    64e6:	8f 90       	pop	r8
    64e8:	7f 90       	pop	r7
    64ea:	6f 90       	pop	r6
    64ec:	5f 90       	pop	r5
    64ee:	4f 90       	pop	r4
    64f0:	3f 90       	pop	r3
    64f2:	2f 90       	pop	r2
    64f4:	08 95       	ret

000064f6 <_ZN4UTFT5printE6Stringiii>:
    64f6:	6f 92       	push	r6
    64f8:	7f 92       	push	r7
    64fa:	8f 92       	push	r8
    64fc:	9f 92       	push	r9
    64fe:	af 92       	push	r10
    6500:	bf 92       	push	r11
    6502:	cf 92       	push	r12
    6504:	df 92       	push	r13
    6506:	ef 92       	push	r14
    6508:	ff 92       	push	r15
    650a:	0f 93       	push	r16
    650c:	1f 93       	push	r17
    650e:	cf 93       	push	r28
    6510:	df 93       	push	r29
    6512:	cd b7       	in	r28, 0x3d	; 61
    6514:	de b7       	in	r29, 0x3e	; 62
    6516:	5c 01       	movw	r10, r24
    6518:	cb 01       	movw	r24, r22
    651a:	4a 01       	movw	r8, r20
    651c:	39 01       	movw	r6, r18
    651e:	cd b6       	in	r12, 0x3d	; 61
    6520:	de b6       	in	r13, 0x3e	; 62
    6522:	fb 01       	movw	r30, r22
    6524:	44 81       	ldd	r20, Z+4	; 0x04
    6526:	55 81       	ldd	r21, Z+5	; 0x05
    6528:	4f 5f       	subi	r20, 0xFF	; 255
    652a:	5f 4f       	sbci	r21, 0xFF	; 255
    652c:	2d b7       	in	r18, 0x3d	; 61
    652e:	3e b7       	in	r19, 0x3e	; 62
    6530:	24 1b       	sub	r18, r20
    6532:	35 0b       	sbc	r19, r21
    6534:	0f b6       	in	r0, 0x3f	; 63
    6536:	f8 94       	cli
    6538:	3e bf       	out	0x3e, r19	; 62
    653a:	0f be       	out	0x3f, r0	; 63
    653c:	2d bf       	out	0x3d, r18	; 61
    653e:	ed b7       	in	r30, 0x3d	; 61
    6540:	fe b7       	in	r31, 0x3e	; 62
    6542:	31 96       	adiw	r30, 0x01	; 1
    6544:	7f 01       	movw	r14, r30
    6546:	20 e0       	ldi	r18, 0x00	; 0
    6548:	30 e0       	ldi	r19, 0x00	; 0
    654a:	bf 01       	movw	r22, r30
    654c:	19 d6       	rcall	.+3122   	; 0x7180 <_ZNK6String8getBytesEPhjj>
    654e:	93 01       	movw	r18, r6
    6550:	a4 01       	movw	r20, r8
    6552:	b7 01       	movw	r22, r14
    6554:	c5 01       	movw	r24, r10
    6556:	29 df       	rcall	.-430    	; 0x63aa <_ZN4UTFT5printEPciii>
    6558:	0f b6       	in	r0, 0x3f	; 63
    655a:	f8 94       	cli
    655c:	de be       	out	0x3e, r13	; 62
    655e:	0f be       	out	0x3f, r0	; 63
    6560:	cd be       	out	0x3d, r12	; 61
    6562:	df 91       	pop	r29
    6564:	cf 91       	pop	r28
    6566:	1f 91       	pop	r17
    6568:	0f 91       	pop	r16
    656a:	ff 90       	pop	r15
    656c:	ef 90       	pop	r14
    656e:	df 90       	pop	r13
    6570:	cf 90       	pop	r12
    6572:	bf 90       	pop	r11
    6574:	af 90       	pop	r10
    6576:	9f 90       	pop	r9
    6578:	8f 90       	pop	r8
    657a:	7f 90       	pop	r7
    657c:	6f 90       	pop	r6
    657e:	08 95       	ret

00006580 <_ZN4UTFT7setFontEPh>:

void UTFT::setFont(uint8_t* font)
{
    6580:	dc 01       	movw	r26, r24
	cfont.font=font;
    6582:	9b 96       	adiw	r26, 0x2b	; 43
    6584:	7c 93       	st	X, r23
    6586:	6e 93       	st	-X, r22
    6588:	9a 97       	sbiw	r26, 0x2a	; 42
	cfont.x_size=fontbyte(0);
    658a:	fb 01       	movw	r30, r22
    658c:	84 91       	lpm	r24, Z
    658e:	9c 96       	adiw	r26, 0x2c	; 44
    6590:	8c 93       	st	X, r24
    6592:	9c 97       	sbiw	r26, 0x2c	; 44
	cfont.y_size=fontbyte(1);
    6594:	31 96       	adiw	r30, 0x01	; 1
    6596:	e4 91       	lpm	r30, Z
    6598:	9d 96       	adiw	r26, 0x2d	; 45
    659a:	ec 93       	st	X, r30
    659c:	9d 97       	sbiw	r26, 0x2d	; 45
	cfont.offset=fontbyte(2);
    659e:	fb 01       	movw	r30, r22
    65a0:	32 96       	adiw	r30, 0x02	; 2
    65a2:	e4 91       	lpm	r30, Z
    65a4:	9e 96       	adiw	r26, 0x2e	; 46
    65a6:	ec 93       	st	X, r30
    65a8:	9e 97       	sbiw	r26, 0x2e	; 46
	cfont.numchars=fontbyte(3);
    65aa:	fb 01       	movw	r30, r22
    65ac:	33 96       	adiw	r30, 0x03	; 3
    65ae:	64 91       	lpm	r22, Z
    65b0:	9f 96       	adiw	r26, 0x2f	; 47
    65b2:	6c 93       	st	X, r22
    65b4:	08 95       	ret

000065b6 <__subsf3>:
    65b6:	50 58       	subi	r21, 0x80	; 128

000065b8 <__addsf3>:
    65b8:	bb 27       	eor	r27, r27
    65ba:	aa 27       	eor	r26, r26
    65bc:	0e d0       	rcall	.+28     	; 0x65da <__addsf3x>
    65be:	10 c1       	rjmp	.+544    	; 0x67e0 <__fp_round>
    65c0:	d9 d0       	rcall	.+434    	; 0x6774 <__fp_pscA>
    65c2:	30 f0       	brcs	.+12     	; 0x65d0 <__addsf3+0x18>
    65c4:	de d0       	rcall	.+444    	; 0x6782 <__fp_pscB>
    65c6:	20 f0       	brcs	.+8      	; 0x65d0 <__addsf3+0x18>
    65c8:	31 f4       	brne	.+12     	; 0x65d6 <__addsf3+0x1e>
    65ca:	9f 3f       	cpi	r25, 0xFF	; 255
    65cc:	11 f4       	brne	.+4      	; 0x65d2 <__addsf3+0x1a>
    65ce:	1e f4       	brtc	.+6      	; 0x65d6 <__addsf3+0x1e>
    65d0:	ce c0       	rjmp	.+412    	; 0x676e <__fp_nan>
    65d2:	0e f4       	brtc	.+2      	; 0x65d6 <__addsf3+0x1e>
    65d4:	e0 95       	com	r30
    65d6:	e7 fb       	bst	r30, 7
    65d8:	c4 c0       	rjmp	.+392    	; 0x6762 <__fp_inf>

000065da <__addsf3x>:
    65da:	e9 2f       	mov	r30, r25
    65dc:	23 d1       	rcall	.+582    	; 0x6824 <__fp_split3>
    65de:	80 f3       	brcs	.-32     	; 0x65c0 <__addsf3+0x8>
    65e0:	ba 17       	cp	r27, r26
    65e2:	62 07       	cpc	r22, r18
    65e4:	73 07       	cpc	r23, r19
    65e6:	84 07       	cpc	r24, r20
    65e8:	95 07       	cpc	r25, r21
    65ea:	18 f0       	brcs	.+6      	; 0x65f2 <__addsf3x+0x18>
    65ec:	71 f4       	brne	.+28     	; 0x660a <__addsf3x+0x30>
    65ee:	9e f5       	brtc	.+102    	; 0x6656 <__addsf3x+0x7c>
    65f0:	3b c1       	rjmp	.+630    	; 0x6868 <__fp_zero>
    65f2:	0e f4       	brtc	.+2      	; 0x65f6 <__addsf3x+0x1c>
    65f4:	e0 95       	com	r30
    65f6:	0b 2e       	mov	r0, r27
    65f8:	ba 2f       	mov	r27, r26
    65fa:	a0 2d       	mov	r26, r0
    65fc:	0b 01       	movw	r0, r22
    65fe:	b9 01       	movw	r22, r18
    6600:	90 01       	movw	r18, r0
    6602:	0c 01       	movw	r0, r24
    6604:	ca 01       	movw	r24, r20
    6606:	a0 01       	movw	r20, r0
    6608:	11 24       	eor	r1, r1
    660a:	ff 27       	eor	r31, r31
    660c:	59 1b       	sub	r21, r25
    660e:	99 f0       	breq	.+38     	; 0x6636 <__addsf3x+0x5c>
    6610:	59 3f       	cpi	r21, 0xF9	; 249
    6612:	50 f4       	brcc	.+20     	; 0x6628 <__addsf3x+0x4e>
    6614:	50 3e       	cpi	r21, 0xE0	; 224
    6616:	68 f1       	brcs	.+90     	; 0x6672 <__addsf3x+0x98>
    6618:	1a 16       	cp	r1, r26
    661a:	f0 40       	sbci	r31, 0x00	; 0
    661c:	a2 2f       	mov	r26, r18
    661e:	23 2f       	mov	r18, r19
    6620:	34 2f       	mov	r19, r20
    6622:	44 27       	eor	r20, r20
    6624:	58 5f       	subi	r21, 0xF8	; 248
    6626:	f3 cf       	rjmp	.-26     	; 0x660e <__addsf3x+0x34>
    6628:	46 95       	lsr	r20
    662a:	37 95       	ror	r19
    662c:	27 95       	ror	r18
    662e:	a7 95       	ror	r26
    6630:	f0 40       	sbci	r31, 0x00	; 0
    6632:	53 95       	inc	r21
    6634:	c9 f7       	brne	.-14     	; 0x6628 <__addsf3x+0x4e>
    6636:	7e f4       	brtc	.+30     	; 0x6656 <__addsf3x+0x7c>
    6638:	1f 16       	cp	r1, r31
    663a:	ba 0b       	sbc	r27, r26
    663c:	62 0b       	sbc	r22, r18
    663e:	73 0b       	sbc	r23, r19
    6640:	84 0b       	sbc	r24, r20
    6642:	ba f0       	brmi	.+46     	; 0x6672 <__addsf3x+0x98>
    6644:	91 50       	subi	r25, 0x01	; 1
    6646:	a1 f0       	breq	.+40     	; 0x6670 <__addsf3x+0x96>
    6648:	ff 0f       	add	r31, r31
    664a:	bb 1f       	adc	r27, r27
    664c:	66 1f       	adc	r22, r22
    664e:	77 1f       	adc	r23, r23
    6650:	88 1f       	adc	r24, r24
    6652:	c2 f7       	brpl	.-16     	; 0x6644 <__addsf3x+0x6a>
    6654:	0e c0       	rjmp	.+28     	; 0x6672 <__addsf3x+0x98>
    6656:	ba 0f       	add	r27, r26
    6658:	62 1f       	adc	r22, r18
    665a:	73 1f       	adc	r23, r19
    665c:	84 1f       	adc	r24, r20
    665e:	48 f4       	brcc	.+18     	; 0x6672 <__addsf3x+0x98>
    6660:	87 95       	ror	r24
    6662:	77 95       	ror	r23
    6664:	67 95       	ror	r22
    6666:	b7 95       	ror	r27
    6668:	f7 95       	ror	r31
    666a:	9e 3f       	cpi	r25, 0xFE	; 254
    666c:	08 f0       	brcs	.+2      	; 0x6670 <__addsf3x+0x96>
    666e:	b3 cf       	rjmp	.-154    	; 0x65d6 <__addsf3+0x1e>
    6670:	93 95       	inc	r25
    6672:	88 0f       	add	r24, r24
    6674:	08 f0       	brcs	.+2      	; 0x6678 <__addsf3x+0x9e>
    6676:	99 27       	eor	r25, r25
    6678:	ee 0f       	add	r30, r30
    667a:	97 95       	ror	r25
    667c:	87 95       	ror	r24
    667e:	08 95       	ret

00006680 <cos>:
    6680:	88 d0       	rcall	.+272    	; 0x6792 <__fp_rempio2>
    6682:	e3 95       	inc	r30
    6684:	be c0       	rjmp	.+380    	; 0x6802 <__fp_sinus>

00006686 <__fixsfsi>:
    6686:	04 d0       	rcall	.+8      	; 0x6690 <__fixunssfsi>
    6688:	68 94       	set
    668a:	b1 11       	cpse	r27, r1
    668c:	ee c0       	rjmp	.+476    	; 0x686a <__fp_szero>
    668e:	08 95       	ret

00006690 <__fixunssfsi>:
    6690:	d1 d0       	rcall	.+418    	; 0x6834 <__fp_splitA>
    6692:	88 f0       	brcs	.+34     	; 0x66b6 <__fixunssfsi+0x26>
    6694:	9f 57       	subi	r25, 0x7F	; 127
    6696:	90 f0       	brcs	.+36     	; 0x66bc <__fixunssfsi+0x2c>
    6698:	b9 2f       	mov	r27, r25
    669a:	99 27       	eor	r25, r25
    669c:	b7 51       	subi	r27, 0x17	; 23
    669e:	a0 f0       	brcs	.+40     	; 0x66c8 <__fixunssfsi+0x38>
    66a0:	d1 f0       	breq	.+52     	; 0x66d6 <__fixunssfsi+0x46>
    66a2:	66 0f       	add	r22, r22
    66a4:	77 1f       	adc	r23, r23
    66a6:	88 1f       	adc	r24, r24
    66a8:	99 1f       	adc	r25, r25
    66aa:	1a f0       	brmi	.+6      	; 0x66b2 <__fixunssfsi+0x22>
    66ac:	ba 95       	dec	r27
    66ae:	c9 f7       	brne	.-14     	; 0x66a2 <__fixunssfsi+0x12>
    66b0:	12 c0       	rjmp	.+36     	; 0x66d6 <__fixunssfsi+0x46>
    66b2:	b1 30       	cpi	r27, 0x01	; 1
    66b4:	81 f0       	breq	.+32     	; 0x66d6 <__fixunssfsi+0x46>
    66b6:	d8 d0       	rcall	.+432    	; 0x6868 <__fp_zero>
    66b8:	b1 e0       	ldi	r27, 0x01	; 1
    66ba:	08 95       	ret
    66bc:	d5 c0       	rjmp	.+426    	; 0x6868 <__fp_zero>
    66be:	67 2f       	mov	r22, r23
    66c0:	78 2f       	mov	r23, r24
    66c2:	88 27       	eor	r24, r24
    66c4:	b8 5f       	subi	r27, 0xF8	; 248
    66c6:	39 f0       	breq	.+14     	; 0x66d6 <__fixunssfsi+0x46>
    66c8:	b9 3f       	cpi	r27, 0xF9	; 249
    66ca:	cc f3       	brlt	.-14     	; 0x66be <__fixunssfsi+0x2e>
    66cc:	86 95       	lsr	r24
    66ce:	77 95       	ror	r23
    66d0:	67 95       	ror	r22
    66d2:	b3 95       	inc	r27
    66d4:	d9 f7       	brne	.-10     	; 0x66cc <__fixunssfsi+0x3c>
    66d6:	3e f4       	brtc	.+14     	; 0x66e6 <__fixunssfsi+0x56>
    66d8:	90 95       	com	r25
    66da:	80 95       	com	r24
    66dc:	70 95       	com	r23
    66de:	61 95       	neg	r22
    66e0:	7f 4f       	sbci	r23, 0xFF	; 255
    66e2:	8f 4f       	sbci	r24, 0xFF	; 255
    66e4:	9f 4f       	sbci	r25, 0xFF	; 255
    66e6:	08 95       	ret

000066e8 <__floatunsisf>:
    66e8:	e8 94       	clt
    66ea:	09 c0       	rjmp	.+18     	; 0x66fe <__floatsisf+0x12>

000066ec <__floatsisf>:
    66ec:	97 fb       	bst	r25, 7
    66ee:	3e f4       	brtc	.+14     	; 0x66fe <__floatsisf+0x12>
    66f0:	90 95       	com	r25
    66f2:	80 95       	com	r24
    66f4:	70 95       	com	r23
    66f6:	61 95       	neg	r22
    66f8:	7f 4f       	sbci	r23, 0xFF	; 255
    66fa:	8f 4f       	sbci	r24, 0xFF	; 255
    66fc:	9f 4f       	sbci	r25, 0xFF	; 255
    66fe:	99 23       	and	r25, r25
    6700:	a9 f0       	breq	.+42     	; 0x672c <__floatsisf+0x40>
    6702:	f9 2f       	mov	r31, r25
    6704:	96 e9       	ldi	r25, 0x96	; 150
    6706:	bb 27       	eor	r27, r27
    6708:	93 95       	inc	r25
    670a:	f6 95       	lsr	r31
    670c:	87 95       	ror	r24
    670e:	77 95       	ror	r23
    6710:	67 95       	ror	r22
    6712:	b7 95       	ror	r27
    6714:	f1 11       	cpse	r31, r1
    6716:	f8 cf       	rjmp	.-16     	; 0x6708 <__floatsisf+0x1c>
    6718:	fa f4       	brpl	.+62     	; 0x6758 <__floatsisf+0x6c>
    671a:	bb 0f       	add	r27, r27
    671c:	11 f4       	brne	.+4      	; 0x6722 <__floatsisf+0x36>
    671e:	60 ff       	sbrs	r22, 0
    6720:	1b c0       	rjmp	.+54     	; 0x6758 <__floatsisf+0x6c>
    6722:	6f 5f       	subi	r22, 0xFF	; 255
    6724:	7f 4f       	sbci	r23, 0xFF	; 255
    6726:	8f 4f       	sbci	r24, 0xFF	; 255
    6728:	9f 4f       	sbci	r25, 0xFF	; 255
    672a:	16 c0       	rjmp	.+44     	; 0x6758 <__floatsisf+0x6c>
    672c:	88 23       	and	r24, r24
    672e:	11 f0       	breq	.+4      	; 0x6734 <__floatsisf+0x48>
    6730:	96 e9       	ldi	r25, 0x96	; 150
    6732:	11 c0       	rjmp	.+34     	; 0x6756 <__floatsisf+0x6a>
    6734:	77 23       	and	r23, r23
    6736:	21 f0       	breq	.+8      	; 0x6740 <__floatsisf+0x54>
    6738:	9e e8       	ldi	r25, 0x8E	; 142
    673a:	87 2f       	mov	r24, r23
    673c:	76 2f       	mov	r23, r22
    673e:	05 c0       	rjmp	.+10     	; 0x674a <__floatsisf+0x5e>
    6740:	66 23       	and	r22, r22
    6742:	71 f0       	breq	.+28     	; 0x6760 <__floatsisf+0x74>
    6744:	96 e8       	ldi	r25, 0x86	; 134
    6746:	86 2f       	mov	r24, r22
    6748:	70 e0       	ldi	r23, 0x00	; 0
    674a:	60 e0       	ldi	r22, 0x00	; 0
    674c:	2a f0       	brmi	.+10     	; 0x6758 <__floatsisf+0x6c>
    674e:	9a 95       	dec	r25
    6750:	66 0f       	add	r22, r22
    6752:	77 1f       	adc	r23, r23
    6754:	88 1f       	adc	r24, r24
    6756:	da f7       	brpl	.-10     	; 0x674e <__floatsisf+0x62>
    6758:	88 0f       	add	r24, r24
    675a:	96 95       	lsr	r25
    675c:	87 95       	ror	r24
    675e:	97 f9       	bld	r25, 7
    6760:	08 95       	ret

00006762 <__fp_inf>:
    6762:	97 f9       	bld	r25, 7
    6764:	9f 67       	ori	r25, 0x7F	; 127
    6766:	80 e8       	ldi	r24, 0x80	; 128
    6768:	70 e0       	ldi	r23, 0x00	; 0
    676a:	60 e0       	ldi	r22, 0x00	; 0
    676c:	08 95       	ret

0000676e <__fp_nan>:
    676e:	9f ef       	ldi	r25, 0xFF	; 255
    6770:	80 ec       	ldi	r24, 0xC0	; 192
    6772:	08 95       	ret

00006774 <__fp_pscA>:
    6774:	00 24       	eor	r0, r0
    6776:	0a 94       	dec	r0
    6778:	16 16       	cp	r1, r22
    677a:	17 06       	cpc	r1, r23
    677c:	18 06       	cpc	r1, r24
    677e:	09 06       	cpc	r0, r25
    6780:	08 95       	ret

00006782 <__fp_pscB>:
    6782:	00 24       	eor	r0, r0
    6784:	0a 94       	dec	r0
    6786:	12 16       	cp	r1, r18
    6788:	13 06       	cpc	r1, r19
    678a:	14 06       	cpc	r1, r20
    678c:	05 06       	cpc	r0, r21
    678e:	08 95       	ret
    6790:	ee cf       	rjmp	.-36     	; 0x676e <__fp_nan>

00006792 <__fp_rempio2>:
    6792:	50 d0       	rcall	.+160    	; 0x6834 <__fp_splitA>
    6794:	e8 f3       	brcs	.-6      	; 0x6790 <__fp_pscB+0xe>
    6796:	e8 94       	clt
    6798:	e0 e0       	ldi	r30, 0x00	; 0
    679a:	bb 27       	eor	r27, r27
    679c:	9f 57       	subi	r25, 0x7F	; 127
    679e:	f0 f0       	brcs	.+60     	; 0x67dc <__fp_rempio2+0x4a>
    67a0:	2a ed       	ldi	r18, 0xDA	; 218
    67a2:	3f e0       	ldi	r19, 0x0F	; 15
    67a4:	49 ec       	ldi	r20, 0xC9	; 201
    67a6:	06 c0       	rjmp	.+12     	; 0x67b4 <__fp_rempio2+0x22>
    67a8:	ee 0f       	add	r30, r30
    67aa:	bb 0f       	add	r27, r27
    67ac:	66 1f       	adc	r22, r22
    67ae:	77 1f       	adc	r23, r23
    67b0:	88 1f       	adc	r24, r24
    67b2:	28 f0       	brcs	.+10     	; 0x67be <__fp_rempio2+0x2c>
    67b4:	b2 3a       	cpi	r27, 0xA2	; 162
    67b6:	62 07       	cpc	r22, r18
    67b8:	73 07       	cpc	r23, r19
    67ba:	84 07       	cpc	r24, r20
    67bc:	28 f0       	brcs	.+10     	; 0x67c8 <__fp_rempio2+0x36>
    67be:	b2 5a       	subi	r27, 0xA2	; 162
    67c0:	62 0b       	sbc	r22, r18
    67c2:	73 0b       	sbc	r23, r19
    67c4:	84 0b       	sbc	r24, r20
    67c6:	e3 95       	inc	r30
    67c8:	9a 95       	dec	r25
    67ca:	72 f7       	brpl	.-36     	; 0x67a8 <__fp_rempio2+0x16>
    67cc:	80 38       	cpi	r24, 0x80	; 128
    67ce:	30 f4       	brcc	.+12     	; 0x67dc <__fp_rempio2+0x4a>
    67d0:	9a 95       	dec	r25
    67d2:	bb 0f       	add	r27, r27
    67d4:	66 1f       	adc	r22, r22
    67d6:	77 1f       	adc	r23, r23
    67d8:	88 1f       	adc	r24, r24
    67da:	d2 f7       	brpl	.-12     	; 0x67d0 <__fp_rempio2+0x3e>
    67dc:	90 48       	sbci	r25, 0x80	; 128
    67de:	b6 c0       	rjmp	.+364    	; 0x694c <__fp_mpack_finite>

000067e0 <__fp_round>:
    67e0:	09 2e       	mov	r0, r25
    67e2:	03 94       	inc	r0
    67e4:	00 0c       	add	r0, r0
    67e6:	11 f4       	brne	.+4      	; 0x67ec <__fp_round+0xc>
    67e8:	88 23       	and	r24, r24
    67ea:	52 f0       	brmi	.+20     	; 0x6800 <__fp_round+0x20>
    67ec:	bb 0f       	add	r27, r27
    67ee:	40 f4       	brcc	.+16     	; 0x6800 <__fp_round+0x20>
    67f0:	bf 2b       	or	r27, r31
    67f2:	11 f4       	brne	.+4      	; 0x67f8 <__fp_round+0x18>
    67f4:	60 ff       	sbrs	r22, 0
    67f6:	04 c0       	rjmp	.+8      	; 0x6800 <__fp_round+0x20>
    67f8:	6f 5f       	subi	r22, 0xFF	; 255
    67fa:	7f 4f       	sbci	r23, 0xFF	; 255
    67fc:	8f 4f       	sbci	r24, 0xFF	; 255
    67fe:	9f 4f       	sbci	r25, 0xFF	; 255
    6800:	08 95       	ret

00006802 <__fp_sinus>:
    6802:	ef 93       	push	r30
    6804:	e0 ff       	sbrs	r30, 0
    6806:	06 c0       	rjmp	.+12     	; 0x6814 <__fp_sinus+0x12>
    6808:	a2 ea       	ldi	r26, 0xA2	; 162
    680a:	2a ed       	ldi	r18, 0xDA	; 218
    680c:	3f e0       	ldi	r19, 0x0F	; 15
    680e:	49 ec       	ldi	r20, 0xC9	; 201
    6810:	5f eb       	ldi	r21, 0xBF	; 191
    6812:	e3 de       	rcall	.-570    	; 0x65da <__addsf3x>
    6814:	e5 df       	rcall	.-54     	; 0x67e0 <__fp_round>
    6816:	0f 90       	pop	r0
    6818:	03 94       	inc	r0
    681a:	01 fc       	sbrc	r0, 1
    681c:	90 58       	subi	r25, 0x80	; 128
    681e:	ec e5       	ldi	r30, 0x5C	; 92
    6820:	f1 e0       	ldi	r31, 0x01	; 1
    6822:	a0 c0       	rjmp	.+320    	; 0x6964 <__fp_powsodd>

00006824 <__fp_split3>:
    6824:	57 fd       	sbrc	r21, 7
    6826:	90 58       	subi	r25, 0x80	; 128
    6828:	44 0f       	add	r20, r20
    682a:	55 1f       	adc	r21, r21
    682c:	59 f0       	breq	.+22     	; 0x6844 <__fp_splitA+0x10>
    682e:	5f 3f       	cpi	r21, 0xFF	; 255
    6830:	71 f0       	breq	.+28     	; 0x684e <__fp_splitA+0x1a>
    6832:	47 95       	ror	r20

00006834 <__fp_splitA>:
    6834:	88 0f       	add	r24, r24
    6836:	97 fb       	bst	r25, 7
    6838:	99 1f       	adc	r25, r25
    683a:	61 f0       	breq	.+24     	; 0x6854 <__fp_splitA+0x20>
    683c:	9f 3f       	cpi	r25, 0xFF	; 255
    683e:	79 f0       	breq	.+30     	; 0x685e <__fp_splitA+0x2a>
    6840:	87 95       	ror	r24
    6842:	08 95       	ret
    6844:	12 16       	cp	r1, r18
    6846:	13 06       	cpc	r1, r19
    6848:	14 06       	cpc	r1, r20
    684a:	55 1f       	adc	r21, r21
    684c:	f2 cf       	rjmp	.-28     	; 0x6832 <__fp_split3+0xe>
    684e:	46 95       	lsr	r20
    6850:	f1 df       	rcall	.-30     	; 0x6834 <__fp_splitA>
    6852:	08 c0       	rjmp	.+16     	; 0x6864 <__fp_splitA+0x30>
    6854:	16 16       	cp	r1, r22
    6856:	17 06       	cpc	r1, r23
    6858:	18 06       	cpc	r1, r24
    685a:	99 1f       	adc	r25, r25
    685c:	f1 cf       	rjmp	.-30     	; 0x6840 <__fp_splitA+0xc>
    685e:	86 95       	lsr	r24
    6860:	71 05       	cpc	r23, r1
    6862:	61 05       	cpc	r22, r1
    6864:	08 94       	sec
    6866:	08 95       	ret

00006868 <__fp_zero>:
    6868:	e8 94       	clt

0000686a <__fp_szero>:
    686a:	bb 27       	eor	r27, r27
    686c:	66 27       	eor	r22, r22
    686e:	77 27       	eor	r23, r23
    6870:	cb 01       	movw	r24, r22
    6872:	97 f9       	bld	r25, 7
    6874:	08 95       	ret

00006876 <__mulsf3>:
    6876:	0b d0       	rcall	.+22     	; 0x688e <__mulsf3x>
    6878:	b3 cf       	rjmp	.-154    	; 0x67e0 <__fp_round>
    687a:	7c df       	rcall	.-264    	; 0x6774 <__fp_pscA>
    687c:	28 f0       	brcs	.+10     	; 0x6888 <__mulsf3+0x12>
    687e:	81 df       	rcall	.-254    	; 0x6782 <__fp_pscB>
    6880:	18 f0       	brcs	.+6      	; 0x6888 <__mulsf3+0x12>
    6882:	95 23       	and	r25, r21
    6884:	09 f0       	breq	.+2      	; 0x6888 <__mulsf3+0x12>
    6886:	6d cf       	rjmp	.-294    	; 0x6762 <__fp_inf>
    6888:	72 cf       	rjmp	.-284    	; 0x676e <__fp_nan>
    688a:	11 24       	eor	r1, r1
    688c:	ee cf       	rjmp	.-36     	; 0x686a <__fp_szero>

0000688e <__mulsf3x>:
    688e:	ca df       	rcall	.-108    	; 0x6824 <__fp_split3>
    6890:	a0 f3       	brcs	.-24     	; 0x687a <__mulsf3+0x4>

00006892 <__mulsf3_pse>:
    6892:	95 9f       	mul	r25, r21
    6894:	d1 f3       	breq	.-12     	; 0x688a <__mulsf3+0x14>
    6896:	95 0f       	add	r25, r21
    6898:	50 e0       	ldi	r21, 0x00	; 0
    689a:	55 1f       	adc	r21, r21
    689c:	62 9f       	mul	r22, r18
    689e:	f0 01       	movw	r30, r0
    68a0:	72 9f       	mul	r23, r18
    68a2:	bb 27       	eor	r27, r27
    68a4:	f0 0d       	add	r31, r0
    68a6:	b1 1d       	adc	r27, r1
    68a8:	63 9f       	mul	r22, r19
    68aa:	aa 27       	eor	r26, r26
    68ac:	f0 0d       	add	r31, r0
    68ae:	b1 1d       	adc	r27, r1
    68b0:	aa 1f       	adc	r26, r26
    68b2:	64 9f       	mul	r22, r20
    68b4:	66 27       	eor	r22, r22
    68b6:	b0 0d       	add	r27, r0
    68b8:	a1 1d       	adc	r26, r1
    68ba:	66 1f       	adc	r22, r22
    68bc:	82 9f       	mul	r24, r18
    68be:	22 27       	eor	r18, r18
    68c0:	b0 0d       	add	r27, r0
    68c2:	a1 1d       	adc	r26, r1
    68c4:	62 1f       	adc	r22, r18
    68c6:	73 9f       	mul	r23, r19
    68c8:	b0 0d       	add	r27, r0
    68ca:	a1 1d       	adc	r26, r1
    68cc:	62 1f       	adc	r22, r18
    68ce:	83 9f       	mul	r24, r19
    68d0:	a0 0d       	add	r26, r0
    68d2:	61 1d       	adc	r22, r1
    68d4:	22 1f       	adc	r18, r18
    68d6:	74 9f       	mul	r23, r20
    68d8:	33 27       	eor	r19, r19
    68da:	a0 0d       	add	r26, r0
    68dc:	61 1d       	adc	r22, r1
    68de:	23 1f       	adc	r18, r19
    68e0:	84 9f       	mul	r24, r20
    68e2:	60 0d       	add	r22, r0
    68e4:	21 1d       	adc	r18, r1
    68e6:	82 2f       	mov	r24, r18
    68e8:	76 2f       	mov	r23, r22
    68ea:	6a 2f       	mov	r22, r26
    68ec:	11 24       	eor	r1, r1
    68ee:	9f 57       	subi	r25, 0x7F	; 127
    68f0:	50 40       	sbci	r21, 0x00	; 0
    68f2:	8a f0       	brmi	.+34     	; 0x6916 <__mulsf3_pse+0x84>
    68f4:	e1 f0       	breq	.+56     	; 0x692e <__mulsf3_pse+0x9c>
    68f6:	88 23       	and	r24, r24
    68f8:	4a f0       	brmi	.+18     	; 0x690c <__mulsf3_pse+0x7a>
    68fa:	ee 0f       	add	r30, r30
    68fc:	ff 1f       	adc	r31, r31
    68fe:	bb 1f       	adc	r27, r27
    6900:	66 1f       	adc	r22, r22
    6902:	77 1f       	adc	r23, r23
    6904:	88 1f       	adc	r24, r24
    6906:	91 50       	subi	r25, 0x01	; 1
    6908:	50 40       	sbci	r21, 0x00	; 0
    690a:	a9 f7       	brne	.-22     	; 0x68f6 <__mulsf3_pse+0x64>
    690c:	9e 3f       	cpi	r25, 0xFE	; 254
    690e:	51 05       	cpc	r21, r1
    6910:	70 f0       	brcs	.+28     	; 0x692e <__mulsf3_pse+0x9c>
    6912:	27 cf       	rjmp	.-434    	; 0x6762 <__fp_inf>
    6914:	aa cf       	rjmp	.-172    	; 0x686a <__fp_szero>
    6916:	5f 3f       	cpi	r21, 0xFF	; 255
    6918:	ec f3       	brlt	.-6      	; 0x6914 <__mulsf3_pse+0x82>
    691a:	98 3e       	cpi	r25, 0xE8	; 232
    691c:	dc f3       	brlt	.-10     	; 0x6914 <__mulsf3_pse+0x82>
    691e:	86 95       	lsr	r24
    6920:	77 95       	ror	r23
    6922:	67 95       	ror	r22
    6924:	b7 95       	ror	r27
    6926:	f7 95       	ror	r31
    6928:	e7 95       	ror	r30
    692a:	9f 5f       	subi	r25, 0xFF	; 255
    692c:	c1 f7       	brne	.-16     	; 0x691e <__mulsf3_pse+0x8c>
    692e:	fe 2b       	or	r31, r30
    6930:	88 0f       	add	r24, r24
    6932:	91 1d       	adc	r25, r1
    6934:	96 95       	lsr	r25
    6936:	87 95       	ror	r24
    6938:	97 f9       	bld	r25, 7
    693a:	08 95       	ret

0000693c <sin>:
    693c:	9f 93       	push	r25
    693e:	29 df       	rcall	.-430    	; 0x6792 <__fp_rempio2>
    6940:	0f 90       	pop	r0
    6942:	07 fc       	sbrc	r0, 7
    6944:	ee 5f       	subi	r30, 0xFE	; 254
    6946:	5d cf       	rjmp	.-326    	; 0x6802 <__fp_sinus>

00006948 <__fp_mpack>:
    6948:	9f 3f       	cpi	r25, 0xFF	; 255
    694a:	31 f0       	breq	.+12     	; 0x6958 <__fp_mpack_finite+0xc>

0000694c <__fp_mpack_finite>:
    694c:	91 50       	subi	r25, 0x01	; 1
    694e:	20 f4       	brcc	.+8      	; 0x6958 <__fp_mpack_finite+0xc>
    6950:	87 95       	ror	r24
    6952:	77 95       	ror	r23
    6954:	67 95       	ror	r22
    6956:	b7 95       	ror	r27
    6958:	88 0f       	add	r24, r24
    695a:	91 1d       	adc	r25, r1
    695c:	96 95       	lsr	r25
    695e:	87 95       	ror	r24
    6960:	97 f9       	bld	r25, 7
    6962:	08 95       	ret

00006964 <__fp_powsodd>:
    6964:	9f 93       	push	r25
    6966:	8f 93       	push	r24
    6968:	7f 93       	push	r23
    696a:	6f 93       	push	r22
    696c:	ff 93       	push	r31
    696e:	ef 93       	push	r30
    6970:	9b 01       	movw	r18, r22
    6972:	ac 01       	movw	r20, r24
    6974:	80 df       	rcall	.-256    	; 0x6876 <__mulsf3>
    6976:	ef 91       	pop	r30
    6978:	ff 91       	pop	r31
    697a:	05 d0       	rcall	.+10     	; 0x6986 <__fp_powser>
    697c:	2f 91       	pop	r18
    697e:	3f 91       	pop	r19
    6980:	4f 91       	pop	r20
    6982:	5f 91       	pop	r21
    6984:	78 cf       	rjmp	.-272    	; 0x6876 <__mulsf3>

00006986 <__fp_powser>:
    6986:	df 93       	push	r29
    6988:	cf 93       	push	r28
    698a:	1f 93       	push	r17
    698c:	0f 93       	push	r16
    698e:	ff 92       	push	r15
    6990:	ef 92       	push	r14
    6992:	df 92       	push	r13
    6994:	7b 01       	movw	r14, r22
    6996:	8c 01       	movw	r16, r24
    6998:	68 94       	set
    699a:	05 c0       	rjmp	.+10     	; 0x69a6 <__fp_powser+0x20>
    699c:	da 2e       	mov	r13, r26
    699e:	ef 01       	movw	r28, r30
    69a0:	76 df       	rcall	.-276    	; 0x688e <__mulsf3x>
    69a2:	fe 01       	movw	r30, r28
    69a4:	e8 94       	clt
    69a6:	a5 91       	lpm	r26, Z+
    69a8:	25 91       	lpm	r18, Z+
    69aa:	35 91       	lpm	r19, Z+
    69ac:	45 91       	lpm	r20, Z+
    69ae:	55 91       	lpm	r21, Z+
    69b0:	ae f3       	brts	.-22     	; 0x699c <__fp_powser+0x16>
    69b2:	ef 01       	movw	r28, r30
    69b4:	12 de       	rcall	.-988    	; 0x65da <__addsf3x>
    69b6:	fe 01       	movw	r30, r28
    69b8:	97 01       	movw	r18, r14
    69ba:	a8 01       	movw	r20, r16
    69bc:	da 94       	dec	r13
    69be:	79 f7       	brne	.-34     	; 0x699e <__fp_powser+0x18>
    69c0:	df 90       	pop	r13
    69c2:	ef 90       	pop	r14
    69c4:	ff 90       	pop	r15
    69c6:	0f 91       	pop	r16
    69c8:	1f 91       	pop	r17
    69ca:	cf 91       	pop	r28
    69cc:	df 91       	pop	r29
    69ce:	08 95       	ret

000069d0 <__vector_25>:
#elif defined(USART_RXC_vect)
  ISR(USART_RXC_vect) // ATmega8
#else
  #error "Don't know what the Data Received vector is called for Serial"
#endif
  {
    69d0:	1f 92       	push	r1
    69d2:	0f 92       	push	r0
    69d4:	0f b6       	in	r0, 0x3f	; 63
    69d6:	0f 92       	push	r0
    69d8:	11 24       	eor	r1, r1
    69da:	0b b6       	in	r0, 0x3b	; 59
    69dc:	0f 92       	push	r0
    69de:	2f 93       	push	r18
    69e0:	8f 93       	push	r24
    69e2:	9f 93       	push	r25
    69e4:	ef 93       	push	r30
    69e6:	ff 93       	push	r31

// Actual interrupt handlers //////////////////////////////////////////////////////////////

void HardwareSerial::_rx_complete_irq(void)
{
  if (bit_is_clear(*_ucsra, UPE0)) {
    69e8:	e0 91 a8 06 	lds	r30, 0x06A8	; 0x8006a8 <Serial+0x10>
    69ec:	f0 91 a9 06 	lds	r31, 0x06A9	; 0x8006a9 <Serial+0x11>
    69f0:	80 81       	ld	r24, Z
    69f2:	e0 91 ae 06 	lds	r30, 0x06AE	; 0x8006ae <Serial+0x16>
    69f6:	f0 91 af 06 	lds	r31, 0x06AF	; 0x8006af <Serial+0x17>
    69fa:	82 fd       	sbrc	r24, 2
    69fc:	12 c0       	rjmp	.+36     	; 0x6a22 <__vector_25+0x52>
    // No Parity error, read byte and store it in the buffer if there is
    // room
    unsigned char c = *_udr;
    69fe:	90 81       	ld	r25, Z
    rx_buffer_index_t i = (unsigned int)(_rx_buffer_head + 1) % SERIAL_RX_BUFFER_SIZE;
    6a00:	80 91 b1 06 	lds	r24, 0x06B1	; 0x8006b1 <Serial+0x19>
    6a04:	8f 5f       	subi	r24, 0xFF	; 255
    6a06:	8f 73       	andi	r24, 0x3F	; 63

    // if we should be storing the received character into the location
    // just before the tail (meaning that the head would advance to the
    // current location of the tail), we're about to overflow the buffer
    // and so we don't write the character or advance the head.
    if (i != _rx_buffer_tail) {
    6a08:	20 91 b2 06 	lds	r18, 0x06B2	; 0x8006b2 <Serial+0x1a>
    6a0c:	82 17       	cp	r24, r18
    6a0e:	51 f0       	breq	.+20     	; 0x6a24 <__vector_25+0x54>
      _rx_buffer[_rx_buffer_head] = c;
    6a10:	e0 91 b1 06 	lds	r30, 0x06B1	; 0x8006b1 <Serial+0x19>
    6a14:	f0 e0       	ldi	r31, 0x00	; 0
    6a16:	e8 56       	subi	r30, 0x68	; 104
    6a18:	f9 4f       	sbci	r31, 0xF9	; 249
    6a1a:	95 8f       	std	Z+29, r25	; 0x1d
      _rx_buffer_head = i;
    6a1c:	80 93 b1 06 	sts	0x06B1, r24	; 0x8006b1 <Serial+0x19>
    6a20:	01 c0       	rjmp	.+2      	; 0x6a24 <__vector_25+0x54>
    }
  } else {
    // Parity error, read byte but discard it
    *_udr;
    6a22:	80 81       	ld	r24, Z
    Serial._rx_complete_irq();
  }
    6a24:	ff 91       	pop	r31
    6a26:	ef 91       	pop	r30
    6a28:	9f 91       	pop	r25
    6a2a:	8f 91       	pop	r24
    6a2c:	2f 91       	pop	r18
    6a2e:	0f 90       	pop	r0
    6a30:	0b be       	out	0x3b, r0	; 59
    6a32:	0f 90       	pop	r0
    6a34:	0f be       	out	0x3f, r0	; 63
    6a36:	0f 90       	pop	r0
    6a38:	1f 90       	pop	r1
    6a3a:	18 95       	reti

00006a3c <__vector_26>:
#elif defined(USART_UDRE_vect)
ISR(USART_UDRE_vect)
#else
  #error "Don't know what the Data Register Empty vector is called for Serial"
#endif
{
    6a3c:	1f 92       	push	r1
    6a3e:	0f 92       	push	r0
    6a40:	0f b6       	in	r0, 0x3f	; 63
    6a42:	0f 92       	push	r0
    6a44:	11 24       	eor	r1, r1
    6a46:	0b b6       	in	r0, 0x3b	; 59
    6a48:	0f 92       	push	r0
    6a4a:	2f 93       	push	r18
    6a4c:	3f 93       	push	r19
    6a4e:	4f 93       	push	r20
    6a50:	5f 93       	push	r21
    6a52:	6f 93       	push	r22
    6a54:	7f 93       	push	r23
    6a56:	8f 93       	push	r24
    6a58:	9f 93       	push	r25
    6a5a:	af 93       	push	r26
    6a5c:	bf 93       	push	r27
    6a5e:	ef 93       	push	r30
    6a60:	ff 93       	push	r31
  Serial._tx_udr_empty_irq();
    6a62:	88 e9       	ldi	r24, 0x98	; 152
    6a64:	96 e0       	ldi	r25, 0x06	; 6
    6a66:	24 d4       	rcall	.+2120   	; 0x72b0 <_ZN14HardwareSerial17_tx_udr_empty_irqEv>
}
    6a68:	ff 91       	pop	r31
    6a6a:	ef 91       	pop	r30
    6a6c:	bf 91       	pop	r27
    6a6e:	af 91       	pop	r26
    6a70:	9f 91       	pop	r25
    6a72:	8f 91       	pop	r24
    6a74:	7f 91       	pop	r23
    6a76:	6f 91       	pop	r22
    6a78:	5f 91       	pop	r21
    6a7a:	4f 91       	pop	r20
    6a7c:	3f 91       	pop	r19
    6a7e:	2f 91       	pop	r18
    6a80:	0f 90       	pop	r0
    6a82:	0b be       	out	0x3b, r0	; 59
    6a84:	0f 90       	pop	r0
    6a86:	0f be       	out	0x3f, r0	; 63
    6a88:	0f 90       	pop	r0
    6a8a:	1f 90       	pop	r1
    6a8c:	18 95       	reti

00006a8e <_Z17Serial0_availablev>:
#endif

// Function that can be weakly referenced by serialEventRun to prevent
// pulling in this file if it's not otherwise used.
bool Serial0_available() {
  return Serial.available();
    6a8e:	88 e9       	ldi	r24, 0x98	; 152
    6a90:	96 e0       	ldi	r25, 0x06	; 6
    6a92:	a4 d3       	rcall	.+1864   	; 0x71dc <_ZN14HardwareSerial9availableEv>
    6a94:	21 e0       	ldi	r18, 0x01	; 1
    6a96:	89 2b       	or	r24, r25
    6a98:	09 f4       	brne	.+2      	; 0x6a9c <_Z17Serial0_availablev+0xe>
    6a9a:	20 e0       	ldi	r18, 0x00	; 0
}
    6a9c:	82 2f       	mov	r24, r18
    6a9e:	08 95       	ret

00006aa0 <_GLOBAL__sub_I___vector_25>:
    size_t printNumber(unsigned long, uint8_t);
    size_t printFloat(double, uint8_t);
  protected:
    void setWriteError(int err = 1) { write_error = err; }
  public:
    Print() : write_error(0) {}
    6aa0:	e8 e9       	ldi	r30, 0x98	; 152
    6aa2:	f6 e0       	ldi	r31, 0x06	; 6
    6aa4:	13 82       	std	Z+3, r1	; 0x03
    6aa6:	12 82       	std	Z+2, r1	; 0x02
    virtual int available() = 0;
    virtual int read() = 0;
    virtual int peek() = 0;
    virtual void flush() = 0;

    Stream() {_timeout=1000;}
    6aa8:	88 ee       	ldi	r24, 0xE8	; 232
    6aaa:	93 e0       	ldi	r25, 0x03	; 3
    6aac:	a0 e0       	ldi	r26, 0x00	; 0
    6aae:	b0 e0       	ldi	r27, 0x00	; 0
    6ab0:	84 83       	std	Z+4, r24	; 0x04
    6ab2:	95 83       	std	Z+5, r25	; 0x05
    6ab4:	a6 83       	std	Z+6, r26	; 0x06
    6ab6:	b7 83       	std	Z+7, r27	; 0x07
  volatile uint8_t *ucsrc, volatile uint8_t *udr) :
    _ubrrh(ubrrh), _ubrrl(ubrrl),
    _ucsra(ucsra), _ucsrb(ucsrb), _ucsrc(ucsrc),
    _udr(udr),
    _rx_buffer_head(0), _rx_buffer_tail(0),
    _tx_buffer_head(0), _tx_buffer_tail(0)
    6ab8:	89 e1       	ldi	r24, 0x19	; 25
    6aba:	93 e0       	ldi	r25, 0x03	; 3
    6abc:	91 83       	std	Z+1, r25	; 0x01
    6abe:	80 83       	st	Z, r24
    6ac0:	85 ec       	ldi	r24, 0xC5	; 197
    6ac2:	90 e0       	ldi	r25, 0x00	; 0
    6ac4:	95 87       	std	Z+13, r25	; 0x0d
    6ac6:	84 87       	std	Z+12, r24	; 0x0c
    6ac8:	84 ec       	ldi	r24, 0xC4	; 196
    6aca:	90 e0       	ldi	r25, 0x00	; 0
    6acc:	97 87       	std	Z+15, r25	; 0x0f
    6ace:	86 87       	std	Z+14, r24	; 0x0e
    6ad0:	80 ec       	ldi	r24, 0xC0	; 192
    6ad2:	90 e0       	ldi	r25, 0x00	; 0
    6ad4:	91 8b       	std	Z+17, r25	; 0x11
    6ad6:	80 8b       	std	Z+16, r24	; 0x10
    6ad8:	81 ec       	ldi	r24, 0xC1	; 193
    6ada:	90 e0       	ldi	r25, 0x00	; 0
    6adc:	93 8b       	std	Z+19, r25	; 0x13
    6ade:	82 8b       	std	Z+18, r24	; 0x12
    6ae0:	82 ec       	ldi	r24, 0xC2	; 194
    6ae2:	90 e0       	ldi	r25, 0x00	; 0
    6ae4:	95 8b       	std	Z+21, r25	; 0x15
    6ae6:	84 8b       	std	Z+20, r24	; 0x14
    6ae8:	86 ec       	ldi	r24, 0xC6	; 198
    6aea:	90 e0       	ldi	r25, 0x00	; 0
    6aec:	97 8b       	std	Z+23, r25	; 0x17
    6aee:	86 8b       	std	Z+22, r24	; 0x16
    6af0:	11 8e       	std	Z+25, r1	; 0x19
    6af2:	12 8e       	std	Z+26, r1	; 0x1a
    6af4:	13 8e       	std	Z+27, r1	; 0x1b
    6af6:	14 8e       	std	Z+28, r1	; 0x1c
    6af8:	08 95       	ret

00006afa <initVariant>:
    6afa:	08 95       	ret

00006afc <main>:
void setupUSB() __attribute__((weak));
void setupUSB() { }

int main(void)
{
	init();
    6afc:	60 d1       	rcall	.+704    	; 0x6dbe <init>

	initVariant();
    6afe:	fd df       	rcall	.-6      	; 0x6afa <initVariant>
    6b00:	0e 94 c9 09 	call	0x1392	; 0x1392 <setup>

#if defined(USBCON)
	USBDevice.attach();
#endif
	
	setup();
    6b04:	cc e1       	ldi	r28, 0x1C	; 28
    
	for (;;) {
		loop();
		if (serialEventRun) serialEventRun();
    6b06:	d9 e3       	ldi	r29, 0x39	; 57
    6b08:	0e 94 d5 09 	call	0x13aa	; 0x13aa <loop>
#endif
	
	setup();
    
	for (;;) {
		loop();
    6b0c:	20 97       	sbiw	r28, 0x00	; 0
		if (serialEventRun) serialEventRun();
    6b0e:	e1 f3       	breq	.-8      	; 0x6b08 <main+0xc>
    6b10:	93 d3       	rcall	.+1830   	; 0x7238 <_Z14serialEventRunv>
    6b12:	fa cf       	rjmp	.-12     	; 0x6b08 <main+0xc>

00006b14 <_Znwj>:
    6b14:	d8 c4       	rjmp	.+2480   	; 0x74c6 <malloc>

00006b16 <_ZN5Print5writeEPKhj>:
size_t Print::println(const Printable& x)
{
  size_t n = print(x);
  n += println();
  return n;
}
    6b16:	cf 92       	push	r12
    6b18:	df 92       	push	r13
    6b1a:	ef 92       	push	r14
    6b1c:	ff 92       	push	r15
    6b1e:	0f 93       	push	r16
    6b20:	1f 93       	push	r17
    6b22:	cf 93       	push	r28
    6b24:	df 93       	push	r29
    6b26:	6c 01       	movw	r12, r24
    6b28:	7a 01       	movw	r14, r20
    6b2a:	8b 01       	movw	r16, r22
    6b2c:	c0 e0       	ldi	r28, 0x00	; 0
    6b2e:	d0 e0       	ldi	r29, 0x00	; 0
    6b30:	ce 15       	cp	r28, r14
    6b32:	df 05       	cpc	r29, r15
    6b34:	81 f0       	breq	.+32     	; 0x6b56 <_ZN5Print5writeEPKhj+0x40>
    6b36:	d8 01       	movw	r26, r16
    6b38:	6d 91       	ld	r22, X+
    6b3a:	8d 01       	movw	r16, r26
    6b3c:	d6 01       	movw	r26, r12
    6b3e:	ed 91       	ld	r30, X+
    6b40:	fc 91       	ld	r31, X
    6b42:	01 90       	ld	r0, Z+
    6b44:	f0 81       	ld	r31, Z
    6b46:	e0 2d       	mov	r30, r0
    6b48:	c6 01       	movw	r24, r12
    6b4a:	19 95       	eicall
    6b4c:	89 2b       	or	r24, r25
    6b4e:	11 f0       	breq	.+4      	; 0x6b54 <_ZN5Print5writeEPKhj+0x3e>
    6b50:	21 96       	adiw	r28, 0x01	; 1
    6b52:	ee cf       	rjmp	.-36     	; 0x6b30 <_ZN5Print5writeEPKhj+0x1a>
    6b54:	7e 01       	movw	r14, r28
    6b56:	c7 01       	movw	r24, r14
    6b58:	df 91       	pop	r29
    6b5a:	cf 91       	pop	r28
    6b5c:	1f 91       	pop	r17
    6b5e:	0f 91       	pop	r16
    6b60:	ff 90       	pop	r15
    6b62:	ef 90       	pop	r14
    6b64:	df 90       	pop	r13
    6b66:	cf 90       	pop	r12
    6b68:	08 95       	ret

00006b6a <_ZN5Print5writeEPKc>:
    6b6a:	61 15       	cp	r22, r1
    6b6c:	71 05       	cpc	r23, r1
    6b6e:	79 f0       	breq	.+30     	; 0x6b8e <_ZN5Print5writeEPKc+0x24>
    6b70:	fb 01       	movw	r30, r22
    6b72:	01 90       	ld	r0, Z+
    6b74:	00 20       	and	r0, r0
    6b76:	e9 f7       	brne	.-6      	; 0x6b72 <_ZN5Print5writeEPKc+0x8>
    6b78:	31 97       	sbiw	r30, 0x01	; 1
    6b7a:	af 01       	movw	r20, r30
    6b7c:	46 1b       	sub	r20, r22
    6b7e:	57 0b       	sbc	r21, r23
    6b80:	dc 01       	movw	r26, r24
    6b82:	ed 91       	ld	r30, X+
    6b84:	fc 91       	ld	r31, X
    6b86:	02 80       	ldd	r0, Z+2	; 0x02
    6b88:	f3 81       	ldd	r31, Z+3	; 0x03
    6b8a:	e0 2d       	mov	r30, r0
    6b8c:	19 94       	eijmp
    6b8e:	80 e0       	ldi	r24, 0x00	; 0
    6b90:	90 e0       	ldi	r25, 0x00	; 0
    6b92:	08 95       	ret

00006b94 <_ZN5Print5printEPKc>:
    6b94:	ea cf       	rjmp	.-44     	; 0x6b6a <_ZN5Print5writeEPKc>

00006b96 <_ZN5Print7printlnEv>:
    6b96:	66 e0       	ldi	r22, 0x06	; 6
    6b98:	73 e0       	ldi	r23, 0x03	; 3
    6b9a:	e7 cf       	rjmp	.-50     	; 0x6b6a <_ZN5Print5writeEPKc>

00006b9c <_ZN5Print11printNumberEmh>:

// Private Methods /////////////////////////////////////////////////////////////

size_t Print::printNumber(unsigned long n, uint8_t base)
{
    6b9c:	8f 92       	push	r8
    6b9e:	9f 92       	push	r9
    6ba0:	af 92       	push	r10
    6ba2:	bf 92       	push	r11
    6ba4:	ef 92       	push	r14
    6ba6:	ff 92       	push	r15
    6ba8:	0f 93       	push	r16
    6baa:	1f 93       	push	r17
    6bac:	cf 93       	push	r28
    6bae:	df 93       	push	r29
    6bb0:	cd b7       	in	r28, 0x3d	; 61
    6bb2:	de b7       	in	r29, 0x3e	; 62
    6bb4:	a1 97       	sbiw	r28, 0x21	; 33
    6bb6:	0f b6       	in	r0, 0x3f	; 63
    6bb8:	f8 94       	cli
    6bba:	de bf       	out	0x3e, r29	; 62
    6bbc:	0f be       	out	0x3f, r0	; 63
    6bbe:	cd bf       	out	0x3d, r28	; 61
    6bc0:	7c 01       	movw	r14, r24
    6bc2:	fa 01       	movw	r30, r20
    6bc4:	cb 01       	movw	r24, r22
  char buf[8 * sizeof(long) + 1]; // Assumes 8-bit chars plus zero byte.
  char *str = &buf[sizeof(buf) - 1];

  *str = '\0';
    6bc6:	19 a2       	std	Y+33, r1	; 0x21

  // prevent crash if called with base == 1
  if (base < 2) base = 10;
    6bc8:	22 30       	cpi	r18, 0x02	; 2
    6bca:	08 f4       	brcc	.+2      	; 0x6bce <_ZN5Print11printNumberEmh+0x32>
    6bcc:	2a e0       	ldi	r18, 0x0A	; 10
    6bce:	8e 01       	movw	r16, r28
    6bd0:	0f 5d       	subi	r16, 0xDF	; 223
    6bd2:	1f 4f       	sbci	r17, 0xFF	; 255

  do {
    char c = n % base;
    6bd4:	82 2e       	mov	r8, r18
    6bd6:	91 2c       	mov	r9, r1
    6bd8:	a1 2c       	mov	r10, r1
    6bda:	b1 2c       	mov	r11, r1
    6bdc:	bf 01       	movw	r22, r30
    6bde:	a5 01       	movw	r20, r10
    6be0:	94 01       	movw	r18, r8
    6be2:	12 d4       	rcall	.+2084   	; 0x7408 <__udivmodsi4>
    n /= base;
    6be4:	f9 01       	movw	r30, r18
    6be6:	ca 01       	movw	r24, r20

    *--str = c < 10 ? c + '0' : c + 'A' - 10;
    6be8:	01 50       	subi	r16, 0x01	; 1
    6bea:	11 09       	sbc	r17, r1
    6bec:	6a 30       	cpi	r22, 0x0A	; 10
    6bee:	10 f4       	brcc	.+4      	; 0x6bf4 <_ZN5Print11printNumberEmh+0x58>
    6bf0:	60 5d       	subi	r22, 0xD0	; 208
    6bf2:	01 c0       	rjmp	.+2      	; 0x6bf6 <_ZN5Print11printNumberEmh+0x5a>
    6bf4:	69 5c       	subi	r22, 0xC9	; 201
    6bf6:	d8 01       	movw	r26, r16
    6bf8:	6c 93       	st	X, r22
  *str = '\0';

  // prevent crash if called with base == 1
  if (base < 2) base = 10;

  do {
    6bfa:	23 2b       	or	r18, r19
    6bfc:	24 2b       	or	r18, r20
    6bfe:	25 2b       	or	r18, r21
    6c00:	69 f7       	brne	.-38     	; 0x6bdc <_ZN5Print11printNumberEmh+0x40>
    n /= base;

    *--str = c < 10 ? c + '0' : c + 'A' - 10;
  } while(n);

  return write(str);
    6c02:	b8 01       	movw	r22, r16
    6c04:	c7 01       	movw	r24, r14
    6c06:	b1 df       	rcall	.-158    	; 0x6b6a <_ZN5Print5writeEPKc>
}
    6c08:	a1 96       	adiw	r28, 0x21	; 33
    6c0a:	0f b6       	in	r0, 0x3f	; 63
    6c0c:	f8 94       	cli
    6c0e:	de bf       	out	0x3e, r29	; 62
    6c10:	0f be       	out	0x3f, r0	; 63
    6c12:	cd bf       	out	0x3d, r28	; 61
    6c14:	df 91       	pop	r29
    6c16:	cf 91       	pop	r28
    6c18:	1f 91       	pop	r17
    6c1a:	0f 91       	pop	r16
    6c1c:	ff 90       	pop	r15
    6c1e:	ef 90       	pop	r14
    6c20:	bf 90       	pop	r11
    6c22:	af 90       	pop	r10
    6c24:	9f 90       	pop	r9
    6c26:	8f 90       	pop	r8
    6c28:	08 95       	ret

00006c2a <_ZN5Print5printEmi>:
  }
}

size_t Print::print(unsigned long n, int base)
{
  if (base == 0) return write(n);
    6c2a:	21 15       	cp	r18, r1
    6c2c:	31 05       	cpc	r19, r1
    6c2e:	41 f4       	brne	.+16     	; 0x6c40 <_ZN5Print5printEmi+0x16>
    6c30:	dc 01       	movw	r26, r24
    6c32:	ed 91       	ld	r30, X+
    6c34:	fc 91       	ld	r31, X
    6c36:	01 90       	ld	r0, Z+
    6c38:	f0 81       	ld	r31, Z
    6c3a:	e0 2d       	mov	r30, r0
    6c3c:	64 2f       	mov	r22, r20
    6c3e:	19 94       	eijmp
  else return printNumber(n, base);
    6c40:	ad cf       	rjmp	.-166    	; 0x6b9c <_ZN5Print11printNumberEmh>

00006c42 <_ZN5Print5printEhi>:
{
  return write(c);
}

size_t Print::print(unsigned char b, int base)
{
    6c42:	9a 01       	movw	r18, r20
  return print((unsigned long) b, base);
    6c44:	46 2f       	mov	r20, r22
    6c46:	50 e0       	ldi	r21, 0x00	; 0
    6c48:	60 e0       	ldi	r22, 0x00	; 0
    6c4a:	70 e0       	ldi	r23, 0x00	; 0
    6c4c:	ee cf       	rjmp	.-36     	; 0x6c2a <_ZN5Print5printEmi>

00006c4e <_ZN5Print7printlnEhi>:
  n += println();
  return n;
}

size_t Print::println(unsigned char b, int base)
{
    6c4e:	0f 93       	push	r16
    6c50:	1f 93       	push	r17
    6c52:	cf 93       	push	r28
    6c54:	df 93       	push	r29
    6c56:	ec 01       	movw	r28, r24
  size_t n = print(b, base);
    6c58:	f4 df       	rcall	.-24     	; 0x6c42 <_ZN5Print5printEhi>
    6c5a:	8c 01       	movw	r16, r24
  n += println();
    6c5c:	ce 01       	movw	r24, r28
    6c5e:	9b df       	rcall	.-202    	; 0x6b96 <_ZN5Print7printlnEv>
  return n;
}
    6c60:	80 0f       	add	r24, r16
    6c62:	91 1f       	adc	r25, r17
    6c64:	df 91       	pop	r29
    6c66:	cf 91       	pop	r28
    6c68:	1f 91       	pop	r17
    6c6a:	0f 91       	pop	r16
    6c6c:	08 95       	ret

00006c6e <__vector_23>:
	

#endif

	// busy wait
	__asm__ __volatile__ (
    6c6e:	1f 92       	push	r1
    6c70:	0f 92       	push	r0
    6c72:	0f b6       	in	r0, 0x3f	; 63
    6c74:	0f 92       	push	r0
    6c76:	11 24       	eor	r1, r1
    6c78:	2f 93       	push	r18
    6c7a:	3f 93       	push	r19
    6c7c:	8f 93       	push	r24
    6c7e:	9f 93       	push	r25
    6c80:	af 93       	push	r26
    6c82:	bf 93       	push	r27
    6c84:	80 91 36 07 	lds	r24, 0x0736	; 0x800736 <timer0_millis>
    6c88:	90 91 37 07 	lds	r25, 0x0737	; 0x800737 <timer0_millis+0x1>
    6c8c:	a0 91 38 07 	lds	r26, 0x0738	; 0x800738 <timer0_millis+0x2>
    6c90:	b0 91 39 07 	lds	r27, 0x0739	; 0x800739 <timer0_millis+0x3>
    6c94:	30 91 35 07 	lds	r19, 0x0735	; 0x800735 <timer0_fract>
    6c98:	23 e0       	ldi	r18, 0x03	; 3
    6c9a:	23 0f       	add	r18, r19
    6c9c:	2d 37       	cpi	r18, 0x7D	; 125
    6c9e:	20 f4       	brcc	.+8      	; 0x6ca8 <__vector_23+0x3a>
    6ca0:	01 96       	adiw	r24, 0x01	; 1
    6ca2:	a1 1d       	adc	r26, r1
    6ca4:	b1 1d       	adc	r27, r1
    6ca6:	05 c0       	rjmp	.+10     	; 0x6cb2 <__vector_23+0x44>
    6ca8:	26 e8       	ldi	r18, 0x86	; 134
    6caa:	23 0f       	add	r18, r19
    6cac:	02 96       	adiw	r24, 0x02	; 2
    6cae:	a1 1d       	adc	r26, r1
    6cb0:	b1 1d       	adc	r27, r1
    6cb2:	20 93 35 07 	sts	0x0735, r18	; 0x800735 <timer0_fract>
    6cb6:	80 93 36 07 	sts	0x0736, r24	; 0x800736 <timer0_millis>
    6cba:	90 93 37 07 	sts	0x0737, r25	; 0x800737 <timer0_millis+0x1>
    6cbe:	a0 93 38 07 	sts	0x0738, r26	; 0x800738 <timer0_millis+0x2>
    6cc2:	b0 93 39 07 	sts	0x0739, r27	; 0x800739 <timer0_millis+0x3>
    6cc6:	80 91 3a 07 	lds	r24, 0x073A	; 0x80073a <timer0_overflow_count>
    6cca:	90 91 3b 07 	lds	r25, 0x073B	; 0x80073b <timer0_overflow_count+0x1>
    6cce:	a0 91 3c 07 	lds	r26, 0x073C	; 0x80073c <timer0_overflow_count+0x2>
    6cd2:	b0 91 3d 07 	lds	r27, 0x073D	; 0x80073d <timer0_overflow_count+0x3>
    6cd6:	01 96       	adiw	r24, 0x01	; 1
    6cd8:	a1 1d       	adc	r26, r1
    6cda:	b1 1d       	adc	r27, r1
    6cdc:	80 93 3a 07 	sts	0x073A, r24	; 0x80073a <timer0_overflow_count>
    6ce0:	90 93 3b 07 	sts	0x073B, r25	; 0x80073b <timer0_overflow_count+0x1>
    6ce4:	a0 93 3c 07 	sts	0x073C, r26	; 0x80073c <timer0_overflow_count+0x2>
    6ce8:	b0 93 3d 07 	sts	0x073D, r27	; 0x80073d <timer0_overflow_count+0x3>
    6cec:	bf 91       	pop	r27
    6cee:	af 91       	pop	r26
    6cf0:	9f 91       	pop	r25
    6cf2:	8f 91       	pop	r24
    6cf4:	3f 91       	pop	r19
    6cf6:	2f 91       	pop	r18
    6cf8:	0f 90       	pop	r0
    6cfa:	0f be       	out	0x3f, r0	; 63
    6cfc:	0f 90       	pop	r0
    6cfe:	1f 90       	pop	r1
    6d00:	18 95       	reti

00006d02 <micros>:
    6d02:	3f b7       	in	r19, 0x3f	; 63
    6d04:	f8 94       	cli
    6d06:	80 91 3a 07 	lds	r24, 0x073A	; 0x80073a <timer0_overflow_count>
    6d0a:	90 91 3b 07 	lds	r25, 0x073B	; 0x80073b <timer0_overflow_count+0x1>
    6d0e:	a0 91 3c 07 	lds	r26, 0x073C	; 0x80073c <timer0_overflow_count+0x2>
    6d12:	b0 91 3d 07 	lds	r27, 0x073D	; 0x80073d <timer0_overflow_count+0x3>
    6d16:	26 b5       	in	r18, 0x26	; 38
    6d18:	a8 9b       	sbis	0x15, 0	; 21
    6d1a:	05 c0       	rjmp	.+10     	; 0x6d26 <micros+0x24>
    6d1c:	2f 3f       	cpi	r18, 0xFF	; 255
    6d1e:	19 f0       	breq	.+6      	; 0x6d26 <micros+0x24>
    6d20:	01 96       	adiw	r24, 0x01	; 1
    6d22:	a1 1d       	adc	r26, r1
    6d24:	b1 1d       	adc	r27, r1
    6d26:	3f bf       	out	0x3f, r19	; 63
    6d28:	ba 2f       	mov	r27, r26
    6d2a:	a9 2f       	mov	r26, r25
    6d2c:	98 2f       	mov	r25, r24
    6d2e:	88 27       	eor	r24, r24
    6d30:	82 0f       	add	r24, r18
    6d32:	91 1d       	adc	r25, r1
    6d34:	a1 1d       	adc	r26, r1
    6d36:	b1 1d       	adc	r27, r1
    6d38:	bc 01       	movw	r22, r24
    6d3a:	cd 01       	movw	r24, r26
    6d3c:	42 e0       	ldi	r20, 0x02	; 2
    6d3e:	66 0f       	add	r22, r22
    6d40:	77 1f       	adc	r23, r23
    6d42:	88 1f       	adc	r24, r24
    6d44:	99 1f       	adc	r25, r25
    6d46:	4a 95       	dec	r20
    6d48:	d1 f7       	brne	.-12     	; 0x6d3e <micros+0x3c>
    6d4a:	08 95       	ret

00006d4c <delay>:
    6d4c:	8f 92       	push	r8
    6d4e:	9f 92       	push	r9
    6d50:	af 92       	push	r10
    6d52:	bf 92       	push	r11
    6d54:	cf 92       	push	r12
    6d56:	df 92       	push	r13
    6d58:	ef 92       	push	r14
    6d5a:	ff 92       	push	r15
    6d5c:	6b 01       	movw	r12, r22
    6d5e:	7c 01       	movw	r14, r24
    6d60:	d0 df       	rcall	.-96     	; 0x6d02 <micros>
    6d62:	4b 01       	movw	r8, r22
    6d64:	5c 01       	movw	r10, r24
    6d66:	c1 14       	cp	r12, r1
    6d68:	d1 04       	cpc	r13, r1
    6d6a:	e1 04       	cpc	r14, r1
    6d6c:	f1 04       	cpc	r15, r1
    6d6e:	f1 f0       	breq	.+60     	; 0x6dac <delay+0x60>
    6d70:	27 d3       	rcall	.+1614   	; 0x73c0 <yield>
    6d72:	c7 df       	rcall	.-114    	; 0x6d02 <micros>
    6d74:	dc 01       	movw	r26, r24
    6d76:	cb 01       	movw	r24, r22
    6d78:	88 19       	sub	r24, r8
    6d7a:	99 09       	sbc	r25, r9
    6d7c:	aa 09       	sbc	r26, r10
    6d7e:	bb 09       	sbc	r27, r11
    6d80:	88 3e       	cpi	r24, 0xE8	; 232
    6d82:	93 40       	sbci	r25, 0x03	; 3
    6d84:	a1 05       	cpc	r26, r1
    6d86:	b1 05       	cpc	r27, r1
    6d88:	70 f3       	brcs	.-36     	; 0x6d66 <delay+0x1a>
    6d8a:	21 e0       	ldi	r18, 0x01	; 1
    6d8c:	c2 1a       	sub	r12, r18
    6d8e:	d1 08       	sbc	r13, r1
    6d90:	e1 08       	sbc	r14, r1
    6d92:	f1 08       	sbc	r15, r1
    6d94:	88 ee       	ldi	r24, 0xE8	; 232
    6d96:	88 0e       	add	r8, r24
    6d98:	83 e0       	ldi	r24, 0x03	; 3
    6d9a:	98 1e       	adc	r9, r24
    6d9c:	a1 1c       	adc	r10, r1
    6d9e:	b1 1c       	adc	r11, r1
    6da0:	c1 14       	cp	r12, r1
    6da2:	d1 04       	cpc	r13, r1
    6da4:	e1 04       	cpc	r14, r1
    6da6:	f1 04       	cpc	r15, r1
    6da8:	21 f7       	brne	.-56     	; 0x6d72 <delay+0x26>
    6daa:	dd cf       	rjmp	.-70     	; 0x6d66 <delay+0x1a>
    6dac:	ff 90       	pop	r15
    6dae:	ef 90       	pop	r14
    6db0:	df 90       	pop	r13
    6db2:	cf 90       	pop	r12
    6db4:	bf 90       	pop	r11
    6db6:	af 90       	pop	r10
    6db8:	9f 90       	pop	r9
    6dba:	8f 90       	pop	r8
    6dbc:	08 95       	ret

00006dbe <init>:

void init()
{
	// this needs to be called before setup() or some functions won't
	// work there
	sei();
    6dbe:	78 94       	sei
	
	// on the ATmega168, timer 0 is also used for fast hardware pwm
	// (using phase-correct PWM would mean that timer 0 overflowed half as often
	// resulting in different millis() behavior on the ATmega8 and ATmega168)
#if defined(TCCR0A) && defined(WGM01)
	sbi(TCCR0A, WGM01);
    6dc0:	84 b5       	in	r24, 0x24	; 36
    6dc2:	82 60       	ori	r24, 0x02	; 2
    6dc4:	84 bd       	out	0x24, r24	; 36
	sbi(TCCR0A, WGM00);
    6dc6:	84 b5       	in	r24, 0x24	; 36
    6dc8:	81 60       	ori	r24, 0x01	; 1
    6dca:	84 bd       	out	0x24, r24	; 36
	// this combination is for the standard atmega8
	sbi(TCCR0, CS01);
	sbi(TCCR0, CS00);
#elif defined(TCCR0B) && defined(CS01) && defined(CS00)
	// this combination is for the standard 168/328/1280/2560
	sbi(TCCR0B, CS01);
    6dcc:	85 b5       	in	r24, 0x25	; 37
    6dce:	82 60       	ori	r24, 0x02	; 2
    6dd0:	85 bd       	out	0x25, r24	; 37
	sbi(TCCR0B, CS00);
    6dd2:	85 b5       	in	r24, 0x25	; 37
    6dd4:	81 60       	ori	r24, 0x01	; 1
    6dd6:	85 bd       	out	0x25, r24	; 37

	// enable timer 0 overflow interrupt
#if defined(TIMSK) && defined(TOIE0)
	sbi(TIMSK, TOIE0);
#elif defined(TIMSK0) && defined(TOIE0)
	sbi(TIMSK0, TOIE0);
    6dd8:	ee e6       	ldi	r30, 0x6E	; 110
    6dda:	f0 e0       	ldi	r31, 0x00	; 0
    6ddc:	80 81       	ld	r24, Z
    6dde:	81 60       	ori	r24, 0x01	; 1
    6de0:	80 83       	st	Z, r24
	// this is better for motors as it ensures an even waveform
	// note, however, that fast pwm mode can achieve a frequency of up
	// 8 MHz (with a 16 MHz clock) at 50% duty cycle

#if defined(TCCR1B) && defined(CS11) && defined(CS10)
	TCCR1B = 0;
    6de2:	e1 e8       	ldi	r30, 0x81	; 129
    6de4:	f0 e0       	ldi	r31, 0x00	; 0
    6de6:	10 82       	st	Z, r1

	// set timer 1 prescale factor to 64
	sbi(TCCR1B, CS11);
    6de8:	80 81       	ld	r24, Z
    6dea:	82 60       	ori	r24, 0x02	; 2
    6dec:	80 83       	st	Z, r24
#if F_CPU >= 8000000L
	sbi(TCCR1B, CS10);
    6dee:	80 81       	ld	r24, Z
    6df0:	81 60       	ori	r24, 0x01	; 1
    6df2:	80 83       	st	Z, r24
	sbi(TCCR1, CS10);
#endif
#endif
	// put timer 1 in 8-bit phase correct pwm mode
#if defined(TCCR1A) && defined(WGM10)
	sbi(TCCR1A, WGM10);
    6df4:	e0 e8       	ldi	r30, 0x80	; 128
    6df6:	f0 e0       	ldi	r31, 0x00	; 0
    6df8:	80 81       	ld	r24, Z
    6dfa:	81 60       	ori	r24, 0x01	; 1
    6dfc:	80 83       	st	Z, r24

	// set timer 2 prescale factor to 64
#if defined(TCCR2) && defined(CS22)
	sbi(TCCR2, CS22);
#elif defined(TCCR2B) && defined(CS22)
	sbi(TCCR2B, CS22);
    6dfe:	e1 eb       	ldi	r30, 0xB1	; 177
    6e00:	f0 e0       	ldi	r31, 0x00	; 0
    6e02:	80 81       	ld	r24, Z
    6e04:	84 60       	ori	r24, 0x04	; 4
    6e06:	80 83       	st	Z, r24

	// configure timer 2 for phase correct pwm (8-bit)
#if defined(TCCR2) && defined(WGM20)
	sbi(TCCR2, WGM20);
#elif defined(TCCR2A) && defined(WGM20)
	sbi(TCCR2A, WGM20);
    6e08:	e0 eb       	ldi	r30, 0xB0	; 176
    6e0a:	f0 e0       	ldi	r31, 0x00	; 0
    6e0c:	80 81       	ld	r24, Z
    6e0e:	81 60       	ori	r24, 0x01	; 1
    6e10:	80 83       	st	Z, r24
//#else
	// Timer 2 not finished (may not be present on this CPU)
#endif

#if defined(TCCR3B) && defined(CS31) && defined(WGM30)
	sbi(TCCR3B, CS31);		// set timer 3 prescale factor to 64
    6e12:	e1 e9       	ldi	r30, 0x91	; 145
    6e14:	f0 e0       	ldi	r31, 0x00	; 0
    6e16:	80 81       	ld	r24, Z
    6e18:	82 60       	ori	r24, 0x02	; 2
    6e1a:	80 83       	st	Z, r24
	sbi(TCCR3B, CS30);
    6e1c:	80 81       	ld	r24, Z
    6e1e:	81 60       	ori	r24, 0x01	; 1
    6e20:	80 83       	st	Z, r24
	sbi(TCCR3A, WGM30);		// put timer 3 in 8-bit phase correct pwm mode
    6e22:	e0 e9       	ldi	r30, 0x90	; 144
    6e24:	f0 e0       	ldi	r31, 0x00	; 0
    6e26:	80 81       	ld	r24, Z
    6e28:	81 60       	ori	r24, 0x01	; 1
    6e2a:	80 83       	st	Z, r24
	sbi(TCCR4D, WGM40);		// put timer 4 in phase- and frequency-correct PWM mode	
	sbi(TCCR4A, PWM4A);		// enable PWM mode for comparator OCR4A
	sbi(TCCR4C, PWM4D);		// enable PWM mode for comparator OCR4D
#else /* beginning of timer4 block for ATMEGA1280 and ATMEGA2560 */
#if defined(TCCR4B) && defined(CS41) && defined(WGM40)
	sbi(TCCR4B, CS41);		// set timer 4 prescale factor to 64
    6e2c:	e1 ea       	ldi	r30, 0xA1	; 161
    6e2e:	f0 e0       	ldi	r31, 0x00	; 0
    6e30:	80 81       	ld	r24, Z
    6e32:	82 60       	ori	r24, 0x02	; 2
    6e34:	80 83       	st	Z, r24
	sbi(TCCR4B, CS40);
    6e36:	80 81       	ld	r24, Z
    6e38:	81 60       	ori	r24, 0x01	; 1
    6e3a:	80 83       	st	Z, r24
	sbi(TCCR4A, WGM40);		// put timer 4 in 8-bit phase correct pwm mode
    6e3c:	e0 ea       	ldi	r30, 0xA0	; 160
    6e3e:	f0 e0       	ldi	r31, 0x00	; 0
    6e40:	80 81       	ld	r24, Z
    6e42:	81 60       	ori	r24, 0x01	; 1
    6e44:	80 83       	st	Z, r24
#endif
#endif /* end timer4 block for ATMEGA1280/2560 and similar */	

#if defined(TCCR5B) && defined(CS51) && defined(WGM50)
	sbi(TCCR5B, CS51);		// set timer 5 prescale factor to 64
    6e46:	e1 e2       	ldi	r30, 0x21	; 33
    6e48:	f1 e0       	ldi	r31, 0x01	; 1
    6e4a:	80 81       	ld	r24, Z
    6e4c:	82 60       	ori	r24, 0x02	; 2
    6e4e:	80 83       	st	Z, r24
	sbi(TCCR5B, CS50);
    6e50:	80 81       	ld	r24, Z
    6e52:	81 60       	ori	r24, 0x01	; 1
    6e54:	80 83       	st	Z, r24
	sbi(TCCR5A, WGM50);		// put timer 5 in 8-bit phase correct pwm mode
    6e56:	e0 e2       	ldi	r30, 0x20	; 32
    6e58:	f1 e0       	ldi	r31, 0x01	; 1
    6e5a:	80 81       	ld	r24, Z
    6e5c:	81 60       	ori	r24, 0x01	; 1
    6e5e:	80 83       	st	Z, r24
#endif

#if defined(ADCSRA)
	// set a2d prescaler so we are inside the desired 50-200 KHz range.
	#if F_CPU >= 16000000 // 16 MHz / 128 = 125 KHz
		sbi(ADCSRA, ADPS2);
    6e60:	ea e7       	ldi	r30, 0x7A	; 122
    6e62:	f0 e0       	ldi	r31, 0x00	; 0
    6e64:	80 81       	ld	r24, Z
    6e66:	84 60       	ori	r24, 0x04	; 4
    6e68:	80 83       	st	Z, r24
		sbi(ADCSRA, ADPS1);
    6e6a:	80 81       	ld	r24, Z
    6e6c:	82 60       	ori	r24, 0x02	; 2
    6e6e:	80 83       	st	Z, r24
		sbi(ADCSRA, ADPS0);
    6e70:	80 81       	ld	r24, Z
    6e72:	81 60       	ori	r24, 0x01	; 1
    6e74:	80 83       	st	Z, r24
		cbi(ADCSRA, ADPS2);
		cbi(ADCSRA, ADPS1);
		sbi(ADCSRA, ADPS0);
	#endif
	// enable a2d conversions
	sbi(ADCSRA, ADEN);
    6e76:	80 81       	ld	r24, Z
    6e78:	80 68       	ori	r24, 0x80	; 128
    6e7a:	80 83       	st	Z, r24
	// here so they can be used as normal digital i/o; they will be
	// reconnected in Serial.begin()
#if defined(UCSRB)
	UCSRB = 0;
#elif defined(UCSR0B)
	UCSR0B = 0;
    6e7c:	10 92 c1 00 	sts	0x00C1, r1	; 0x8000c1 <__TEXT_REGION_LENGTH__+0x7000c1>
    6e80:	08 95       	ret

00006e82 <turnOffPWM>:
//
//static inline void turnOffPWM(uint8_t timer) __attribute__ ((always_inline));
//static inline void turnOffPWM(uint8_t timer)
static void turnOffPWM(uint8_t timer)
{
	switch (timer)
    6e82:	90 e0       	ldi	r25, 0x00	; 0
    6e84:	fc 01       	movw	r30, r24
    6e86:	31 97       	sbiw	r30, 0x01	; 1
    6e88:	e2 31       	cpi	r30, 0x12	; 18
    6e8a:	f1 05       	cpc	r31, r1
    6e8c:	08 f0       	brcs	.+2      	; 0x6e90 <turnOffPWM+0xe>
    6e8e:	4d c0       	rjmp	.+154    	; 0x6f2a <turnOffPWM+0xa8>
    6e90:	88 27       	eor	r24, r24
    6e92:	e3 54       	subi	r30, 0x43	; 67
    6e94:	ff 4f       	sbci	r31, 0xFF	; 255
    6e96:	8f 4f       	sbci	r24, 0xFF	; 255
    6e98:	f5 c2       	rjmp	.+1514   	; 0x7484 <__tablejump2__>
	{
		#if defined(TCCR1A) && defined(COM1A1)
		case TIMER1A:   cbi(TCCR1A, COM1A1);    break;
    6e9a:	80 91 80 00 	lds	r24, 0x0080	; 0x800080 <__TEXT_REGION_LENGTH__+0x700080>
    6e9e:	8f 77       	andi	r24, 0x7F	; 127
    6ea0:	03 c0       	rjmp	.+6      	; 0x6ea8 <turnOffPWM+0x26>
		#endif
		#if defined(TCCR1A) && defined(COM1B1)
		case TIMER1B:   cbi(TCCR1A, COM1B1);    break;
    6ea2:	80 91 80 00 	lds	r24, 0x0080	; 0x800080 <__TEXT_REGION_LENGTH__+0x700080>
    6ea6:	8f 7d       	andi	r24, 0xDF	; 223
    6ea8:	80 93 80 00 	sts	0x0080, r24	; 0x800080 <__TEXT_REGION_LENGTH__+0x700080>
    6eac:	08 95       	ret
		#endif
		#if defined(TCCR1A) && defined(COM1C1)
		case TIMER1C:   cbi(TCCR1A, COM1C1);    break;
    6eae:	80 91 80 00 	lds	r24, 0x0080	; 0x800080 <__TEXT_REGION_LENGTH__+0x700080>
    6eb2:	87 7f       	andi	r24, 0xF7	; 247
    6eb4:	f9 cf       	rjmp	.-14     	; 0x6ea8 <turnOffPWM+0x26>
		#if defined(TCCR2) && defined(COM21)
		case  TIMER2:   cbi(TCCR2, COM21);      break;
		#endif
		
		#if defined(TCCR0A) && defined(COM0A1)
		case  TIMER0A:  cbi(TCCR0A, COM0A1);    break;
    6eb6:	84 b5       	in	r24, 0x24	; 36
    6eb8:	8f 77       	andi	r24, 0x7F	; 127
    6eba:	02 c0       	rjmp	.+4      	; 0x6ec0 <turnOffPWM+0x3e>
		#endif
		
		#if defined(TCCR0A) && defined(COM0B1)
		case  TIMER0B:  cbi(TCCR0A, COM0B1);    break;
    6ebc:	84 b5       	in	r24, 0x24	; 36
    6ebe:	8f 7d       	andi	r24, 0xDF	; 223
    6ec0:	84 bd       	out	0x24, r24	; 36
    6ec2:	08 95       	ret
		#endif
		#if defined(TCCR2A) && defined(COM2A1)
		case  TIMER2A:  cbi(TCCR2A, COM2A1);    break;
    6ec4:	80 91 b0 00 	lds	r24, 0x00B0	; 0x8000b0 <__TEXT_REGION_LENGTH__+0x7000b0>
    6ec8:	8f 77       	andi	r24, 0x7F	; 127
    6eca:	03 c0       	rjmp	.+6      	; 0x6ed2 <turnOffPWM+0x50>
		#endif
		#if defined(TCCR2A) && defined(COM2B1)
		case  TIMER2B:  cbi(TCCR2A, COM2B1);    break;
    6ecc:	80 91 b0 00 	lds	r24, 0x00B0	; 0x8000b0 <__TEXT_REGION_LENGTH__+0x7000b0>
    6ed0:	8f 7d       	andi	r24, 0xDF	; 223
    6ed2:	80 93 b0 00 	sts	0x00B0, r24	; 0x8000b0 <__TEXT_REGION_LENGTH__+0x7000b0>
    6ed6:	08 95       	ret
		#endif
		
		#if defined(TCCR3A) && defined(COM3A1)
		case  TIMER3A:  cbi(TCCR3A, COM3A1);    break;
    6ed8:	80 91 90 00 	lds	r24, 0x0090	; 0x800090 <__TEXT_REGION_LENGTH__+0x700090>
    6edc:	8f 77       	andi	r24, 0x7F	; 127
    6ede:	07 c0       	rjmp	.+14     	; 0x6eee <turnOffPWM+0x6c>
		#endif
		#if defined(TCCR3A) && defined(COM3B1)
		case  TIMER3B:  cbi(TCCR3A, COM3B1);    break;
    6ee0:	80 91 90 00 	lds	r24, 0x0090	; 0x800090 <__TEXT_REGION_LENGTH__+0x700090>
    6ee4:	8f 7d       	andi	r24, 0xDF	; 223
    6ee6:	03 c0       	rjmp	.+6      	; 0x6eee <turnOffPWM+0x6c>
		#endif
		#if defined(TCCR3A) && defined(COM3C1)
		case  TIMER3C:  cbi(TCCR3A, COM3C1);    break;
    6ee8:	80 91 90 00 	lds	r24, 0x0090	; 0x800090 <__TEXT_REGION_LENGTH__+0x700090>
    6eec:	87 7f       	andi	r24, 0xF7	; 247
    6eee:	80 93 90 00 	sts	0x0090, r24	; 0x800090 <__TEXT_REGION_LENGTH__+0x700090>
    6ef2:	08 95       	ret
		#endif

		#if defined(TCCR4A) && defined(COM4A1)
		case  TIMER4A:  cbi(TCCR4A, COM4A1);    break;
    6ef4:	80 91 a0 00 	lds	r24, 0x00A0	; 0x8000a0 <__TEXT_REGION_LENGTH__+0x7000a0>
    6ef8:	8f 77       	andi	r24, 0x7F	; 127
    6efa:	07 c0       	rjmp	.+14     	; 0x6f0a <turnOffPWM+0x88>
		#endif					
		#if defined(TCCR4A) && defined(COM4B1)
		case  TIMER4B:  cbi(TCCR4A, COM4B1);    break;
    6efc:	80 91 a0 00 	lds	r24, 0x00A0	; 0x8000a0 <__TEXT_REGION_LENGTH__+0x7000a0>
    6f00:	8f 7d       	andi	r24, 0xDF	; 223
    6f02:	03 c0       	rjmp	.+6      	; 0x6f0a <turnOffPWM+0x88>
		#endif
		#if defined(TCCR4A) && defined(COM4C1)
		case  TIMER4C:  cbi(TCCR4A, COM4C1);    break;
    6f04:	80 91 a0 00 	lds	r24, 0x00A0	; 0x8000a0 <__TEXT_REGION_LENGTH__+0x7000a0>
    6f08:	87 7f       	andi	r24, 0xF7	; 247
    6f0a:	80 93 a0 00 	sts	0x00A0, r24	; 0x8000a0 <__TEXT_REGION_LENGTH__+0x7000a0>
    6f0e:	08 95       	ret
		#if defined(TCCR4C) && defined(COM4D1)
		case TIMER4D:	cbi(TCCR4C, COM4D1);	break;
		#endif			
			
		#if defined(TCCR5A)
		case  TIMER5A:  cbi(TCCR5A, COM5A1);    break;
    6f10:	80 91 20 01 	lds	r24, 0x0120	; 0x800120 <__TEXT_REGION_LENGTH__+0x700120>
    6f14:	8f 77       	andi	r24, 0x7F	; 127
    6f16:	07 c0       	rjmp	.+14     	; 0x6f26 <turnOffPWM+0xa4>
		case  TIMER5B:  cbi(TCCR5A, COM5B1);    break;
    6f18:	80 91 20 01 	lds	r24, 0x0120	; 0x800120 <__TEXT_REGION_LENGTH__+0x700120>
    6f1c:	8f 7d       	andi	r24, 0xDF	; 223
    6f1e:	03 c0       	rjmp	.+6      	; 0x6f26 <turnOffPWM+0xa4>
		case  TIMER5C:  cbi(TCCR5A, COM5C1);    break;
    6f20:	80 91 20 01 	lds	r24, 0x0120	; 0x800120 <__TEXT_REGION_LENGTH__+0x700120>
    6f24:	87 7f       	andi	r24, 0xF7	; 247
    6f26:	80 93 20 01 	sts	0x0120, r24	; 0x800120 <__TEXT_REGION_LENGTH__+0x700120>
    6f2a:	08 95       	ret

00006f2c <pinMode>:
#define ARDUINO_MAIN
#include "wiring_private.h"
#include "pins_arduino.h"

void pinMode(uint8_t pin, uint8_t mode)
{
    6f2c:	cf 93       	push	r28
    6f2e:	df 93       	push	r29
	uint8_t bit = digitalPinToBitMask(pin);
    6f30:	90 e0       	ldi	r25, 0x00	; 0
    6f32:	fc 01       	movw	r30, r24
    6f34:	e0 5c       	subi	r30, 0xC0	; 192
    6f36:	fd 4e       	sbci	r31, 0xED	; 237
    6f38:	24 91       	lpm	r18, Z
	uint8_t port = digitalPinToPort(pin);
    6f3a:	fc 01       	movw	r30, r24
    6f3c:	ea 57       	subi	r30, 0x7A	; 122
    6f3e:	fd 4e       	sbci	r31, 0xED	; 237
    6f40:	84 91       	lpm	r24, Z
	volatile uint8_t *reg, *out;

	if (port == NOT_A_PIN) return;
    6f42:	88 23       	and	r24, r24
    6f44:	61 f1       	breq	.+88     	; 0x6f9e <pinMode+0x72>

	// JWS: can I let the optimizer do this?
	reg = portModeRegister(port);
    6f46:	90 e0       	ldi	r25, 0x00	; 0
    6f48:	88 0f       	add	r24, r24
    6f4a:	99 1f       	adc	r25, r25
    6f4c:	fc 01       	movw	r30, r24
    6f4e:	e0 50       	subi	r30, 0x00	; 0
    6f50:	fd 4e       	sbci	r31, 0xED	; 237
    6f52:	c5 91       	lpm	r28, Z+
    6f54:	d4 91       	lpm	r29, Z
	out = portOutputRegister(port);
    6f56:	fc 01       	movw	r30, r24
    6f58:	ea 51       	subi	r30, 0x1A	; 26
    6f5a:	fd 4e       	sbci	r31, 0xED	; 237
    6f5c:	a5 91       	lpm	r26, Z+
    6f5e:	b4 91       	lpm	r27, Z

	if (mode == INPUT) { 
    6f60:	61 11       	cpse	r22, r1
    6f62:	09 c0       	rjmp	.+18     	; 0x6f76 <pinMode+0x4a>
		uint8_t oldSREG = SREG;
    6f64:	9f b7       	in	r25, 0x3f	; 63
                cli();
    6f66:	f8 94       	cli
		*reg &= ~bit;
    6f68:	88 81       	ld	r24, Y
    6f6a:	20 95       	com	r18
    6f6c:	82 23       	and	r24, r18
    6f6e:	88 83       	st	Y, r24
		*out &= ~bit;
    6f70:	ec 91       	ld	r30, X
    6f72:	2e 23       	and	r18, r30
    6f74:	0b c0       	rjmp	.+22     	; 0x6f8c <pinMode+0x60>
		SREG = oldSREG;
	} else if (mode == INPUT_PULLUP) {
    6f76:	62 30       	cpi	r22, 0x02	; 2
    6f78:	61 f4       	brne	.+24     	; 0x6f92 <pinMode+0x66>
		uint8_t oldSREG = SREG;
    6f7a:	9f b7       	in	r25, 0x3f	; 63
                cli();
    6f7c:	f8 94       	cli
		*reg &= ~bit;
    6f7e:	88 81       	ld	r24, Y
    6f80:	32 2f       	mov	r19, r18
    6f82:	30 95       	com	r19
    6f84:	83 23       	and	r24, r19
    6f86:	88 83       	st	Y, r24
		*out |= bit;
    6f88:	ec 91       	ld	r30, X
    6f8a:	2e 2b       	or	r18, r30
    6f8c:	2c 93       	st	X, r18
		SREG = oldSREG;
    6f8e:	9f bf       	out	0x3f, r25	; 63
    6f90:	06 c0       	rjmp	.+12     	; 0x6f9e <pinMode+0x72>
	} else {
		uint8_t oldSREG = SREG;
    6f92:	8f b7       	in	r24, 0x3f	; 63
                cli();
    6f94:	f8 94       	cli
		*reg |= bit;
    6f96:	e8 81       	ld	r30, Y
    6f98:	2e 2b       	or	r18, r30
    6f9a:	28 83       	st	Y, r18
		SREG = oldSREG;
    6f9c:	8f bf       	out	0x3f, r24	; 63
	}
}
    6f9e:	df 91       	pop	r29
    6fa0:	cf 91       	pop	r28
    6fa2:	08 95       	ret

00006fa4 <digitalWrite>:
		#endif
	}
}

void digitalWrite(uint8_t pin, uint8_t val)
{
    6fa4:	1f 93       	push	r17
    6fa6:	cf 93       	push	r28
    6fa8:	df 93       	push	r29
	uint8_t timer = digitalPinToTimer(pin);
    6faa:	28 2f       	mov	r18, r24
    6fac:	30 e0       	ldi	r19, 0x00	; 0
    6fae:	f9 01       	movw	r30, r18
    6fb0:	e6 50       	subi	r30, 0x06	; 6
    6fb2:	fe 4e       	sbci	r31, 0xEE	; 238
    6fb4:	84 91       	lpm	r24, Z
	uint8_t bit = digitalPinToBitMask(pin);
    6fb6:	f9 01       	movw	r30, r18
    6fb8:	e0 5c       	subi	r30, 0xC0	; 192
    6fba:	fd 4e       	sbci	r31, 0xED	; 237
    6fbc:	d4 91       	lpm	r29, Z
	uint8_t port = digitalPinToPort(pin);
    6fbe:	f9 01       	movw	r30, r18
    6fc0:	ea 57       	subi	r30, 0x7A	; 122
    6fc2:	fd 4e       	sbci	r31, 0xED	; 237
    6fc4:	c4 91       	lpm	r28, Z
	volatile uint8_t *out;

	if (port == NOT_A_PIN) return;
    6fc6:	cc 23       	and	r28, r28
    6fc8:	b9 f0       	breq	.+46     	; 0x6ff8 <digitalWrite+0x54>
    6fca:	16 2f       	mov	r17, r22

	// If the pin that support PWM output, we need to turn it off
	// before doing a digital write.
	if (timer != NOT_ON_TIMER) turnOffPWM(timer);
    6fcc:	81 11       	cpse	r24, r1
    6fce:	59 df       	rcall	.-334    	; 0x6e82 <turnOffPWM>

	out = portOutputRegister(port);
    6fd0:	ec 2f       	mov	r30, r28
    6fd2:	f0 e0       	ldi	r31, 0x00	; 0
    6fd4:	ee 0f       	add	r30, r30
    6fd6:	ff 1f       	adc	r31, r31
    6fd8:	ea 51       	subi	r30, 0x1A	; 26
    6fda:	fd 4e       	sbci	r31, 0xED	; 237
    6fdc:	a5 91       	lpm	r26, Z+
    6fde:	b4 91       	lpm	r27, Z

	uint8_t oldSREG = SREG;
    6fe0:	9f b7       	in	r25, 0x3f	; 63
	cli();
    6fe2:	f8 94       	cli

	if (val == LOW) {
    6fe4:	11 11       	cpse	r17, r1
    6fe6:	04 c0       	rjmp	.+8      	; 0x6ff0 <digitalWrite+0x4c>
		*out &= ~bit;
    6fe8:	8c 91       	ld	r24, X
    6fea:	d0 95       	com	r29
    6fec:	d8 23       	and	r29, r24
    6fee:	02 c0       	rjmp	.+4      	; 0x6ff4 <digitalWrite+0x50>
	} else {
		*out |= bit;
    6ff0:	ec 91       	ld	r30, X
    6ff2:	de 2b       	or	r29, r30
    6ff4:	dc 93       	st	X, r29
	}

	SREG = oldSREG;
    6ff6:	9f bf       	out	0x3f, r25	; 63
}
    6ff8:	df 91       	pop	r29
    6ffa:	cf 91       	pop	r28
    6ffc:	1f 91       	pop	r17
    6ffe:	08 95       	ret

00007000 <digitalRead>:

int digitalRead(uint8_t pin)
{
    7000:	cf 93       	push	r28
    7002:	df 93       	push	r29
	uint8_t timer = digitalPinToTimer(pin);
    7004:	28 2f       	mov	r18, r24
    7006:	30 e0       	ldi	r19, 0x00	; 0
    7008:	f9 01       	movw	r30, r18
    700a:	e6 50       	subi	r30, 0x06	; 6
    700c:	fe 4e       	sbci	r31, 0xEE	; 238
    700e:	84 91       	lpm	r24, Z
	uint8_t bit = digitalPinToBitMask(pin);
    7010:	f9 01       	movw	r30, r18
    7012:	e0 5c       	subi	r30, 0xC0	; 192
    7014:	fd 4e       	sbci	r31, 0xED	; 237
    7016:	d4 91       	lpm	r29, Z
	uint8_t port = digitalPinToPort(pin);
    7018:	f9 01       	movw	r30, r18
    701a:	ea 57       	subi	r30, 0x7A	; 122
    701c:	fd 4e       	sbci	r31, 0xED	; 237
    701e:	c4 91       	lpm	r28, Z

	if (port == NOT_A_PIN) return LOW;
    7020:	cc 23       	and	r28, r28
    7022:	89 f0       	breq	.+34     	; 0x7046 <digitalRead+0x46>

	// If the pin that support PWM output, we need to turn it off
	// before getting a digital reading.
	if (timer != NOT_ON_TIMER) turnOffPWM(timer);
    7024:	81 11       	cpse	r24, r1
    7026:	2d df       	rcall	.-422    	; 0x6e82 <turnOffPWM>

	if (*portInputRegister(port) & bit) return HIGH;
    7028:	ec 2f       	mov	r30, r28
    702a:	f0 e0       	ldi	r31, 0x00	; 0
    702c:	ee 0f       	add	r30, r30
    702e:	ff 1f       	adc	r31, r31
    7030:	e4 53       	subi	r30, 0x34	; 52
    7032:	fd 4e       	sbci	r31, 0xED	; 237
    7034:	a5 91       	lpm	r26, Z+
    7036:	b4 91       	lpm	r27, Z
    7038:	ec 91       	ld	r30, X
{
	uint8_t timer = digitalPinToTimer(pin);
	uint8_t bit = digitalPinToBitMask(pin);
	uint8_t port = digitalPinToPort(pin);

	if (port == NOT_A_PIN) return LOW;
    703a:	ed 23       	and	r30, r29
    703c:	81 e0       	ldi	r24, 0x01	; 1
    703e:	90 e0       	ldi	r25, 0x00	; 0
    7040:	21 f4       	brne	.+8      	; 0x704a <digitalRead+0x4a>
    7042:	80 e0       	ldi	r24, 0x00	; 0
    7044:	02 c0       	rjmp	.+4      	; 0x704a <digitalRead+0x4a>
    7046:	80 e0       	ldi	r24, 0x00	; 0
    7048:	90 e0       	ldi	r25, 0x00	; 0
	// before getting a digital reading.
	if (timer != NOT_ON_TIMER) turnOffPWM(timer);

	if (*portInputRegister(port) & bit) return HIGH;
	return LOW;
}
    704a:	df 91       	pop	r29
    704c:	cf 91       	pop	r28
    704e:	08 95       	ret

00007050 <_ZN6StringD1Ev>:
/*  Character Access                         */
/*********************************************/

char String::charAt(unsigned int loc) const
{
	return operator[](loc);
    7050:	fc 01       	movw	r30, r24
    7052:	80 81       	ld	r24, Z
    7054:	91 81       	ldd	r25, Z+1	; 0x01
    7056:	cf c2       	rjmp	.+1438   	; 0x75f6 <free>

00007058 <_ZN6String10invalidateEv>:
    7058:	cf 93       	push	r28
    705a:	df 93       	push	r29
    705c:	ec 01       	movw	r28, r24
    705e:	88 81       	ld	r24, Y
    7060:	99 81       	ldd	r25, Y+1	; 0x01
    7062:	00 97       	sbiw	r24, 0x00	; 0
    7064:	09 f0       	breq	.+2      	; 0x7068 <_ZN6String10invalidateEv+0x10>
    7066:	c7 d2       	rcall	.+1422   	; 0x75f6 <free>
    7068:	19 82       	std	Y+1, r1	; 0x01
    706a:	18 82       	st	Y, r1
    706c:	1d 82       	std	Y+5, r1	; 0x05
    706e:	1c 82       	std	Y+4, r1	; 0x04
    7070:	1b 82       	std	Y+3, r1	; 0x03
    7072:	1a 82       	std	Y+2, r1	; 0x02
    7074:	df 91       	pop	r29
    7076:	cf 91       	pop	r28
    7078:	08 95       	ret

0000707a <_ZN6String12changeBufferEj>:
    707a:	0f 93       	push	r16
    707c:	1f 93       	push	r17
    707e:	cf 93       	push	r28
    7080:	df 93       	push	r29
    7082:	ec 01       	movw	r28, r24
    7084:	8b 01       	movw	r16, r22
    7086:	6f 5f       	subi	r22, 0xFF	; 255
    7088:	7f 4f       	sbci	r23, 0xFF	; 255
    708a:	88 81       	ld	r24, Y
    708c:	99 81       	ldd	r25, Y+1	; 0x01
    708e:	3c d3       	rcall	.+1656   	; 0x7708 <realloc>
    7090:	00 97       	sbiw	r24, 0x00	; 0
    7092:	31 f0       	breq	.+12     	; 0x70a0 <_ZN6String12changeBufferEj+0x26>
    7094:	99 83       	std	Y+1, r25	; 0x01
    7096:	88 83       	st	Y, r24
    7098:	1b 83       	std	Y+3, r17	; 0x03
    709a:	0a 83       	std	Y+2, r16	; 0x02
    709c:	81 e0       	ldi	r24, 0x01	; 1
    709e:	01 c0       	rjmp	.+2      	; 0x70a2 <_ZN6String12changeBufferEj+0x28>
    70a0:	80 e0       	ldi	r24, 0x00	; 0
    70a2:	df 91       	pop	r29
    70a4:	cf 91       	pop	r28
    70a6:	1f 91       	pop	r17
    70a8:	0f 91       	pop	r16
    70aa:	08 95       	ret

000070ac <_ZN6String7reserveEj>:
    70ac:	cf 93       	push	r28
    70ae:	df 93       	push	r29
    70b0:	ec 01       	movw	r28, r24
    70b2:	88 81       	ld	r24, Y
    70b4:	99 81       	ldd	r25, Y+1	; 0x01
    70b6:	89 2b       	or	r24, r25
    70b8:	29 f0       	breq	.+10     	; 0x70c4 <_ZN6String7reserveEj+0x18>
    70ba:	8a 81       	ldd	r24, Y+2	; 0x02
    70bc:	9b 81       	ldd	r25, Y+3	; 0x03
    70be:	86 17       	cp	r24, r22
    70c0:	97 07       	cpc	r25, r23
    70c2:	58 f4       	brcc	.+22     	; 0x70da <_ZN6String7reserveEj+0x2e>
    70c4:	ce 01       	movw	r24, r28
    70c6:	d9 df       	rcall	.-78     	; 0x707a <_ZN6String12changeBufferEj>
    70c8:	88 23       	and	r24, r24
    70ca:	41 f0       	breq	.+16     	; 0x70dc <_ZN6String7reserveEj+0x30>
    70cc:	8c 81       	ldd	r24, Y+4	; 0x04
    70ce:	9d 81       	ldd	r25, Y+5	; 0x05
    70d0:	89 2b       	or	r24, r25
    70d2:	19 f4       	brne	.+6      	; 0x70da <_ZN6String7reserveEj+0x2e>
    70d4:	e8 81       	ld	r30, Y
    70d6:	f9 81       	ldd	r31, Y+1	; 0x01
    70d8:	10 82       	st	Z, r1
    70da:	81 e0       	ldi	r24, 0x01	; 1
    70dc:	df 91       	pop	r29
    70de:	cf 91       	pop	r28
    70e0:	08 95       	ret

000070e2 <_ZN6String4copyEPKcj>:
    70e2:	ef 92       	push	r14
    70e4:	ff 92       	push	r15
    70e6:	0f 93       	push	r16
    70e8:	1f 93       	push	r17
    70ea:	cf 93       	push	r28
    70ec:	df 93       	push	r29
    70ee:	ec 01       	movw	r28, r24
    70f0:	7b 01       	movw	r14, r22
    70f2:	8a 01       	movw	r16, r20
    70f4:	ba 01       	movw	r22, r20
    70f6:	da df       	rcall	.-76     	; 0x70ac <_ZN6String7reserveEj>
    70f8:	81 11       	cpse	r24, r1
    70fa:	03 c0       	rjmp	.+6      	; 0x7102 <_ZN6String4copyEPKcj+0x20>
    70fc:	ce 01       	movw	r24, r28
    70fe:	ac df       	rcall	.-168    	; 0x7058 <_ZN6String10invalidateEv>
    7100:	06 c0       	rjmp	.+12     	; 0x710e <_ZN6String4copyEPKcj+0x2c>
    7102:	1d 83       	std	Y+5, r17	; 0x05
    7104:	0c 83       	std	Y+4, r16	; 0x04
    7106:	b7 01       	movw	r22, r14
    7108:	88 81       	ld	r24, Y
    710a:	99 81       	ldd	r25, Y+1	; 0x01
    710c:	e6 d3       	rcall	.+1996   	; 0x78da <strcpy>
    710e:	ce 01       	movw	r24, r28
    7110:	df 91       	pop	r29
    7112:	cf 91       	pop	r28
    7114:	1f 91       	pop	r17
    7116:	0f 91       	pop	r16
    7118:	ff 90       	pop	r15
    711a:	ef 90       	pop	r14
    711c:	08 95       	ret

0000711e <_ZN6StringC1EPKc>:
    711e:	fc 01       	movw	r30, r24
    7120:	11 82       	std	Z+1, r1	; 0x01
    7122:	10 82       	st	Z, r1
    7124:	13 82       	std	Z+3, r1	; 0x03
    7126:	12 82       	std	Z+2, r1	; 0x02
    7128:	15 82       	std	Z+5, r1	; 0x05
    712a:	14 82       	std	Z+4, r1	; 0x04
    712c:	61 15       	cp	r22, r1
    712e:	71 05       	cpc	r23, r1
    7130:	49 f0       	breq	.+18     	; 0x7144 <_ZN6StringC1EPKc+0x26>
    7132:	fb 01       	movw	r30, r22
    7134:	01 90       	ld	r0, Z+
    7136:	00 20       	and	r0, r0
    7138:	e9 f7       	brne	.-6      	; 0x7134 <_ZN6StringC1EPKc+0x16>
    713a:	31 97       	sbiw	r30, 0x01	; 1
    713c:	af 01       	movw	r20, r30
    713e:	46 1b       	sub	r20, r22
    7140:	57 0b       	sbc	r21, r23
    7142:	cf cf       	rjmp	.-98     	; 0x70e2 <_ZN6String4copyEPKcj>
    7144:	08 95       	ret

00007146 <_ZN6StringaSERKS_>:
    7146:	cf 93       	push	r28
    7148:	df 93       	push	r29
    714a:	ec 01       	movw	r28, r24
    714c:	fb 01       	movw	r30, r22
    714e:	86 17       	cp	r24, r22
    7150:	97 07       	cpc	r25, r23
    7152:	51 f0       	breq	.+20     	; 0x7168 <_ZN6StringaSERKS_+0x22>
    7154:	60 81       	ld	r22, Z
    7156:	71 81       	ldd	r23, Z+1	; 0x01
    7158:	61 15       	cp	r22, r1
    715a:	71 05       	cpc	r23, r1
    715c:	21 f0       	breq	.+8      	; 0x7166 <_ZN6StringaSERKS_+0x20>
    715e:	44 81       	ldd	r20, Z+4	; 0x04
    7160:	55 81       	ldd	r21, Z+5	; 0x05
    7162:	bf df       	rcall	.-130    	; 0x70e2 <_ZN6String4copyEPKcj>
    7164:	01 c0       	rjmp	.+2      	; 0x7168 <_ZN6StringaSERKS_+0x22>
    7166:	78 df       	rcall	.-272    	; 0x7058 <_ZN6String10invalidateEv>
    7168:	ce 01       	movw	r24, r28
    716a:	df 91       	pop	r29
    716c:	cf 91       	pop	r28
    716e:	08 95       	ret

00007170 <_ZN6StringC1ERKS_>:
    7170:	fc 01       	movw	r30, r24
    7172:	11 82       	std	Z+1, r1	; 0x01
    7174:	10 82       	st	Z, r1
    7176:	13 82       	std	Z+3, r1	; 0x03
    7178:	12 82       	std	Z+2, r1	; 0x02
    717a:	15 82       	std	Z+5, r1	; 0x05
    717c:	14 82       	std	Z+4, r1	; 0x04
    717e:	e3 cf       	rjmp	.-58     	; 0x7146 <_ZN6StringaSERKS_>

00007180 <_ZNK6String8getBytesEPhjj>:
	if (index >= len || !buffer) return 0;
	return buffer[index];
}

void String::getBytes(unsigned char *buf, unsigned int bufsize, unsigned int index) const
{
    7180:	0f 93       	push	r16
    7182:	1f 93       	push	r17
    7184:	cf 93       	push	r28
    7186:	df 93       	push	r29
	if (!bufsize || !buf) return;
    7188:	41 15       	cp	r20, r1
    718a:	51 05       	cpc	r21, r1
    718c:	11 f1       	breq	.+68     	; 0x71d2 <_ZNK6String8getBytesEPhjj+0x52>
    718e:	61 15       	cp	r22, r1
    7190:	71 05       	cpc	r23, r1
    7192:	f9 f0       	breq	.+62     	; 0x71d2 <_ZNK6String8getBytesEPhjj+0x52>
	if (index >= len) {
    7194:	dc 01       	movw	r26, r24
    7196:	14 96       	adiw	r26, 0x04	; 4
    7198:	ed 91       	ld	r30, X+
    719a:	fc 91       	ld	r31, X
    719c:	15 97       	sbiw	r26, 0x05	; 5
    719e:	2e 17       	cp	r18, r30
    71a0:	3f 07       	cpc	r19, r31
    71a2:	18 f0       	brcs	.+6      	; 0x71aa <_ZNK6String8getBytesEPhjj+0x2a>
		buf[0] = 0;
    71a4:	fb 01       	movw	r30, r22
    71a6:	10 82       	st	Z, r1
		return;
    71a8:	14 c0       	rjmp	.+40     	; 0x71d2 <_ZNK6String8getBytesEPhjj+0x52>
	}
	unsigned int n = bufsize - 1;
	if (n > len - index) n = len - index;
    71aa:	e2 1b       	sub	r30, r18
    71ac:	f3 0b       	sbc	r31, r19
    71ae:	ea 01       	movw	r28, r20
    71b0:	21 97       	sbiw	r28, 0x01	; 1
    71b2:	ec 17       	cp	r30, r28
    71b4:	fd 07       	cpc	r31, r29
    71b6:	08 f4       	brcc	.+2      	; 0x71ba <_ZNK6String8getBytesEPhjj+0x3a>
    71b8:	ef 01       	movw	r28, r30
    71ba:	8b 01       	movw	r16, r22
    71bc:	fc 01       	movw	r30, r24
	strncpy((char *)buf, buffer + index, n);
    71be:	60 81       	ld	r22, Z
    71c0:	71 81       	ldd	r23, Z+1	; 0x01
    71c2:	62 0f       	add	r22, r18
    71c4:	73 1f       	adc	r23, r19
    71c6:	ae 01       	movw	r20, r28
    71c8:	c8 01       	movw	r24, r16
    71ca:	8e d3       	rcall	.+1820   	; 0x78e8 <strncpy>
	buf[n] = 0;
    71cc:	c0 0f       	add	r28, r16
    71ce:	d1 1f       	adc	r29, r17
    71d0:	18 82       	st	Y, r1
}
    71d2:	df 91       	pop	r29
    71d4:	cf 91       	pop	r28
    71d6:	1f 91       	pop	r17
    71d8:	0f 91       	pop	r16
    71da:	08 95       	ret

000071dc <_ZN14HardwareSerial9availableEv>:
  // clear any received data
  _rx_buffer_head = _rx_buffer_tail;
}

int HardwareSerial::available(void)
{
    71dc:	fc 01       	movw	r30, r24
  return ((unsigned int)(SERIAL_RX_BUFFER_SIZE + _rx_buffer_head - _rx_buffer_tail)) % SERIAL_RX_BUFFER_SIZE;
    71de:	91 8d       	ldd	r25, Z+25	; 0x19
    71e0:	22 8d       	ldd	r18, Z+26	; 0x1a
    71e2:	89 2f       	mov	r24, r25
    71e4:	90 e0       	ldi	r25, 0x00	; 0
    71e6:	80 5c       	subi	r24, 0xC0	; 192
    71e8:	9f 4f       	sbci	r25, 0xFF	; 255
    71ea:	82 1b       	sub	r24, r18
    71ec:	91 09       	sbc	r25, r1
}
    71ee:	8f 73       	andi	r24, 0x3F	; 63
    71f0:	99 27       	eor	r25, r25
    71f2:	08 95       	ret

000071f4 <_ZN14HardwareSerial4peekEv>:

int HardwareSerial::peek(void)
{
    71f4:	fc 01       	movw	r30, r24
  if (_rx_buffer_head == _rx_buffer_tail) {
    71f6:	91 8d       	ldd	r25, Z+25	; 0x19
    71f8:	82 8d       	ldd	r24, Z+26	; 0x1a
    71fa:	98 17       	cp	r25, r24
    71fc:	31 f0       	breq	.+12     	; 0x720a <_ZN14HardwareSerial4peekEv+0x16>
    return -1;
  } else {
    return _rx_buffer[_rx_buffer_tail];
    71fe:	82 8d       	ldd	r24, Z+26	; 0x1a
    7200:	e8 0f       	add	r30, r24
    7202:	f1 1d       	adc	r31, r1
    7204:	85 8d       	ldd	r24, Z+29	; 0x1d
    7206:	90 e0       	ldi	r25, 0x00	; 0
    7208:	08 95       	ret
}

int HardwareSerial::peek(void)
{
  if (_rx_buffer_head == _rx_buffer_tail) {
    return -1;
    720a:	8f ef       	ldi	r24, 0xFF	; 255
    720c:	9f ef       	ldi	r25, 0xFF	; 255
  } else {
    return _rx_buffer[_rx_buffer_tail];
  }
}
    720e:	08 95       	ret

00007210 <_ZN14HardwareSerial4readEv>:

int HardwareSerial::read(void)
{
    7210:	fc 01       	movw	r30, r24
  // if the head isn't ahead of the tail, we don't have any characters
  if (_rx_buffer_head == _rx_buffer_tail) {
    7212:	91 8d       	ldd	r25, Z+25	; 0x19
    7214:	82 8d       	ldd	r24, Z+26	; 0x1a
    7216:	98 17       	cp	r25, r24
    7218:	61 f0       	breq	.+24     	; 0x7232 <_ZN14HardwareSerial4readEv+0x22>
    return -1;
  } else {
    unsigned char c = _rx_buffer[_rx_buffer_tail];
    721a:	82 8d       	ldd	r24, Z+26	; 0x1a
    721c:	df 01       	movw	r26, r30
    721e:	a8 0f       	add	r26, r24
    7220:	b1 1d       	adc	r27, r1
    7222:	5d 96       	adiw	r26, 0x1d	; 29
    7224:	8c 91       	ld	r24, X
    _rx_buffer_tail = (rx_buffer_index_t)(_rx_buffer_tail + 1) % SERIAL_RX_BUFFER_SIZE;
    7226:	92 8d       	ldd	r25, Z+26	; 0x1a
    7228:	9f 5f       	subi	r25, 0xFF	; 255
    722a:	9f 73       	andi	r25, 0x3F	; 63
    722c:	92 8f       	std	Z+26, r25	; 0x1a
    return c;
    722e:	90 e0       	ldi	r25, 0x00	; 0
    7230:	08 95       	ret

int HardwareSerial::read(void)
{
  // if the head isn't ahead of the tail, we don't have any characters
  if (_rx_buffer_head == _rx_buffer_tail) {
    return -1;
    7232:	8f ef       	ldi	r24, 0xFF	; 255
    7234:	9f ef       	ldi	r25, 0xFF	; 255
  } else {
    unsigned char c = _rx_buffer[_rx_buffer_tail];
    _rx_buffer_tail = (rx_buffer_index_t)(_rx_buffer_tail + 1) % SERIAL_RX_BUFFER_SIZE;
    return c;
  }
}
    7236:	08 95       	ret

00007238 <_Z14serialEventRunv>:
#endif

void serialEventRun(void)
{
#if defined(HAVE_HWSERIAL0)
  if (Serial0_available && serialEvent && Serial0_available()) serialEvent();
    7238:	87 e4       	ldi	r24, 0x47	; 71
    723a:	95 e3       	ldi	r25, 0x35	; 53
    723c:	89 2b       	or	r24, r25
    723e:	39 f0       	breq	.+14     	; 0x724e <_Z14serialEventRunv+0x16>
    7240:	80 e0       	ldi	r24, 0x00	; 0
    7242:	90 e0       	ldi	r25, 0x00	; 0
    7244:	89 2b       	or	r24, r25
    7246:	19 f0       	breq	.+6      	; 0x724e <_Z14serialEventRunv+0x16>
    7248:	22 dc       	rcall	.-1980   	; 0x6a8e <_Z17Serial0_availablev>
    724a:	81 11       	cpse	r24, r1
    724c:	25 c0       	rjmp	.+74     	; 0x7298 <_Z14serialEventRunv+0x60>
#endif
#if defined(HAVE_HWSERIAL1)
  if (Serial1_available && serialEvent1 && Serial1_available()) serialEvent1();
    724e:	80 e0       	ldi	r24, 0x00	; 0
    7250:	90 e0       	ldi	r25, 0x00	; 0
    7252:	89 2b       	or	r24, r25
    7254:	41 f0       	breq	.+16     	; 0x7266 <_Z14serialEventRunv+0x2e>
    7256:	80 e0       	ldi	r24, 0x00	; 0
    7258:	90 e0       	ldi	r25, 0x00	; 0
    725a:	89 2b       	or	r24, r25
    725c:	21 f0       	breq	.+8      	; 0x7266 <_Z14serialEventRunv+0x2e>
    725e:	0e 94 00 00 	call	0	; 0x0 <__vectors>
    7262:	81 11       	cpse	r24, r1
    7264:	1c c0       	rjmp	.+56     	; 0x729e <_Z14serialEventRunv+0x66>
#endif
#if defined(HAVE_HWSERIAL2)
  if (Serial2_available && serialEvent2 && Serial2_available()) serialEvent2();
    7266:	80 e0       	ldi	r24, 0x00	; 0
    7268:	90 e0       	ldi	r25, 0x00	; 0
    726a:	89 2b       	or	r24, r25
    726c:	41 f0       	breq	.+16     	; 0x727e <_Z14serialEventRunv+0x46>
    726e:	80 e0       	ldi	r24, 0x00	; 0
    7270:	90 e0       	ldi	r25, 0x00	; 0
    7272:	89 2b       	or	r24, r25
    7274:	21 f0       	breq	.+8      	; 0x727e <_Z14serialEventRunv+0x46>
    7276:	0e 94 00 00 	call	0	; 0x0 <__vectors>
    727a:	81 11       	cpse	r24, r1
    727c:	13 c0       	rjmp	.+38     	; 0x72a4 <_Z14serialEventRunv+0x6c>
#endif
#if defined(HAVE_HWSERIAL3)
  if (Serial3_available && serialEvent3 && Serial3_available()) serialEvent3();
    727e:	80 e0       	ldi	r24, 0x00	; 0
    7280:	90 e0       	ldi	r25, 0x00	; 0
    7282:	89 2b       	or	r24, r25
    7284:	a1 f0       	breq	.+40     	; 0x72ae <_Z14serialEventRunv+0x76>
    7286:	80 e0       	ldi	r24, 0x00	; 0
    7288:	90 e0       	ldi	r25, 0x00	; 0
    728a:	89 2b       	or	r24, r25
    728c:	81 f0       	breq	.+32     	; 0x72ae <_Z14serialEventRunv+0x76>
    728e:	0e 94 00 00 	call	0	; 0x0 <__vectors>
    7292:	81 11       	cpse	r24, r1
    7294:	0a c0       	rjmp	.+20     	; 0x72aa <_Z14serialEventRunv+0x72>
    7296:	08 95       	ret
#endif

void serialEventRun(void)
{
#if defined(HAVE_HWSERIAL0)
  if (Serial0_available && serialEvent && Serial0_available()) serialEvent();
    7298:	0e 94 00 00 	call	0	; 0x0 <__vectors>
    729c:	d8 cf       	rjmp	.-80     	; 0x724e <_Z14serialEventRunv+0x16>
#endif
#if defined(HAVE_HWSERIAL1)
  if (Serial1_available && serialEvent1 && Serial1_available()) serialEvent1();
    729e:	0e 94 00 00 	call	0	; 0x0 <__vectors>
    72a2:	e1 cf       	rjmp	.-62     	; 0x7266 <_Z14serialEventRunv+0x2e>
#endif
#if defined(HAVE_HWSERIAL2)
  if (Serial2_available && serialEvent2 && Serial2_available()) serialEvent2();
    72a4:	0e 94 00 00 	call	0	; 0x0 <__vectors>
    72a8:	ea cf       	rjmp	.-44     	; 0x727e <_Z14serialEventRunv+0x46>
#endif
#if defined(HAVE_HWSERIAL3)
  if (Serial3_available && serialEvent3 && Serial3_available()) serialEvent3();
    72aa:	0c 94 00 00 	jmp	0	; 0x0 <__vectors>
    72ae:	08 95       	ret

000072b0 <_ZN14HardwareSerial17_tx_udr_empty_irqEv>:
}

// Actual interrupt handlers //////////////////////////////////////////////////////////////

void HardwareSerial::_tx_udr_empty_irq(void)
{
    72b0:	fc 01       	movw	r30, r24
  // If interrupts are enabled, there must be more data in the output
  // buffer. Send the next byte
  unsigned char c = _tx_buffer[_tx_buffer_tail];
    72b2:	84 8d       	ldd	r24, Z+28	; 0x1c
    72b4:	df 01       	movw	r26, r30
    72b6:	a8 0f       	add	r26, r24
    72b8:	b1 1d       	adc	r27, r1
    72ba:	a3 5a       	subi	r26, 0xA3	; 163
    72bc:	bf 4f       	sbci	r27, 0xFF	; 255
    72be:	2c 91       	ld	r18, X
  _tx_buffer_tail = (_tx_buffer_tail + 1) % SERIAL_TX_BUFFER_SIZE;
    72c0:	84 8d       	ldd	r24, Z+28	; 0x1c
    72c2:	90 e0       	ldi	r25, 0x00	; 0
    72c4:	01 96       	adiw	r24, 0x01	; 1
    72c6:	8f 73       	andi	r24, 0x3F	; 63
    72c8:	99 27       	eor	r25, r25
    72ca:	84 8f       	std	Z+28, r24	; 0x1c

  *_udr = c;
    72cc:	a6 89       	ldd	r26, Z+22	; 0x16
    72ce:	b7 89       	ldd	r27, Z+23	; 0x17
    72d0:	2c 93       	st	X, r18

  // clear the TXC bit -- "can be cleared by writing a one to its bit
  // location". This makes sure flush() won't return until the bytes
  // actually got written
  sbi(*_ucsra, TXC0);
    72d2:	a0 89       	ldd	r26, Z+16	; 0x10
    72d4:	b1 89       	ldd	r27, Z+17	; 0x11
    72d6:	8c 91       	ld	r24, X
    72d8:	80 64       	ori	r24, 0x40	; 64
    72da:	8c 93       	st	X, r24

  if (_tx_buffer_head == _tx_buffer_tail) {
    72dc:	93 8d       	ldd	r25, Z+27	; 0x1b
    72de:	84 8d       	ldd	r24, Z+28	; 0x1c
    72e0:	98 13       	cpse	r25, r24
    72e2:	06 c0       	rjmp	.+12     	; 0x72f0 <_ZN14HardwareSerial17_tx_udr_empty_irqEv+0x40>
    // Buffer empty, so disable interrupts
    cbi(*_ucsrb, UDRIE0);
    72e4:	02 88       	ldd	r0, Z+18	; 0x12
    72e6:	f3 89       	ldd	r31, Z+19	; 0x13
    72e8:	e0 2d       	mov	r30, r0
    72ea:	80 81       	ld	r24, Z
    72ec:	8f 7d       	andi	r24, 0xDF	; 223
    72ee:	80 83       	st	Z, r24
    72f0:	08 95       	ret

000072f2 <_ZN14HardwareSerial5writeEh>:
  // If we get here, nothing is queued anymore (DRIE is disabled) and
  // the hardware finished tranmission (TXC is set).
}

size_t HardwareSerial::write(uint8_t c)
{
    72f2:	ef 92       	push	r14
    72f4:	ff 92       	push	r15
    72f6:	0f 93       	push	r16
    72f8:	1f 93       	push	r17
    72fa:	cf 93       	push	r28
    72fc:	df 93       	push	r29
    72fe:	ec 01       	movw	r28, r24
  _written = true;
    7300:	81 e0       	ldi	r24, 0x01	; 1
    7302:	88 8f       	std	Y+24, r24	; 0x18
  // If the buffer and the data register is empty, just write the byte
  // to the data register and be done. This shortcut helps
  // significantly improve the effective datarate at high (>
  // 500kbit/s) bitrates, where interrupt overhead becomes a slowdown.
  if (_tx_buffer_head == _tx_buffer_tail && bit_is_set(*_ucsra, UDRE0)) {
    7304:	9b 8d       	ldd	r25, Y+27	; 0x1b
    7306:	8c 8d       	ldd	r24, Y+28	; 0x1c
    7308:	98 13       	cpse	r25, r24
    730a:	05 c0       	rjmp	.+10     	; 0x7316 <_ZN14HardwareSerial5writeEh+0x24>
    730c:	e8 89       	ldd	r30, Y+16	; 0x10
    730e:	f9 89       	ldd	r31, Y+17	; 0x11
    7310:	80 81       	ld	r24, Z
    7312:	85 fd       	sbrc	r24, 5
    7314:	23 c0       	rjmp	.+70     	; 0x735c <_ZN14HardwareSerial5writeEh+0x6a>
    7316:	f6 2e       	mov	r15, r22
    *_udr = c;
    sbi(*_ucsra, TXC0);
    return 1;
  }
  tx_buffer_index_t i = (_tx_buffer_head + 1) % SERIAL_TX_BUFFER_SIZE;
    7318:	0b 8d       	ldd	r16, Y+27	; 0x1b
    731a:	10 e0       	ldi	r17, 0x00	; 0
    731c:	0f 5f       	subi	r16, 0xFF	; 255
    731e:	1f 4f       	sbci	r17, 0xFF	; 255
    7320:	0f 73       	andi	r16, 0x3F	; 63
    7322:	11 27       	eor	r17, r17
    7324:	e0 2e       	mov	r14, r16
	
  // If the output buffer is full, there's nothing for it other than to 
  // wait for the interrupt handler to empty it a bit
  while (i == _tx_buffer_tail) {
    7326:	8c 8d       	ldd	r24, Y+28	; 0x1c
    7328:	e8 12       	cpse	r14, r24
    732a:	0b c0       	rjmp	.+22     	; 0x7342 <_ZN14HardwareSerial5writeEh+0x50>
    if (bit_is_clear(SREG, SREG_I)) {
    732c:	0f b6       	in	r0, 0x3f	; 63
    732e:	07 fc       	sbrc	r0, 7
    7330:	fa cf       	rjmp	.-12     	; 0x7326 <_ZN14HardwareSerial5writeEh+0x34>
      // Interrupts are disabled, so we'll have to poll the data
      // register empty flag ourselves. If it is set, pretend an
      // interrupt has happened and call the handler to free up
      // space for us.
      if(bit_is_set(*_ucsra, UDRE0))
    7332:	e8 89       	ldd	r30, Y+16	; 0x10
    7334:	f9 89       	ldd	r31, Y+17	; 0x11
    7336:	80 81       	ld	r24, Z
    7338:	85 ff       	sbrs	r24, 5
    733a:	f5 cf       	rjmp	.-22     	; 0x7326 <_ZN14HardwareSerial5writeEh+0x34>
	_tx_udr_empty_irq();
    733c:	ce 01       	movw	r24, r28
    733e:	b8 df       	rcall	.-144    	; 0x72b0 <_ZN14HardwareSerial17_tx_udr_empty_irqEv>
    7340:	f2 cf       	rjmp	.-28     	; 0x7326 <_ZN14HardwareSerial5writeEh+0x34>
    } else {
      // nop, the interrupt handler will free up space for us
    }
  }

  _tx_buffer[_tx_buffer_head] = c;
    7342:	8b 8d       	ldd	r24, Y+27	; 0x1b
    7344:	fe 01       	movw	r30, r28
    7346:	e8 0f       	add	r30, r24
    7348:	f1 1d       	adc	r31, r1
    734a:	e3 5a       	subi	r30, 0xA3	; 163
    734c:	ff 4f       	sbci	r31, 0xFF	; 255
    734e:	f0 82       	st	Z, r15
  _tx_buffer_head = i;
    7350:	0b 8f       	std	Y+27, r16	; 0x1b
	
  sbi(*_ucsrb, UDRIE0);
    7352:	ea 89       	ldd	r30, Y+18	; 0x12
    7354:	fb 89       	ldd	r31, Y+19	; 0x13
    7356:	80 81       	ld	r24, Z
    7358:	80 62       	ori	r24, 0x20	; 32
    735a:	07 c0       	rjmp	.+14     	; 0x736a <_ZN14HardwareSerial5writeEh+0x78>
  // If the buffer and the data register is empty, just write the byte
  // to the data register and be done. This shortcut helps
  // significantly improve the effective datarate at high (>
  // 500kbit/s) bitrates, where interrupt overhead becomes a slowdown.
  if (_tx_buffer_head == _tx_buffer_tail && bit_is_set(*_ucsra, UDRE0)) {
    *_udr = c;
    735c:	ee 89       	ldd	r30, Y+22	; 0x16
    735e:	ff 89       	ldd	r31, Y+23	; 0x17
    7360:	60 83       	st	Z, r22
    sbi(*_ucsra, TXC0);
    7362:	e8 89       	ldd	r30, Y+16	; 0x10
    7364:	f9 89       	ldd	r31, Y+17	; 0x11
    7366:	80 81       	ld	r24, Z
    7368:	80 64       	ori	r24, 0x40	; 64
    736a:	80 83       	st	Z, r24
  _tx_buffer_head = i;
	
  sbi(*_ucsrb, UDRIE0);
  
  return 1;
}
    736c:	81 e0       	ldi	r24, 0x01	; 1
    736e:	90 e0       	ldi	r25, 0x00	; 0
    7370:	df 91       	pop	r29
    7372:	cf 91       	pop	r28
    7374:	1f 91       	pop	r17
    7376:	0f 91       	pop	r16
    7378:	ff 90       	pop	r15
    737a:	ef 90       	pop	r14
    737c:	08 95       	ret

0000737e <_ZN14HardwareSerial5flushEv>:
  if (head >= tail) return SERIAL_TX_BUFFER_SIZE - 1 - head + tail;
  return tail - head - 1;
}

void HardwareSerial::flush()
{
    737e:	cf 93       	push	r28
    7380:	df 93       	push	r29
    7382:	ec 01       	movw	r28, r24
  // If we have never written a byte, no need to flush. This special
  // case is needed since there is no way to force the TXC (transmit
  // complete) bit to 1 during initialization
  if (!_written)
    7384:	88 8d       	ldd	r24, Y+24	; 0x18
    7386:	88 23       	and	r24, r24
    7388:	c1 f0       	breq	.+48     	; 0x73ba <_ZN14HardwareSerial5flushEv+0x3c>
    return;

  while (bit_is_set(*_ucsrb, UDRIE0) || bit_is_clear(*_ucsra, TXC0)) {
    738a:	ea 89       	ldd	r30, Y+18	; 0x12
    738c:	fb 89       	ldd	r31, Y+19	; 0x13
    738e:	80 81       	ld	r24, Z
    7390:	85 fd       	sbrc	r24, 5
    7392:	05 c0       	rjmp	.+10     	; 0x739e <_ZN14HardwareSerial5flushEv+0x20>
    7394:	a8 89       	ldd	r26, Y+16	; 0x10
    7396:	b9 89       	ldd	r27, Y+17	; 0x11
    7398:	8c 91       	ld	r24, X
    739a:	86 fd       	sbrc	r24, 6
    739c:	0e c0       	rjmp	.+28     	; 0x73ba <_ZN14HardwareSerial5flushEv+0x3c>
    if (bit_is_clear(SREG, SREG_I) && bit_is_set(*_ucsrb, UDRIE0))
    739e:	0f b6       	in	r0, 0x3f	; 63
    73a0:	07 fc       	sbrc	r0, 7
    73a2:	f5 cf       	rjmp	.-22     	; 0x738e <_ZN14HardwareSerial5flushEv+0x10>
    73a4:	80 81       	ld	r24, Z
    73a6:	85 ff       	sbrs	r24, 5
    73a8:	f2 cf       	rjmp	.-28     	; 0x738e <_ZN14HardwareSerial5flushEv+0x10>
	// Interrupts are globally disabled, but the DR empty
	// interrupt should be enabled, so poll the DR empty flag to
	// prevent deadlock
	if (bit_is_set(*_ucsra, UDRE0))
    73aa:	a8 89       	ldd	r26, Y+16	; 0x10
    73ac:	b9 89       	ldd	r27, Y+17	; 0x11
    73ae:	8c 91       	ld	r24, X
    73b0:	85 ff       	sbrs	r24, 5
    73b2:	ed cf       	rjmp	.-38     	; 0x738e <_ZN14HardwareSerial5flushEv+0x10>
	  _tx_udr_empty_irq();
    73b4:	ce 01       	movw	r24, r28
    73b6:	7c df       	rcall	.-264    	; 0x72b0 <_ZN14HardwareSerial17_tx_udr_empty_irqEv>
    73b8:	e8 cf       	rjmp	.-48     	; 0x738a <_ZN14HardwareSerial5flushEv+0xc>
  }
  // If we get here, nothing is queued anymore (DRIE is disabled) and
  // the hardware finished tranmission (TXC is set).
}
    73ba:	df 91       	pop	r29
    73bc:	cf 91       	pop	r28
    73be:	08 95       	ret

000073c0 <yield>:
 * libraries or sketches that supports cooperative threads.
 *
 * Its defined as a weak symbol and it can be redefined to implement a
 * real cooperative scheduler.
 */
static void __empty() {
    73c0:	08 95       	ret

000073c2 <__mulsi3>:
    73c2:	db 01       	movw	r26, r22
    73c4:	8f 93       	push	r24
    73c6:	9f 93       	push	r25
    73c8:	65 d0       	rcall	.+202    	; 0x7494 <__muluhisi3>
    73ca:	bf 91       	pop	r27
    73cc:	af 91       	pop	r26
    73ce:	a2 9f       	mul	r26, r18
    73d0:	80 0d       	add	r24, r0
    73d2:	91 1d       	adc	r25, r1
    73d4:	a3 9f       	mul	r26, r19
    73d6:	90 0d       	add	r25, r0
    73d8:	b2 9f       	mul	r27, r18
    73da:	90 0d       	add	r25, r0
    73dc:	11 24       	eor	r1, r1
    73de:	08 95       	ret

000073e0 <__udivmodhi4>:
    73e0:	aa 1b       	sub	r26, r26
    73e2:	bb 1b       	sub	r27, r27
    73e4:	51 e1       	ldi	r21, 0x11	; 17
    73e6:	07 c0       	rjmp	.+14     	; 0x73f6 <__udivmodhi4_ep>

000073e8 <__udivmodhi4_loop>:
    73e8:	aa 1f       	adc	r26, r26
    73ea:	bb 1f       	adc	r27, r27
    73ec:	a6 17       	cp	r26, r22
    73ee:	b7 07       	cpc	r27, r23
    73f0:	10 f0       	brcs	.+4      	; 0x73f6 <__udivmodhi4_ep>
    73f2:	a6 1b       	sub	r26, r22
    73f4:	b7 0b       	sbc	r27, r23

000073f6 <__udivmodhi4_ep>:
    73f6:	88 1f       	adc	r24, r24
    73f8:	99 1f       	adc	r25, r25
    73fa:	5a 95       	dec	r21
    73fc:	a9 f7       	brne	.-22     	; 0x73e8 <__udivmodhi4_loop>
    73fe:	80 95       	com	r24
    7400:	90 95       	com	r25
    7402:	bc 01       	movw	r22, r24
    7404:	cd 01       	movw	r24, r26
    7406:	08 95       	ret

00007408 <__udivmodsi4>:
    7408:	a1 e2       	ldi	r26, 0x21	; 33
    740a:	1a 2e       	mov	r1, r26
    740c:	aa 1b       	sub	r26, r26
    740e:	bb 1b       	sub	r27, r27
    7410:	fd 01       	movw	r30, r26
    7412:	0d c0       	rjmp	.+26     	; 0x742e <__udivmodsi4_ep>

00007414 <__udivmodsi4_loop>:
    7414:	aa 1f       	adc	r26, r26
    7416:	bb 1f       	adc	r27, r27
    7418:	ee 1f       	adc	r30, r30
    741a:	ff 1f       	adc	r31, r31
    741c:	a2 17       	cp	r26, r18
    741e:	b3 07       	cpc	r27, r19
    7420:	e4 07       	cpc	r30, r20
    7422:	f5 07       	cpc	r31, r21
    7424:	20 f0       	brcs	.+8      	; 0x742e <__udivmodsi4_ep>
    7426:	a2 1b       	sub	r26, r18
    7428:	b3 0b       	sbc	r27, r19
    742a:	e4 0b       	sbc	r30, r20
    742c:	f5 0b       	sbc	r31, r21

0000742e <__udivmodsi4_ep>:
    742e:	66 1f       	adc	r22, r22
    7430:	77 1f       	adc	r23, r23
    7432:	88 1f       	adc	r24, r24
    7434:	99 1f       	adc	r25, r25
    7436:	1a 94       	dec	r1
    7438:	69 f7       	brne	.-38     	; 0x7414 <__udivmodsi4_loop>
    743a:	60 95       	com	r22
    743c:	70 95       	com	r23
    743e:	80 95       	com	r24
    7440:	90 95       	com	r25
    7442:	9b 01       	movw	r18, r22
    7444:	ac 01       	movw	r20, r24
    7446:	bd 01       	movw	r22, r26
    7448:	cf 01       	movw	r24, r30
    744a:	08 95       	ret

0000744c <__divmodsi4>:
    744c:	05 2e       	mov	r0, r21
    744e:	97 fb       	bst	r25, 7
    7450:	16 f4       	brtc	.+4      	; 0x7456 <__divmodsi4+0xa>
    7452:	00 94       	com	r0
    7454:	0f d0       	rcall	.+30     	; 0x7474 <__negsi2>
    7456:	57 fd       	sbrc	r21, 7
    7458:	05 d0       	rcall	.+10     	; 0x7464 <__divmodsi4_neg2>
    745a:	d6 df       	rcall	.-84     	; 0x7408 <__udivmodsi4>
    745c:	07 fc       	sbrc	r0, 7
    745e:	02 d0       	rcall	.+4      	; 0x7464 <__divmodsi4_neg2>
    7460:	46 f4       	brtc	.+16     	; 0x7472 <__divmodsi4_exit>
    7462:	08 c0       	rjmp	.+16     	; 0x7474 <__negsi2>

00007464 <__divmodsi4_neg2>:
    7464:	50 95       	com	r21
    7466:	40 95       	com	r20
    7468:	30 95       	com	r19
    746a:	21 95       	neg	r18
    746c:	3f 4f       	sbci	r19, 0xFF	; 255
    746e:	4f 4f       	sbci	r20, 0xFF	; 255
    7470:	5f 4f       	sbci	r21, 0xFF	; 255

00007472 <__divmodsi4_exit>:
    7472:	08 95       	ret

00007474 <__negsi2>:
    7474:	90 95       	com	r25
    7476:	80 95       	com	r24
    7478:	70 95       	com	r23
    747a:	61 95       	neg	r22
    747c:	7f 4f       	sbci	r23, 0xFF	; 255
    747e:	8f 4f       	sbci	r24, 0xFF	; 255
    7480:	9f 4f       	sbci	r25, 0xFF	; 255
    7482:	08 95       	ret

00007484 <__tablejump2__>:
    7484:	ee 0f       	add	r30, r30
    7486:	ff 1f       	adc	r31, r31
    7488:	88 1f       	adc	r24, r24
    748a:	8b bf       	out	0x3b, r24	; 59
    748c:	07 90       	elpm	r0, Z+
    748e:	f6 91       	elpm	r31, Z
    7490:	e0 2d       	mov	r30, r0
    7492:	19 94       	eijmp

00007494 <__muluhisi3>:
    7494:	09 d0       	rcall	.+18     	; 0x74a8 <__umulhisi3>
    7496:	a5 9f       	mul	r26, r21
    7498:	90 0d       	add	r25, r0
    749a:	b4 9f       	mul	r27, r20
    749c:	90 0d       	add	r25, r0
    749e:	a4 9f       	mul	r26, r20
    74a0:	80 0d       	add	r24, r0
    74a2:	91 1d       	adc	r25, r1
    74a4:	11 24       	eor	r1, r1
    74a6:	08 95       	ret

000074a8 <__umulhisi3>:
    74a8:	a2 9f       	mul	r26, r18
    74aa:	b0 01       	movw	r22, r0
    74ac:	b3 9f       	mul	r27, r19
    74ae:	c0 01       	movw	r24, r0
    74b0:	a3 9f       	mul	r26, r19
    74b2:	70 0d       	add	r23, r0
    74b4:	81 1d       	adc	r24, r1
    74b6:	11 24       	eor	r1, r1
    74b8:	91 1d       	adc	r25, r1
    74ba:	b2 9f       	mul	r27, r18
    74bc:	70 0d       	add	r23, r0
    74be:	81 1d       	adc	r24, r1
    74c0:	11 24       	eor	r1, r1
    74c2:	91 1d       	adc	r25, r1
    74c4:	08 95       	ret

000074c6 <malloc>:
    74c6:	0f 93       	push	r16
    74c8:	1f 93       	push	r17
    74ca:	cf 93       	push	r28
    74cc:	df 93       	push	r29
    74ce:	82 30       	cpi	r24, 0x02	; 2
    74d0:	91 05       	cpc	r25, r1
    74d2:	10 f4       	brcc	.+4      	; 0x74d8 <malloc+0x12>
    74d4:	82 e0       	ldi	r24, 0x02	; 2
    74d6:	90 e0       	ldi	r25, 0x00	; 0
    74d8:	e0 91 40 07 	lds	r30, 0x0740	; 0x800740 <__flp>
    74dc:	f0 91 41 07 	lds	r31, 0x0741	; 0x800741 <__flp+0x1>
    74e0:	20 e0       	ldi	r18, 0x00	; 0
    74e2:	30 e0       	ldi	r19, 0x00	; 0
    74e4:	a0 e0       	ldi	r26, 0x00	; 0
    74e6:	b0 e0       	ldi	r27, 0x00	; 0
    74e8:	30 97       	sbiw	r30, 0x00	; 0
    74ea:	19 f1       	breq	.+70     	; 0x7532 <malloc+0x6c>
    74ec:	40 81       	ld	r20, Z
    74ee:	51 81       	ldd	r21, Z+1	; 0x01
    74f0:	02 81       	ldd	r16, Z+2	; 0x02
    74f2:	13 81       	ldd	r17, Z+3	; 0x03
    74f4:	48 17       	cp	r20, r24
    74f6:	59 07       	cpc	r21, r25
    74f8:	c8 f0       	brcs	.+50     	; 0x752c <malloc+0x66>
    74fa:	84 17       	cp	r24, r20
    74fc:	95 07       	cpc	r25, r21
    74fe:	69 f4       	brne	.+26     	; 0x751a <malloc+0x54>
    7500:	10 97       	sbiw	r26, 0x00	; 0
    7502:	31 f0       	breq	.+12     	; 0x7510 <malloc+0x4a>
    7504:	12 96       	adiw	r26, 0x02	; 2
    7506:	0c 93       	st	X, r16
    7508:	12 97       	sbiw	r26, 0x02	; 2
    750a:	13 96       	adiw	r26, 0x03	; 3
    750c:	1c 93       	st	X, r17
    750e:	27 c0       	rjmp	.+78     	; 0x755e <malloc+0x98>
    7510:	00 93 40 07 	sts	0x0740, r16	; 0x800740 <__flp>
    7514:	10 93 41 07 	sts	0x0741, r17	; 0x800741 <__flp+0x1>
    7518:	22 c0       	rjmp	.+68     	; 0x755e <malloc+0x98>
    751a:	21 15       	cp	r18, r1
    751c:	31 05       	cpc	r19, r1
    751e:	19 f0       	breq	.+6      	; 0x7526 <malloc+0x60>
    7520:	42 17       	cp	r20, r18
    7522:	53 07       	cpc	r21, r19
    7524:	18 f4       	brcc	.+6      	; 0x752c <malloc+0x66>
    7526:	9a 01       	movw	r18, r20
    7528:	bd 01       	movw	r22, r26
    752a:	ef 01       	movw	r28, r30
    752c:	df 01       	movw	r26, r30
    752e:	f8 01       	movw	r30, r16
    7530:	db cf       	rjmp	.-74     	; 0x74e8 <malloc+0x22>
    7532:	21 15       	cp	r18, r1
    7534:	31 05       	cpc	r19, r1
    7536:	f9 f0       	breq	.+62     	; 0x7576 <malloc+0xb0>
    7538:	28 1b       	sub	r18, r24
    753a:	39 0b       	sbc	r19, r25
    753c:	24 30       	cpi	r18, 0x04	; 4
    753e:	31 05       	cpc	r19, r1
    7540:	80 f4       	brcc	.+32     	; 0x7562 <malloc+0x9c>
    7542:	8a 81       	ldd	r24, Y+2	; 0x02
    7544:	9b 81       	ldd	r25, Y+3	; 0x03
    7546:	61 15       	cp	r22, r1
    7548:	71 05       	cpc	r23, r1
    754a:	21 f0       	breq	.+8      	; 0x7554 <malloc+0x8e>
    754c:	fb 01       	movw	r30, r22
    754e:	93 83       	std	Z+3, r25	; 0x03
    7550:	82 83       	std	Z+2, r24	; 0x02
    7552:	04 c0       	rjmp	.+8      	; 0x755c <malloc+0x96>
    7554:	90 93 41 07 	sts	0x0741, r25	; 0x800741 <__flp+0x1>
    7558:	80 93 40 07 	sts	0x0740, r24	; 0x800740 <__flp>
    755c:	fe 01       	movw	r30, r28
    755e:	32 96       	adiw	r30, 0x02	; 2
    7560:	44 c0       	rjmp	.+136    	; 0x75ea <malloc+0x124>
    7562:	fe 01       	movw	r30, r28
    7564:	e2 0f       	add	r30, r18
    7566:	f3 1f       	adc	r31, r19
    7568:	81 93       	st	Z+, r24
    756a:	91 93       	st	Z+, r25
    756c:	22 50       	subi	r18, 0x02	; 2
    756e:	31 09       	sbc	r19, r1
    7570:	39 83       	std	Y+1, r19	; 0x01
    7572:	28 83       	st	Y, r18
    7574:	3a c0       	rjmp	.+116    	; 0x75ea <malloc+0x124>
    7576:	20 91 3e 07 	lds	r18, 0x073E	; 0x80073e <__brkval>
    757a:	30 91 3f 07 	lds	r19, 0x073F	; 0x80073f <__brkval+0x1>
    757e:	23 2b       	or	r18, r19
    7580:	41 f4       	brne	.+16     	; 0x7592 <malloc+0xcc>
    7582:	20 91 02 02 	lds	r18, 0x0202	; 0x800202 <__malloc_heap_start>
    7586:	30 91 03 02 	lds	r19, 0x0203	; 0x800203 <__malloc_heap_start+0x1>
    758a:	30 93 3f 07 	sts	0x073F, r19	; 0x80073f <__brkval+0x1>
    758e:	20 93 3e 07 	sts	0x073E, r18	; 0x80073e <__brkval>
    7592:	20 91 00 02 	lds	r18, 0x0200	; 0x800200 <__data_start>
    7596:	30 91 01 02 	lds	r19, 0x0201	; 0x800201 <__data_start+0x1>
    759a:	21 15       	cp	r18, r1
    759c:	31 05       	cpc	r19, r1
    759e:	41 f4       	brne	.+16     	; 0x75b0 <malloc+0xea>
    75a0:	2d b7       	in	r18, 0x3d	; 61
    75a2:	3e b7       	in	r19, 0x3e	; 62
    75a4:	40 91 04 02 	lds	r20, 0x0204	; 0x800204 <__malloc_margin>
    75a8:	50 91 05 02 	lds	r21, 0x0205	; 0x800205 <__malloc_margin+0x1>
    75ac:	24 1b       	sub	r18, r20
    75ae:	35 0b       	sbc	r19, r21
    75b0:	e0 91 3e 07 	lds	r30, 0x073E	; 0x80073e <__brkval>
    75b4:	f0 91 3f 07 	lds	r31, 0x073F	; 0x80073f <__brkval+0x1>
    75b8:	e2 17       	cp	r30, r18
    75ba:	f3 07       	cpc	r31, r19
    75bc:	a0 f4       	brcc	.+40     	; 0x75e6 <malloc+0x120>
    75be:	2e 1b       	sub	r18, r30
    75c0:	3f 0b       	sbc	r19, r31
    75c2:	28 17       	cp	r18, r24
    75c4:	39 07       	cpc	r19, r25
    75c6:	78 f0       	brcs	.+30     	; 0x75e6 <malloc+0x120>
    75c8:	ac 01       	movw	r20, r24
    75ca:	4e 5f       	subi	r20, 0xFE	; 254
    75cc:	5f 4f       	sbci	r21, 0xFF	; 255
    75ce:	24 17       	cp	r18, r20
    75d0:	35 07       	cpc	r19, r21
    75d2:	48 f0       	brcs	.+18     	; 0x75e6 <malloc+0x120>
    75d4:	4e 0f       	add	r20, r30
    75d6:	5f 1f       	adc	r21, r31
    75d8:	50 93 3f 07 	sts	0x073F, r21	; 0x80073f <__brkval+0x1>
    75dc:	40 93 3e 07 	sts	0x073E, r20	; 0x80073e <__brkval>
    75e0:	81 93       	st	Z+, r24
    75e2:	91 93       	st	Z+, r25
    75e4:	02 c0       	rjmp	.+4      	; 0x75ea <malloc+0x124>
    75e6:	e0 e0       	ldi	r30, 0x00	; 0
    75e8:	f0 e0       	ldi	r31, 0x00	; 0
    75ea:	cf 01       	movw	r24, r30
    75ec:	df 91       	pop	r29
    75ee:	cf 91       	pop	r28
    75f0:	1f 91       	pop	r17
    75f2:	0f 91       	pop	r16
    75f4:	08 95       	ret

000075f6 <free>:
    75f6:	cf 93       	push	r28
    75f8:	df 93       	push	r29
    75fa:	00 97       	sbiw	r24, 0x00	; 0
    75fc:	09 f4       	brne	.+2      	; 0x7600 <free+0xa>
    75fe:	81 c0       	rjmp	.+258    	; 0x7702 <free+0x10c>
    7600:	fc 01       	movw	r30, r24
    7602:	32 97       	sbiw	r30, 0x02	; 2
    7604:	13 82       	std	Z+3, r1	; 0x03
    7606:	12 82       	std	Z+2, r1	; 0x02
    7608:	a0 91 40 07 	lds	r26, 0x0740	; 0x800740 <__flp>
    760c:	b0 91 41 07 	lds	r27, 0x0741	; 0x800741 <__flp+0x1>
    7610:	10 97       	sbiw	r26, 0x00	; 0
    7612:	81 f4       	brne	.+32     	; 0x7634 <free+0x3e>
    7614:	20 81       	ld	r18, Z
    7616:	31 81       	ldd	r19, Z+1	; 0x01
    7618:	82 0f       	add	r24, r18
    761a:	93 1f       	adc	r25, r19
    761c:	20 91 3e 07 	lds	r18, 0x073E	; 0x80073e <__brkval>
    7620:	30 91 3f 07 	lds	r19, 0x073F	; 0x80073f <__brkval+0x1>
    7624:	28 17       	cp	r18, r24
    7626:	39 07       	cpc	r19, r25
    7628:	51 f5       	brne	.+84     	; 0x767e <free+0x88>
    762a:	f0 93 3f 07 	sts	0x073F, r31	; 0x80073f <__brkval+0x1>
    762e:	e0 93 3e 07 	sts	0x073E, r30	; 0x80073e <__brkval>
    7632:	67 c0       	rjmp	.+206    	; 0x7702 <free+0x10c>
    7634:	ed 01       	movw	r28, r26
    7636:	20 e0       	ldi	r18, 0x00	; 0
    7638:	30 e0       	ldi	r19, 0x00	; 0
    763a:	ce 17       	cp	r28, r30
    763c:	df 07       	cpc	r29, r31
    763e:	40 f4       	brcc	.+16     	; 0x7650 <free+0x5a>
    7640:	4a 81       	ldd	r20, Y+2	; 0x02
    7642:	5b 81       	ldd	r21, Y+3	; 0x03
    7644:	9e 01       	movw	r18, r28
    7646:	41 15       	cp	r20, r1
    7648:	51 05       	cpc	r21, r1
    764a:	f1 f0       	breq	.+60     	; 0x7688 <free+0x92>
    764c:	ea 01       	movw	r28, r20
    764e:	f5 cf       	rjmp	.-22     	; 0x763a <free+0x44>
    7650:	d3 83       	std	Z+3, r29	; 0x03
    7652:	c2 83       	std	Z+2, r28	; 0x02
    7654:	40 81       	ld	r20, Z
    7656:	51 81       	ldd	r21, Z+1	; 0x01
    7658:	84 0f       	add	r24, r20
    765a:	95 1f       	adc	r25, r21
    765c:	c8 17       	cp	r28, r24
    765e:	d9 07       	cpc	r29, r25
    7660:	59 f4       	brne	.+22     	; 0x7678 <free+0x82>
    7662:	88 81       	ld	r24, Y
    7664:	99 81       	ldd	r25, Y+1	; 0x01
    7666:	84 0f       	add	r24, r20
    7668:	95 1f       	adc	r25, r21
    766a:	02 96       	adiw	r24, 0x02	; 2
    766c:	91 83       	std	Z+1, r25	; 0x01
    766e:	80 83       	st	Z, r24
    7670:	8a 81       	ldd	r24, Y+2	; 0x02
    7672:	9b 81       	ldd	r25, Y+3	; 0x03
    7674:	93 83       	std	Z+3, r25	; 0x03
    7676:	82 83       	std	Z+2, r24	; 0x02
    7678:	21 15       	cp	r18, r1
    767a:	31 05       	cpc	r19, r1
    767c:	29 f4       	brne	.+10     	; 0x7688 <free+0x92>
    767e:	f0 93 41 07 	sts	0x0741, r31	; 0x800741 <__flp+0x1>
    7682:	e0 93 40 07 	sts	0x0740, r30	; 0x800740 <__flp>
    7686:	3d c0       	rjmp	.+122    	; 0x7702 <free+0x10c>
    7688:	e9 01       	movw	r28, r18
    768a:	fb 83       	std	Y+3, r31	; 0x03
    768c:	ea 83       	std	Y+2, r30	; 0x02
    768e:	49 91       	ld	r20, Y+
    7690:	59 91       	ld	r21, Y+
    7692:	c4 0f       	add	r28, r20
    7694:	d5 1f       	adc	r29, r21
    7696:	ec 17       	cp	r30, r28
    7698:	fd 07       	cpc	r31, r29
    769a:	61 f4       	brne	.+24     	; 0x76b4 <free+0xbe>
    769c:	80 81       	ld	r24, Z
    769e:	91 81       	ldd	r25, Z+1	; 0x01
    76a0:	84 0f       	add	r24, r20
    76a2:	95 1f       	adc	r25, r21
    76a4:	02 96       	adiw	r24, 0x02	; 2
    76a6:	e9 01       	movw	r28, r18
    76a8:	99 83       	std	Y+1, r25	; 0x01
    76aa:	88 83       	st	Y, r24
    76ac:	82 81       	ldd	r24, Z+2	; 0x02
    76ae:	93 81       	ldd	r25, Z+3	; 0x03
    76b0:	9b 83       	std	Y+3, r25	; 0x03
    76b2:	8a 83       	std	Y+2, r24	; 0x02
    76b4:	e0 e0       	ldi	r30, 0x00	; 0
    76b6:	f0 e0       	ldi	r31, 0x00	; 0
    76b8:	12 96       	adiw	r26, 0x02	; 2
    76ba:	8d 91       	ld	r24, X+
    76bc:	9c 91       	ld	r25, X
    76be:	13 97       	sbiw	r26, 0x03	; 3
    76c0:	00 97       	sbiw	r24, 0x00	; 0
    76c2:	19 f0       	breq	.+6      	; 0x76ca <free+0xd4>
    76c4:	fd 01       	movw	r30, r26
    76c6:	dc 01       	movw	r26, r24
    76c8:	f7 cf       	rjmp	.-18     	; 0x76b8 <free+0xc2>
    76ca:	8d 91       	ld	r24, X+
    76cc:	9c 91       	ld	r25, X
    76ce:	11 97       	sbiw	r26, 0x01	; 1
    76d0:	9d 01       	movw	r18, r26
    76d2:	2e 5f       	subi	r18, 0xFE	; 254
    76d4:	3f 4f       	sbci	r19, 0xFF	; 255
    76d6:	82 0f       	add	r24, r18
    76d8:	93 1f       	adc	r25, r19
    76da:	20 91 3e 07 	lds	r18, 0x073E	; 0x80073e <__brkval>
    76de:	30 91 3f 07 	lds	r19, 0x073F	; 0x80073f <__brkval+0x1>
    76e2:	28 17       	cp	r18, r24
    76e4:	39 07       	cpc	r19, r25
    76e6:	69 f4       	brne	.+26     	; 0x7702 <free+0x10c>
    76e8:	30 97       	sbiw	r30, 0x00	; 0
    76ea:	29 f4       	brne	.+10     	; 0x76f6 <free+0x100>
    76ec:	10 92 41 07 	sts	0x0741, r1	; 0x800741 <__flp+0x1>
    76f0:	10 92 40 07 	sts	0x0740, r1	; 0x800740 <__flp>
    76f4:	02 c0       	rjmp	.+4      	; 0x76fa <free+0x104>
    76f6:	13 82       	std	Z+3, r1	; 0x03
    76f8:	12 82       	std	Z+2, r1	; 0x02
    76fa:	b0 93 3f 07 	sts	0x073F, r27	; 0x80073f <__brkval+0x1>
    76fe:	a0 93 3e 07 	sts	0x073E, r26	; 0x80073e <__brkval>
    7702:	df 91       	pop	r29
    7704:	cf 91       	pop	r28
    7706:	08 95       	ret

00007708 <realloc>:
    7708:	6f 92       	push	r6
    770a:	7f 92       	push	r7
    770c:	8f 92       	push	r8
    770e:	9f 92       	push	r9
    7710:	af 92       	push	r10
    7712:	bf 92       	push	r11
    7714:	cf 92       	push	r12
    7716:	df 92       	push	r13
    7718:	ef 92       	push	r14
    771a:	ff 92       	push	r15
    771c:	0f 93       	push	r16
    771e:	1f 93       	push	r17
    7720:	cf 93       	push	r28
    7722:	df 93       	push	r29
    7724:	00 97       	sbiw	r24, 0x00	; 0
    7726:	81 f4       	brne	.+32     	; 0x7748 <realloc+0x40>
    7728:	cb 01       	movw	r24, r22
    772a:	df 91       	pop	r29
    772c:	cf 91       	pop	r28
    772e:	1f 91       	pop	r17
    7730:	0f 91       	pop	r16
    7732:	ff 90       	pop	r15
    7734:	ef 90       	pop	r14
    7736:	df 90       	pop	r13
    7738:	cf 90       	pop	r12
    773a:	bf 90       	pop	r11
    773c:	af 90       	pop	r10
    773e:	9f 90       	pop	r9
    7740:	8f 90       	pop	r8
    7742:	7f 90       	pop	r7
    7744:	6f 90       	pop	r6
    7746:	bf ce       	rjmp	.-642    	; 0x74c6 <malloc>
    7748:	fc 01       	movw	r30, r24
    774a:	e6 0f       	add	r30, r22
    774c:	f7 1f       	adc	r31, r23
    774e:	9c 01       	movw	r18, r24
    7750:	22 50       	subi	r18, 0x02	; 2
    7752:	31 09       	sbc	r19, r1
    7754:	e2 17       	cp	r30, r18
    7756:	f3 07       	cpc	r31, r19
    7758:	08 f4       	brcc	.+2      	; 0x775c <realloc+0x54>
    775a:	a5 c0       	rjmp	.+330    	; 0x78a6 <realloc+0x19e>
    775c:	ec 01       	movw	r28, r24
    775e:	d9 01       	movw	r26, r18
    7760:	0d 91       	ld	r16, X+
    7762:	1c 91       	ld	r17, X
    7764:	11 97       	sbiw	r26, 0x01	; 1
    7766:	06 17       	cp	r16, r22
    7768:	17 07       	cpc	r17, r23
    776a:	a8 f0       	brcs	.+42     	; 0x7796 <realloc+0x8e>
    776c:	05 30       	cpi	r16, 0x05	; 5
    776e:	11 05       	cpc	r17, r1
    7770:	08 f4       	brcc	.+2      	; 0x7774 <realloc+0x6c>
    7772:	97 c0       	rjmp	.+302    	; 0x78a2 <realloc+0x19a>
    7774:	c8 01       	movw	r24, r16
    7776:	04 97       	sbiw	r24, 0x04	; 4
    7778:	86 17       	cp	r24, r22
    777a:	97 07       	cpc	r25, r23
    777c:	08 f4       	brcc	.+2      	; 0x7780 <realloc+0x78>
    777e:	91 c0       	rjmp	.+290    	; 0x78a2 <realloc+0x19a>
    7780:	02 50       	subi	r16, 0x02	; 2
    7782:	11 09       	sbc	r17, r1
    7784:	06 1b       	sub	r16, r22
    7786:	17 0b       	sbc	r17, r23
    7788:	01 93       	st	Z+, r16
    778a:	11 93       	st	Z+, r17
    778c:	6d 93       	st	X+, r22
    778e:	7c 93       	st	X, r23
    7790:	cf 01       	movw	r24, r30
    7792:	31 df       	rcall	.-414    	; 0x75f6 <free>
    7794:	86 c0       	rjmp	.+268    	; 0x78a2 <realloc+0x19a>
    7796:	5b 01       	movw	r10, r22
    7798:	a0 1a       	sub	r10, r16
    779a:	b1 0a       	sbc	r11, r17
    779c:	4c 01       	movw	r8, r24
    779e:	80 0e       	add	r8, r16
    77a0:	91 1e       	adc	r9, r17
    77a2:	a0 91 40 07 	lds	r26, 0x0740	; 0x800740 <__flp>
    77a6:	b0 91 41 07 	lds	r27, 0x0741	; 0x800741 <__flp+0x1>
    77aa:	61 2c       	mov	r6, r1
    77ac:	71 2c       	mov	r7, r1
    77ae:	e1 2c       	mov	r14, r1
    77b0:	f1 2c       	mov	r15, r1
    77b2:	10 97       	sbiw	r26, 0x00	; 0
    77b4:	09 f4       	brne	.+2      	; 0x77b8 <realloc+0xb0>
    77b6:	46 c0       	rjmp	.+140    	; 0x7844 <realloc+0x13c>
    77b8:	8d 91       	ld	r24, X+
    77ba:	9c 91       	ld	r25, X
    77bc:	11 97       	sbiw	r26, 0x01	; 1
    77be:	a8 15       	cp	r26, r8
    77c0:	b9 05       	cpc	r27, r9
    77c2:	b1 f5       	brne	.+108    	; 0x7830 <realloc+0x128>
    77c4:	6c 01       	movw	r12, r24
    77c6:	42 e0       	ldi	r20, 0x02	; 2
    77c8:	c4 0e       	add	r12, r20
    77ca:	d1 1c       	adc	r13, r1
    77cc:	ca 14       	cp	r12, r10
    77ce:	db 04       	cpc	r13, r11
    77d0:	78 f1       	brcs	.+94     	; 0x7830 <realloc+0x128>
    77d2:	4c 01       	movw	r8, r24
    77d4:	8a 18       	sub	r8, r10
    77d6:	9b 08       	sbc	r9, r11
    77d8:	64 01       	movw	r12, r8
    77da:	42 e0       	ldi	r20, 0x02	; 2
    77dc:	c4 0e       	add	r12, r20
    77de:	d1 1c       	adc	r13, r1
    77e0:	12 96       	adiw	r26, 0x02	; 2
    77e2:	bc 90       	ld	r11, X
    77e4:	12 97       	sbiw	r26, 0x02	; 2
    77e6:	13 96       	adiw	r26, 0x03	; 3
    77e8:	ac 91       	ld	r26, X
    77ea:	b5 e0       	ldi	r27, 0x05	; 5
    77ec:	cb 16       	cp	r12, r27
    77ee:	d1 04       	cpc	r13, r1
    77f0:	40 f0       	brcs	.+16     	; 0x7802 <realloc+0xfa>
    77f2:	b2 82       	std	Z+2, r11	; 0x02
    77f4:	a3 83       	std	Z+3, r26	; 0x03
    77f6:	91 82       	std	Z+1, r9	; 0x01
    77f8:	80 82       	st	Z, r8
    77fa:	d9 01       	movw	r26, r18
    77fc:	6d 93       	st	X+, r22
    77fe:	7c 93       	st	X, r23
    7800:	09 c0       	rjmp	.+18     	; 0x7814 <realloc+0x10c>
    7802:	0e 5f       	subi	r16, 0xFE	; 254
    7804:	1f 4f       	sbci	r17, 0xFF	; 255
    7806:	80 0f       	add	r24, r16
    7808:	91 1f       	adc	r25, r17
    780a:	f9 01       	movw	r30, r18
    780c:	91 83       	std	Z+1, r25	; 0x01
    780e:	80 83       	st	Z, r24
    7810:	eb 2d       	mov	r30, r11
    7812:	fa 2f       	mov	r31, r26
    7814:	e1 14       	cp	r14, r1
    7816:	f1 04       	cpc	r15, r1
    7818:	31 f0       	breq	.+12     	; 0x7826 <realloc+0x11e>
    781a:	d7 01       	movw	r26, r14
    781c:	13 96       	adiw	r26, 0x03	; 3
    781e:	fc 93       	st	X, r31
    7820:	ee 93       	st	-X, r30
    7822:	12 97       	sbiw	r26, 0x02	; 2
    7824:	3e c0       	rjmp	.+124    	; 0x78a2 <realloc+0x19a>
    7826:	f0 93 41 07 	sts	0x0741, r31	; 0x800741 <__flp+0x1>
    782a:	e0 93 40 07 	sts	0x0740, r30	; 0x800740 <__flp>
    782e:	39 c0       	rjmp	.+114    	; 0x78a2 <realloc+0x19a>
    7830:	68 16       	cp	r6, r24
    7832:	79 06       	cpc	r7, r25
    7834:	08 f4       	brcc	.+2      	; 0x7838 <realloc+0x130>
    7836:	3c 01       	movw	r6, r24
    7838:	7d 01       	movw	r14, r26
    783a:	12 96       	adiw	r26, 0x02	; 2
    783c:	0d 90       	ld	r0, X+
    783e:	bc 91       	ld	r27, X
    7840:	a0 2d       	mov	r26, r0
    7842:	b7 cf       	rjmp	.-146    	; 0x77b2 <realloc+0xaa>
    7844:	80 91 3e 07 	lds	r24, 0x073E	; 0x80073e <__brkval>
    7848:	90 91 3f 07 	lds	r25, 0x073F	; 0x80073f <__brkval+0x1>
    784c:	88 16       	cp	r8, r24
    784e:	99 06       	cpc	r9, r25
    7850:	e1 f4       	brne	.+56     	; 0x788a <realloc+0x182>
    7852:	66 16       	cp	r6, r22
    7854:	77 06       	cpc	r7, r23
    7856:	c8 f4       	brcc	.+50     	; 0x788a <realloc+0x182>
    7858:	80 91 00 02 	lds	r24, 0x0200	; 0x800200 <__data_start>
    785c:	90 91 01 02 	lds	r25, 0x0201	; 0x800201 <__data_start+0x1>
    7860:	00 97       	sbiw	r24, 0x00	; 0
    7862:	41 f4       	brne	.+16     	; 0x7874 <realloc+0x16c>
    7864:	8d b7       	in	r24, 0x3d	; 61
    7866:	9e b7       	in	r25, 0x3e	; 62
    7868:	40 91 04 02 	lds	r20, 0x0204	; 0x800204 <__malloc_margin>
    786c:	50 91 05 02 	lds	r21, 0x0205	; 0x800205 <__malloc_margin+0x1>
    7870:	84 1b       	sub	r24, r20
    7872:	95 0b       	sbc	r25, r21
    7874:	e8 17       	cp	r30, r24
    7876:	f9 07       	cpc	r31, r25
    7878:	b0 f4       	brcc	.+44     	; 0x78a6 <realloc+0x19e>
    787a:	f0 93 3f 07 	sts	0x073F, r31	; 0x80073f <__brkval+0x1>
    787e:	e0 93 3e 07 	sts	0x073E, r30	; 0x80073e <__brkval>
    7882:	f9 01       	movw	r30, r18
    7884:	71 83       	std	Z+1, r23	; 0x01
    7886:	60 83       	st	Z, r22
    7888:	0c c0       	rjmp	.+24     	; 0x78a2 <realloc+0x19a>
    788a:	cb 01       	movw	r24, r22
    788c:	1c de       	rcall	.-968    	; 0x74c6 <malloc>
    788e:	7c 01       	movw	r14, r24
    7890:	00 97       	sbiw	r24, 0x00	; 0
    7892:	49 f0       	breq	.+18     	; 0x78a6 <realloc+0x19e>
    7894:	a8 01       	movw	r20, r16
    7896:	be 01       	movw	r22, r28
    7898:	17 d0       	rcall	.+46     	; 0x78c8 <memcpy>
    789a:	ce 01       	movw	r24, r28
    789c:	ac de       	rcall	.-680    	; 0x75f6 <free>
    789e:	c7 01       	movw	r24, r14
    78a0:	04 c0       	rjmp	.+8      	; 0x78aa <realloc+0x1a2>
    78a2:	ce 01       	movw	r24, r28
    78a4:	02 c0       	rjmp	.+4      	; 0x78aa <realloc+0x1a2>
    78a6:	80 e0       	ldi	r24, 0x00	; 0
    78a8:	90 e0       	ldi	r25, 0x00	; 0
    78aa:	df 91       	pop	r29
    78ac:	cf 91       	pop	r28
    78ae:	1f 91       	pop	r17
    78b0:	0f 91       	pop	r16
    78b2:	ff 90       	pop	r15
    78b4:	ef 90       	pop	r14
    78b6:	df 90       	pop	r13
    78b8:	cf 90       	pop	r12
    78ba:	bf 90       	pop	r11
    78bc:	af 90       	pop	r10
    78be:	9f 90       	pop	r9
    78c0:	8f 90       	pop	r8
    78c2:	7f 90       	pop	r7
    78c4:	6f 90       	pop	r6
    78c6:	08 95       	ret

000078c8 <memcpy>:
    78c8:	fb 01       	movw	r30, r22
    78ca:	dc 01       	movw	r26, r24
    78cc:	02 c0       	rjmp	.+4      	; 0x78d2 <memcpy+0xa>
    78ce:	01 90       	ld	r0, Z+
    78d0:	0d 92       	st	X+, r0
    78d2:	41 50       	subi	r20, 0x01	; 1
    78d4:	50 40       	sbci	r21, 0x00	; 0
    78d6:	d8 f7       	brcc	.-10     	; 0x78ce <memcpy+0x6>
    78d8:	08 95       	ret

000078da <strcpy>:
    78da:	fb 01       	movw	r30, r22
    78dc:	dc 01       	movw	r26, r24
    78de:	01 90       	ld	r0, Z+
    78e0:	0d 92       	st	X+, r0
    78e2:	00 20       	and	r0, r0
    78e4:	e1 f7       	brne	.-8      	; 0x78de <strcpy+0x4>
    78e6:	08 95       	ret

000078e8 <strncpy>:
    78e8:	fb 01       	movw	r30, r22
    78ea:	dc 01       	movw	r26, r24
    78ec:	41 50       	subi	r20, 0x01	; 1
    78ee:	50 40       	sbci	r21, 0x00	; 0
    78f0:	48 f0       	brcs	.+18     	; 0x7904 <strncpy+0x1c>
    78f2:	01 90       	ld	r0, Z+
    78f4:	0d 92       	st	X+, r0
    78f6:	00 20       	and	r0, r0
    78f8:	c9 f7       	brne	.-14     	; 0x78ec <strncpy+0x4>
    78fa:	01 c0       	rjmp	.+2      	; 0x78fe <strncpy+0x16>
    78fc:	1d 92       	st	X+, r1
    78fe:	41 50       	subi	r20, 0x01	; 1
    7900:	50 40       	sbci	r21, 0x00	; 0
    7902:	e0 f7       	brcc	.-8      	; 0x78fc <strncpy+0x14>
    7904:	08 95       	ret

00007906 <__do_global_dtors>:
    7906:	19 e0       	ldi	r17, 0x09	; 9
    7908:	c2 e9       	ldi	r28, 0x92	; 146
    790a:	d9 e0       	ldi	r29, 0x09	; 9
    790c:	00 e0       	ldi	r16, 0x00	; 0
    790e:	05 c0       	rjmp	.+10     	; 0x791a <__do_global_dtors+0x14>
    7910:	80 2f       	mov	r24, r16
    7912:	fe 01       	movw	r30, r28
    7914:	b7 dd       	rcall	.-1170   	; 0x7484 <__tablejump2__>
    7916:	21 96       	adiw	r28, 0x01	; 1
    7918:	01 1d       	adc	r16, r1
    791a:	c6 39       	cpi	r28, 0x96	; 150
    791c:	d1 07       	cpc	r29, r17
    791e:	80 e0       	ldi	r24, 0x00	; 0
    7920:	08 07       	cpc	r16, r24
    7922:	b1 f7       	brne	.-20     	; 0x7910 <__do_global_dtors+0xa>
    7924:	f8 94       	cli

00007926 <__stop_program>:
    7926:	ff cf       	rjmp	.-2      	; 0x7926 <__stop_program>
