
OscillatorController.elf:     file format elf32-avr

Sections:
Idx Name          Size      VMA       LMA       File off  Algn
  0 .data         0000016c  00800200  000075b4  00007648  2**0
                  CONTENTS, ALLOC, LOAD, DATA
  1 .text         000075b4  00000000  00000000  00000094  2**1
                  CONTENTS, ALLOC, LOAD, READONLY, CODE
  2 .bss          00000584  0080036c  0080036c  000077b4  2**0
                  ALLOC
  3 .comment      00000030  00000000  00000000  000077b4  2**0
                  CONTENTS, READONLY
  4 .note.gnu.avr.deviceinfo 00000040  00000000  00000000  000077e4  2**2
                  CONTENTS, READONLY
  5 .debug_aranges 00000990  00000000  00000000  00007824  2**0
                  CONTENTS, READONLY, DEBUGGING
  6 .debug_info   00029ced  00000000  00000000  000081b4  2**0
                  CONTENTS, READONLY, DEBUGGING
  7 .debug_abbrev 00004097  00000000  00000000  00031ea1  2**0
                  CONTENTS, READONLY, DEBUGGING
  8 .debug_line   00007e56  00000000  00000000  00035f38  2**0
                  CONTENTS, READONLY, DEBUGGING
  9 .debug_frame  00002548  00000000  00000000  0003dd90  2**2
                  CONTENTS, READONLY, DEBUGGING
 10 .debug_str    00003ae4  00000000  00000000  000402d8  2**0
                  CONTENTS, READONLY, DEBUGGING
 11 .debug_loc    0000e1c0  00000000  00000000  00043dbc  2**0
                  CONTENTS, READONLY, DEBUGGING
 12 .debug_ranges 00000960  00000000  00000000  00051f7c  2**0
                  CONTENTS, READONLY, DEBUGGING

Disassembly of section .text:

00000000 <__vectors>:
       0:	0c 94 8e 09 	jmp	0x131c	; 0x131c <__dtors_end>
       4:	0c 94 7a 34 	jmp	0x68f4	; 0x68f4 <__vector_1>
       8:	0c 94 a5 34 	jmp	0x694a	; 0x694a <__vector_2>
       c:	0c 94 d0 34 	jmp	0x69a0	; 0x69a0 <__vector_3>
      10:	0c 94 fb 34 	jmp	0x69f6	; 0x69f6 <__vector_4>
      14:	0c 94 26 35 	jmp	0x6a4c	; 0x6a4c <__vector_5>
      18:	0c 94 51 35 	jmp	0x6aa2	; 0x6aa2 <__vector_6>
      1c:	0c 94 7c 35 	jmp	0x6af8	; 0x6af8 <__vector_7>
      20:	0c 94 a7 35 	jmp	0x6b4e	; 0x6b4e <__vector_8>
      24:	0c 94 bf 09 	jmp	0x137e	; 0x137e <__bad_interrupt>
      28:	0c 94 bf 09 	jmp	0x137e	; 0x137e <__bad_interrupt>
      2c:	0c 94 bf 09 	jmp	0x137e	; 0x137e <__bad_interrupt>
      30:	0c 94 bf 09 	jmp	0x137e	; 0x137e <__bad_interrupt>
      34:	0c 94 bf 09 	jmp	0x137e	; 0x137e <__bad_interrupt>
      38:	0c 94 bf 09 	jmp	0x137e	; 0x137e <__bad_interrupt>
      3c:	0c 94 bf 09 	jmp	0x137e	; 0x137e <__bad_interrupt>
      40:	0c 94 bf 09 	jmp	0x137e	; 0x137e <__bad_interrupt>
      44:	0c 94 bf 09 	jmp	0x137e	; 0x137e <__bad_interrupt>
      48:	0c 94 bf 09 	jmp	0x137e	; 0x137e <__bad_interrupt>
      4c:	0c 94 bf 09 	jmp	0x137e	; 0x137e <__bad_interrupt>
      50:	0c 94 bf 09 	jmp	0x137e	; 0x137e <__bad_interrupt>
      54:	0c 94 bf 09 	jmp	0x137e	; 0x137e <__bad_interrupt>
      58:	0c 94 bf 09 	jmp	0x137e	; 0x137e <__bad_interrupt>
      5c:	0c 94 d2 35 	jmp	0x6ba4	; 0x6ba4 <__vector_23>
      60:	0c 94 bf 09 	jmp	0x137e	; 0x137e <__bad_interrupt>
      64:	0c 94 b7 32 	jmp	0x656e	; 0x656e <__vector_25>
      68:	0c 94 ed 32 	jmp	0x65da	; 0x65da <__vector_26>
      6c:	0c 94 bf 09 	jmp	0x137e	; 0x137e <__bad_interrupt>
      70:	0c 94 bf 09 	jmp	0x137e	; 0x137e <__bad_interrupt>
      74:	0c 94 bf 09 	jmp	0x137e	; 0x137e <__bad_interrupt>
      78:	0c 94 bf 09 	jmp	0x137e	; 0x137e <__bad_interrupt>
      7c:	0c 94 bf 09 	jmp	0x137e	; 0x137e <__bad_interrupt>
      80:	0c 94 bf 09 	jmp	0x137e	; 0x137e <__bad_interrupt>
      84:	0c 94 bf 09 	jmp	0x137e	; 0x137e <__bad_interrupt>
      88:	0c 94 bf 09 	jmp	0x137e	; 0x137e <__bad_interrupt>
      8c:	0c 94 bf 09 	jmp	0x137e	; 0x137e <__bad_interrupt>
      90:	0c 94 bf 09 	jmp	0x137e	; 0x137e <__bad_interrupt>
      94:	0c 94 bf 09 	jmp	0x137e	; 0x137e <__bad_interrupt>
      98:	0c 94 bf 09 	jmp	0x137e	; 0x137e <__bad_interrupt>
      9c:	0c 94 bf 09 	jmp	0x137e	; 0x137e <__bad_interrupt>
      a0:	0c 94 bf 09 	jmp	0x137e	; 0x137e <__bad_interrupt>
      a4:	0c 94 bf 09 	jmp	0x137e	; 0x137e <__bad_interrupt>
      a8:	0c 94 bf 09 	jmp	0x137e	; 0x137e <__bad_interrupt>
      ac:	0c 94 bf 09 	jmp	0x137e	; 0x137e <__bad_interrupt>
      b0:	0c 94 bf 09 	jmp	0x137e	; 0x137e <__bad_interrupt>
      b4:	0c 94 bf 09 	jmp	0x137e	; 0x137e <__bad_interrupt>
      b8:	0c 94 bf 09 	jmp	0x137e	; 0x137e <__bad_interrupt>
      bc:	0c 94 bf 09 	jmp	0x137e	; 0x137e <__bad_interrupt>
      c0:	0c 94 bf 09 	jmp	0x137e	; 0x137e <__bad_interrupt>
      c4:	0c 94 bf 09 	jmp	0x137e	; 0x137e <__bad_interrupt>
      c8:	0c 94 bf 09 	jmp	0x137e	; 0x137e <__bad_interrupt>
      cc:	0c 94 bf 09 	jmp	0x137e	; 0x137e <__bad_interrupt>
      d0:	0c 94 bf 09 	jmp	0x137e	; 0x137e <__bad_interrupt>
      d4:	0c 94 bf 09 	jmp	0x137e	; 0x137e <__bad_interrupt>
      d8:	0c 94 bf 09 	jmp	0x137e	; 0x137e <__bad_interrupt>
      dc:	0c 94 bf 09 	jmp	0x137e	; 0x137e <__bad_interrupt>
      e0:	0c 94 bf 09 	jmp	0x137e	; 0x137e <__bad_interrupt>
      e4:	8c 19       	sub	r24, r12
      e6:	75 1a       	sub	r7, r21
      e8:	a7 19       	sub	r26, r7
      ea:	a7 19       	sub	r26, r7
      ec:	c0 19       	sub	r28, r0
      ee:	75 1a       	sub	r7, r21
      f0:	6d 19       	sub	r22, r13
      f2:	4a 1a       	sub	r4, r26
      f4:	e4 19       	sub	r30, r4
      f6:	75 1a       	sub	r7, r21
      f8:	f2 19       	sub	r31, r2
      fa:	f2 19       	sub	r31, r2
      fc:	0f 1a       	sub	r0, r31
      fe:	0f 1a       	sub	r0, r31
     100:	8c 19       	sub	r24, r12
     102:	4a 1a       	sub	r4, r26
     104:	75 1a       	sub	r7, r21
     106:	8c 19       	sub	r24, r12
     108:	f2 19       	sub	r31, r2
     10a:	4a 1a       	sub	r4, r26
     10c:	a7 19       	sub	r26, r7
     10e:	1e 1a       	sub	r1, r30
     110:	4a 1a       	sub	r4, r26
     112:	4a 1a       	sub	r4, r26
     114:	4a 1a       	sub	r4, r26
     116:	4a 1a       	sub	r4, r26
     118:	4a 1a       	sub	r4, r26
     11a:	37 1a       	sub	r3, r23
     11c:	4a 1a       	sub	r4, r26
     11e:	4a 1a       	sub	r4, r26
     120:	e5 1a       	sub	r14, r21
     122:	53 2d       	mov	r21, r3
     124:	b2 1b       	sub	r27, r18
     126:	b2 1b       	sub	r27, r18
     128:	44 1d       	adc	r20, r4
     12a:	53 2d       	mov	r21, r3
     12c:	4a 20       	and	r4, r10
     12e:	7e 1e       	adc	r7, r30
     130:	f7 1f       	adc	r31, r23
     132:	53 2d       	mov	r21, r3
     134:	a4 21       	and	r26, r4
     136:	ad 22       	and	r10, r29
     138:	59 24       	eor	r5, r9
     13a:	59 24       	eor	r5, r9
     13c:	e5 1a       	sub	r14, r21
     13e:	f6 28       	or	r15, r6
     140:	53 2d       	mov	r21, r3
     142:	e5 1a       	sub	r14, r21
     144:	80 23       	and	r24, r16
     146:	59 25       	eor	r21, r9
     148:	30 1c       	adc	r3, r0
     14a:	22 26       	eor	r2, r18
     14c:	f0 26       	eor	r15, r16
     14e:	f6 28       	or	r15, r6
     150:	1d 28       	or	r1, r13
     152:	af 29       	or	r26, r15
     154:	f6 2a       	or	r15, r22
     156:	55 2c       	mov	r5, r5
     158:	69 2c       	mov	r6, r9
     15a:	f2 1e       	adc	r15, r18
     15c:	54 34       	cpi	r21, 0x44	; 68
     15e:	1e 34       	cpi	r17, 0x4E	; 78
     160:	26 34       	cpi	r18, 0x46	; 70
     162:	32 34       	cpi	r19, 0x42	; 66
     164:	3f 34       	cpi	r19, 0x4F	; 79
     166:	60 34       	cpi	r22, 0x40	; 64
     168:	6d 34       	cpi	r22, 0x4D	; 77
     16a:	01 37       	cpi	r16, 0x71	; 113
     16c:	04 37       	cpi	r16, 0x74	; 116
     16e:	f3 36       	cpi	r31, 0x63	; 99
     170:	f7 36       	cpi	r31, 0x67	; 103
     172:	fd 36       	cpi	r31, 0x6D	; 109
     174:	3b 37       	cpi	r19, 0x7B	; 123
     176:	08 37       	cpi	r16, 0x78	; 120
     178:	0c 37       	cpi	r16, 0x7C	; 124
     17a:	12 37       	cpi	r17, 0x72	; 114
     17c:	16 37       	cpi	r17, 0x76	; 118
     17e:	1a 37       	cpi	r17, 0x7A	; 122
     180:	20 37       	cpi	r18, 0x70	; 112
     182:	24 37       	cpi	r18, 0x74	; 116
     184:	28 37       	cpi	r18, 0x78	; 120
     186:	3b 37       	cpi	r19, 0x7B	; 123
     188:	2e 37       	cpi	r18, 0x7E	; 126
     18a:	32 37       	cpi	r19, 0x72	; 114
     18c:	36 37       	cpi	r19, 0x76	; 118

0000018e <BigFont>:
     18e:	10 10 20 5f 00 00 00 00 00 00 00 00 00 00 00 00     .. _............
	...
     1b6:	07 00 0f 80 0f 80 0f 80 0f 80 0f 80 07 00 07 00     ................
     1c6:	00 00 00 00 07 00 07 00 07 00 00 00 00 00 0e 38     ...............8
     1d6:	0e 38 0e 38 0e 38 06 30 00 00 00 00 00 00 00 00     .8.8.8.0........
	...
     1f2:	00 00 0c 30 0c 30 0c 30 7f fe 7f fe 0c 30 0c 30     ...0.0.0.....0.0
     202:	0c 30 0c 30 7f fe 7f fe 0c 30 0c 30 0c 30 00 00     .0.0.....0.0.0..
     212:	00 00 02 40 02 40 0f f8 1f f8 1a 40 1a 40 1f f0     ...@.@.....@.@..
     222:	0f f8 02 58 02 58 1f f8 1f f0 02 40 02 40 00 00     ...X.X.....@.@..
     232:	00 00 00 00 00 00 0e 10 0e 30 0e 70 00 e0 01 c0     .........0.p....
     242:	03 80 07 00 0e 70 0c 70 08 70 00 00 00 00 00 00     .....p.p.p......
     252:	00 00 00 00 0f 00 19 80 19 80 19 80 0f 00 0f 08     ................
     262:	0f 98 19 f8 18 f0 18 e0 19 f0 0f 98 00 00 00 00     ................
     272:	00 00 00 00 07 00 07 00 07 00 0e 00 00 00 00 00     ................
	...
     296:	00 f0 01 c0 03 80 07 00 0e 00 0e 00 0e 00 0e 00     ................
     2a6:	07 00 03 80 01 c0 00 f0 00 00 00 00 00 00 00 00     ................
     2b6:	0f 00 03 80 01 c0 00 e0 00 70 00 70 00 70 00 70     .........p.p.p.p
     2c6:	00 e0 01 c0 03 80 0f 00 00 00 00 00 00 00 00 00     ................
     2d6:	01 80 11 88 09 90 07 e0 07 e0 3f fc 3f fc 07 e0     ..........?.?...
     2e6:	07 e0 09 90 11 88 01 80 00 00 00 00 00 00 00 00     ................
     2f6:	00 00 00 00 01 80 01 80 01 80 0f f0 0f f0 01 80     ................
     306:	01 80 01 80 00 00 00 00 00 00 00 00 00 00 00 00     ................
	...
     326:	00 00 07 00 07 00 07 00 0e 00 00 00 00 00 00 00     ................
	...
     33e:	00 00 1f f8 1f f8 00 00 00 00 00 00 00 00 00 00     ................
	...
     366:	00 00 07 00 07 00 07 00 00 00 00 00 00 00 00 00     ................
     376:	00 02 00 06 00 0e 00 1c 00 38 00 70 00 e0 01 c0     .........8.p....
     386:	03 80 07 00 0e 00 1c 00 00 00 00 00 00 00 00 00     ................
     396:	0f f0 1c 38 1c 78 1c f8 1c f8 1d b8 1d b8 1f 38     ...8.x.........8
     3a6:	1f 38 1e 38 1c 38 0f f0 00 00 00 00 00 00 00 00     .8.8.8..........
     3b6:	01 80 01 80 03 80 1f 80 1f 80 03 80 03 80 03 80     ................
     3c6:	03 80 03 80 03 80 1f f0 00 00 00 00 00 00 00 00     ................
     3d6:	0f e0 1c 70 1c 38 00 38 00 70 00 e0 01 c0 03 80     ...p.8.8.p......
     3e6:	07 00 0e 38 1c 38 1f f8 00 00 00 00 00 00 00 00     ...8.8..........
     3f6:	0f e0 1c 70 1c 38 00 38 00 70 03 c0 03 c0 00 70     ...p.8.8.p.....p
     406:	00 38 1c 38 1c 70 0f e0 00 00 00 00 00 00 00 00     .8.8.p..........
     416:	00 e0 01 e0 03 e0 06 e0 0c e0 18 e0 1f f8 1f f8     ................
     426:	00 e0 00 e0 00 e0 03 f8 00 00 00 00 00 00 00 00     ................
     436:	1f f8 1c 00 1c 00 1c 00 1c 00 1f e0 1f f0 00 78     ...............x
     446:	00 38 1c 38 1c 70 0f e0 00 00 00 00 00 00 00 00     .8.8.p..........
     456:	03 e0 07 00 0e 00 1c 00 1c 00 1f f0 1f f8 1c 38     ...............8
     466:	1c 38 1c 38 1c 38 0f f0 00 00 00 00 00 00 00 00     .8.8.8..........
     476:	1f fc 1c 1c 1c 1c 1c 1c 00 1c 00 38 00 70 00 e0     ...........8.p..
     486:	01 c0 03 80 03 80 03 80 00 00 00 00 00 00 00 00     ................
     496:	0f f0 1c 38 1c 38 1c 38 1f 38 07 e0 07 e0 1c f8     ...8.8.8.8......
     4a6:	1c 38 1c 38 1c 38 0f f0 00 00 00 00 00 00 00 00     .8.8.8..........
     4b6:	0f f0 1c 38 1c 38 1c 38 1c 38 1f f8 0f f8 00 38     ...8.8.8.8.....8
     4c6:	00 38 00 70 00 e0 07 c0 00 00 00 00 00 00 00 00     .8.p............
     4d6:	00 00 00 00 03 80 03 80 03 80 00 00 00 00 03 80     ................
     4e6:	03 80 03 80 00 00 00 00 00 00 00 00 00 00 00 00     ................
     4f6:	00 00 00 00 03 80 03 80 03 80 00 00 00 00 03 80     ................
     506:	03 80 03 80 07 00 00 00 00 00 00 00 00 00 00 70     ...............p
     516:	00 e0 01 c0 03 80 07 00 0e 00 1c 00 1c 00 0e 00     ................
     526:	07 00 03 80 01 c0 00 e0 00 70 00 00 00 00 00 00     .........p......
     536:	00 00 00 00 00 00 3f fc 3f fc 00 00 00 00 3f fc     ......?.?.....?.
     546:	3f fc 00 00 00 00 00 00 00 00 00 00 00 00 1c 00     ?...............
     556:	0e 00 07 00 03 80 01 c0 00 e0 00 70 00 70 00 e0     ...........p.p..
     566:	01 c0 03 80 07 00 0e 00 1c 00 00 00 00 00 03 c0     ................
     576:	0f f0 1e 78 18 38 00 38 00 70 00 e0 01 c0 01 c0     ...x.8.8.p......
     586:	00 00 00 00 01 c0 01 c0 01 c0 00 00 00 00 0f f8     ................
     596:	1c 1c 1c 1c 1c 1c 1c 1c 1c fc 1c fc 1c fc 1c fc     ................
     5a6:	1c 00 1c 00 1c 00 1f f0 07 f8 00 00 00 00 00 00     ................
     5b6:	03 c0 07 e0 0e 70 1c 38 1c 38 1c 38 1c 38 1f f8     .....p.8.8.8.8..
     5c6:	1c 38 1c 38 1c 38 1c 38 00 00 00 00 00 00 00 00     .8.8.8.8........
     5d6:	1f f0 0e 38 0e 38 0e 38 0e 38 0f f0 0f f0 0e 38     ...8.8.8.8.....8
     5e6:	0e 38 0e 38 0e 38 1f f0 00 00 00 00 00 00 00 00     .8.8.8..........
     5f6:	07 f0 0e 38 1c 38 1c 00 1c 00 1c 00 1c 00 1c 00     ...8.8..........
     606:	1c 00 1c 38 0e 38 07 f0 00 00 00 00 00 00 00 00     ...8.8..........
     616:	1f e0 0e 70 0e 38 0e 38 0e 38 0e 38 0e 38 0e 38     ...p.8.8.8.8.8.8
     626:	0e 38 0e 38 0e 70 1f e0 00 00 00 00 00 00 00 00     .8.8.p..........
     636:	1f f8 0e 18 0e 08 0e 00 0e 30 0f f0 0f f0 0e 30     .........0.....0
     646:	0e 00 0e 08 0e 18 1f f8 00 00 00 00 00 00 00 00     ................
     656:	1f f8 0e 18 0e 08 0e 00 0e 30 0f f0 0f f0 0e 30     .........0.....0
     666:	0e 00 0e 00 0e 00 1f 00 00 00 00 00 00 00 00 00     ................
     676:	07 f0 0e 38 1c 38 1c 38 1c 00 1c 00 1c 00 1c f8     ...8.8.8........
     686:	1c 38 1c 38 0e 38 07 f8 00 00 00 00 00 00 00 00     .8.8.8..........
     696:	1c 70 1c 70 1c 70 1c 70 1c 70 1f f0 1f f0 1c 70     .p.p.p.p.p.....p
     6a6:	1c 70 1c 70 1c 70 1c 70 00 00 00 00 00 00 00 00     .p.p.p.p........
     6b6:	0f e0 03 80 03 80 03 80 03 80 03 80 03 80 03 80     ................
     6c6:	03 80 03 80 03 80 0f e0 00 00 00 00 00 00 00 00     ................
     6d6:	01 fc 00 70 00 70 00 70 00 70 00 70 00 70 38 70     ...p.p.p.p.p.p8p
     6e6:	38 70 38 70 38 70 0f e0 00 00 00 00 00 00 00 00     8p8p8p..........
     6f6:	1e 38 0e 38 0e 70 0e e0 0f c0 0f 80 0f 80 0f c0     .8.8.p..........
     706:	0e e0 0e 70 0e 38 1e 38 00 00 00 00 00 00 00 00     ...p.8.8........
     716:	1f 00 0e 00 0e 00 0e 00 0e 00 0e 00 0e 00 0e 00     ................
     726:	0e 08 0e 18 0e 38 1f f8 00 00 00 00 00 00 00 00     .....8..........
     736:	1c 1c 1e 3c 1f 7c 1f fc 1f fc 1d dc 1c 9c 1c 1c     ...<.|..........
     746:	1c 1c 1c 1c 1c 1c 1c 1c 00 00 00 00 00 00 00 00     ................
     756:	1c 1c 1c 1c 1e 1c 1f 1c 1f 9c 1d dc 1c fc 1c 7c     ...............|
     766:	1c 3c 1c 1c 1c 1c 1c 1c 00 00 00 00 00 00 00 00     .<..............
     776:	03 e0 07 f0 0e 38 1c 1c 1c 1c 1c 1c 1c 1c 1c 1c     .....8..........
     786:	1c 1c 0e 38 07 f0 03 e0 00 00 00 00 00 00 00 00     ...8............
     796:	1f f0 0e 38 0e 38 0e 38 0e 38 0f f0 0f f0 0e 00     ...8.8.8.8......
     7a6:	0e 00 0e 00 0e 00 1f 00 00 00 00 00 00 00 00 00     ................
     7b6:	03 e0 0f 78 0e 38 1c 1c 1c 1c 1c 1c 1c 1c 1c 7c     ...x.8.........|
     7c6:	1c fc 0f f8 0f f8 00 38 00 fc 00 00 00 00 00 00     .......8........
     7d6:	1f f0 0e 38 0e 38 0e 38 0e 38 0f f0 0f f0 0e 70     ...8.8.8.8.....p
     7e6:	0e 38 0e 38 0e 38 1e 38 00 00 00 00 00 00 00 00     .8.8.8.8........
     7f6:	0f f0 1c 38 1c 38 1c 38 1c 00 0f e0 07 f0 00 38     ...8.8.8.......8
     806:	1c 38 1c 38 1c 38 0f f0 00 00 00 00 00 00 00 00     .8.8.8..........
     816:	1f fc 19 cc 11 c4 01 c0 01 c0 01 c0 01 c0 01 c0     ................
     826:	01 c0 01 c0 01 c0 07 f0 00 00 00 00 00 00 00 00     ................
     836:	1c 70 1c 70 1c 70 1c 70 1c 70 1c 70 1c 70 1c 70     .p.p.p.p.p.p.p.p
     846:	1c 70 1c 70 1c 70 0f e0 00 00 00 00 00 00 00 00     .p.p.p..........
     856:	1c 70 1c 70 1c 70 1c 70 1c 70 1c 70 1c 70 1c 70     .p.p.p.p.p.p.p.p
     866:	1c 70 0e e0 07 c0 03 80 00 00 00 00 00 00 00 00     .p..............
     876:	1c 1c 1c 1c 1c 1c 1c 1c 1c 1c 1c 9c 1c 9c 1c 9c     ................
     886:	0f f8 0f f8 07 70 07 70 00 00 00 00 00 00 00 00     .....p.p........
     896:	1c 70 1c 70 1c 70 0e e0 07 c0 03 80 03 80 07 c0     .p.p.p..........
     8a6:	0e e0 1c 70 1c 70 1c 70 00 00 00 00 00 00 00 00     ...p.p.p........
     8b6:	1c 70 1c 70 1c 70 1c 70 1c 70 0e e0 07 c0 03 80     .p.p.p.p.p......
     8c6:	03 80 03 80 03 80 0f e0 00 00 00 00 00 00 00 00     ................
     8d6:	1f f8 1c 38 18 38 10 70 00 e0 01 c0 03 80 07 00     ...8.8.p........
     8e6:	0e 08 1c 18 1c 38 1f f8 00 00 00 00 00 00 00 00     .....8..........
     8f6:	07 f0 07 00 07 00 07 00 07 00 07 00 07 00 07 00     ................
     906:	07 00 07 00 07 00 07 f0 00 00 00 00 00 00 00 00     ................
     916:	10 00 18 00 1c 00 0e 00 07 00 03 80 01 c0 00 e0     ................
     926:	00 70 00 38 00 1c 00 07 00 00 00 00 00 00 00 00     .p.8............
     936:	07 f0 00 70 00 70 00 70 00 70 00 70 00 70 00 70     ...p.p.p.p.p.p.p
     946:	00 70 00 70 00 70 07 f0 00 00 00 00 00 00 01 80     .p.p.p..........
     956:	03 c0 07 e0 0e 70 1c 38 00 00 00 00 00 00 00 00     .....p.8........
	...
     98e:	7f ff 7f ff 00 00 00 00 1c 00 1c 00 07 00 07 00     ................
	...
     9be:	0f e0 00 70 00 70 0f f0 1c 70 1c 70 1c 70 0f d8     ...p.p...p.p.p..
	...
     9d6:	1e 00 0e 00 0e 00 0e 00 0f f0 0e 38 0e 38 0e 38     ...........8.8.8
     9e6:	0e 38 0e 38 0e 38 1b f0 00 00 00 00 00 00 00 00     .8.8.8..........
	...
     9fe:	0f e0 1c 70 1c 70 1c 00 1c 00 1c 70 1c 70 0f e0     ...p.p.....p.p..
	...
     a16:	00 f8 00 70 00 70 00 70 0f f0 1c 70 1c 70 1c 70     ...p.p.p...p.p.p
     a26:	1c 70 1c 70 1c 70 0f d8 00 00 00 00 00 00 00 00     .p.p.p..........
	...
     a3e:	0f e0 1c 70 1c 70 1f f0 1c 00 1c 70 1c 70 0f e0     ...p.p.....p.p..
	...
     a56:	03 e0 07 70 07 70 07 00 07 00 1f e0 1f e0 07 00     ...p.p..........
     a66:	07 00 07 00 07 00 1f c0 00 00 00 00 00 00 00 00     ................
	...
     a7e:	0f d8 1c 70 1c 70 1c 70 1c 70 0f f0 07 f0 00 70     ...p.p.p.p.....p
     a8e:	1c 70 0f e0 00 00 00 00 1e 00 0e 00 0e 00 0e 00     .p..............
     a9e:	0e f0 0f 38 0f 38 0e 38 0e 38 0e 38 0e 38 1e 38     ...8.8.8.8.8.8.8
	...
     ab6:	01 c0 01 c0 01 c0 00 00 0f c0 01 c0 01 c0 01 c0     ................
     ac6:	01 c0 01 c0 01 c0 0f f8 00 00 00 00 00 00 00 00     ................
     ad6:	00 70 00 70 00 70 00 00 03 f0 00 70 00 70 00 70     .p.p.p.....p.p.p
     ae6:	00 70 00 70 00 70 1c 70 0c f0 07 e0 00 00 00 00     .p.p.p.p........
     af6:	1e 00 0e 00 0e 00 0e 00 0e 38 0e 70 0e e0 0f c0     .........8.p....
     b06:	0e e0 0e 70 0e 38 1e 38 00 00 00 00 00 00 00 00     ...p.8.8........
     b16:	0f c0 01 c0 01 c0 01 c0 01 c0 01 c0 01 c0 01 c0     ................
     b26:	01 c0 01 c0 01 c0 0f f8 00 00 00 00 00 00 00 00     ................
	...
     b3e:	1f f8 1c 9c 1c 9c 1c 9c 1c 9c 1c 9c 1c 9c 1c 9c     ................
	...
     b5e:	1f e0 1c 70 1c 70 1c 70 1c 70 1c 70 1c 70 1c 70     ...p.p.p.p.p.p.p
	...
     b7e:	0f e0 1c 70 1c 70 1c 70 1c 70 1c 70 1c 70 0f e0     ...p.p.p.p.p.p..
	...
     b9e:	1b f0 0e 38 0e 38 0e 38 0e 38 0e 38 0f f0 0e 00     ...8.8.8.8.8....
     bae:	0e 00 1f 00 00 00 00 00 00 00 00 00 00 00 00 00     ................
     bbe:	1f b0 38 e0 38 e0 38 e0 38 e0 38 e0 1f e0 00 e0     ..8.8.8.8.8.....
     bce:	00 e0 01 f0 00 00 00 00 00 00 00 00 00 00 00 00     ................
     bde:	1e f0 0f f8 0f 38 0e 00 0e 00 0e 00 0e 00 1f 00     .....8..........
	...
     bfe:	0f e0 1c 30 1c 30 0f 80 03 e0 18 70 18 70 0f e0     ...0.0.....p.p..
	...
     c16:	00 00 01 00 03 00 07 00 1f f0 07 00 07 00 07 00     ................
     c26:	07 00 07 70 07 70 03 e0 00 00 00 00 00 00 00 00     ...p.p..........
	...
     c3e:	1c 70 1c 70 1c 70 1c 70 1c 70 1c 70 1c 70 0f d8     .p.p.p.p.p.p.p..
	...
     c5e:	1c 70 1c 70 1c 70 1c 70 1c 70 0e e0 07 c0 03 80     .p.p.p.p.p......
	...
     c7e:	1c 1c 1c 1c 1c 1c 1c 9c 1c 9c 0f f8 07 70 07 70     .............p.p
	...
     c9e:	1c e0 1c e0 0f c0 07 80 07 80 0f c0 1c e0 1c e0     ................
	...
     cbe:	0e 38 0e 38 0e 38 0e 38 0e 38 07 f0 03 e0 00 e0     .8.8.8.8.8......
     cce:	01 c0 1f 80 00 00 00 00 00 00 00 00 00 00 00 00     ................
     cde:	1f e0 18 e0 11 c0 03 80 07 00 0e 20 1c 60 1f e0     ........... .`..
	...
     cf6:	01 f8 03 80 03 80 03 80 07 00 1c 00 1c 00 07 00     ................
     d06:	03 80 03 80 03 80 01 f8 00 00 00 00 00 00 01 c0     ................
     d16:	01 c0 01 c0 01 c0 01 c0 01 c0 01 c0 01 c0 01 c0     ................
     d26:	01 c0 01 c0 01 c0 01 c0 01 c0 00 00 00 00 00 00     ................
     d36:	1f 80 01 c0 01 c0 01 c0 00 e0 00 38 00 38 00 e0     ...........8.8..
     d46:	01 c0 01 c0 01 c0 1f 80 00 00 00 00 00 00 00 00     ................
     d56:	1f 1c 3b 9c 39 dc 38 f8 00 00 00 00 00 00 00 00     ..;.9.8.........
	...

00000d72 <SmallFont>:
     d72:	08 0c 20 5f 00 00 00 00 00 00 00 00 00 00 00 00     .. _............
     d82:	00 00 20 20 20 20 20 20 00 20 00 00 00 28 50 50     ..      . ...(PP
	...
     d9a:	00 00 28 28 fc 28 50 fc 50 50 00 00 00 20 78 a8     ..((.(P.PP... x.
     daa:	a0 60 30 28 a8 f0 20 00 00 00 48 a8 b0 50 28 34     .`0(.. ...H..P(4
     dba:	54 48 00 00 00 00 20 50 50 78 a8 a8 90 6c 00 00     TH.... PPx...l..
     dca:	00 40 40 80 00 00 00 00 00 00 00 00 00 04 08 10     .@@.............
     dda:	10 10 10 10 10 08 04 00 00 40 20 10 10 10 10 10     .........@ .....
     dea:	10 20 40 00 00 00 00 20 a8 70 70 a8 20 00 00 00     . @.... .pp. ...
     dfa:	00 00 20 20 20 f8 20 20 20 00 00 00 00 00 00 00     ..   .   .......
     e0a:	00 00 00 00 00 40 40 80 00 00 00 00 00 f8 00 00     .....@@.........
	...
     e26:	00 40 00 00 00 08 10 10 10 20 20 40 40 40 80 00     .@.......  @@@..
     e36:	00 00 70 88 88 88 88 88 88 70 00 00 00 00 20 60     ..p......p.... `
     e46:	20 20 20 20 20 70 00 00 00 00 70 88 88 10 20 40          p....p... @
     e56:	80 f8 00 00 00 00 70 88 08 30 08 08 88 70 00 00     ......p..0...p..
     e66:	00 00 10 30 50 50 90 78 10 18 00 00 00 00 f8 80     ...0PP.x........
     e76:	80 f0 08 08 88 70 00 00 00 00 70 90 80 f0 88 88     .....p....p.....
     e86:	88 70 00 00 00 00 f8 90 10 20 20 20 20 20 00 00     .p.......     ..
     e96:	00 00 70 88 88 70 88 88 88 70 00 00 00 00 70 88     ..p..p...p....p.
     ea6:	88 88 78 08 48 70 00 00 00 00 00 00 20 00 00 00     ..x.Hp...... ...
     eb6:	00 20 00 00 00 00 00 00 00 20 00 00 00 20 20 00     . ....... ...  .
     ec6:	00 04 08 10 20 40 20 10 08 04 00 00 00 00 00 00     .... @ .........
     ed6:	f8 00 00 f8 00 00 00 00 00 40 20 10 08 04 08 10     .........@ .....
     ee6:	20 40 00 00 00 00 70 88 88 10 20 20 00 20 00 00      @....p...  . ..
     ef6:	00 00 70 88 98 a8 a8 b8 80 78 00 00 00 00 20 20     ..p......x....  
     f06:	30 50 50 78 48 cc 00 00 00 00 f0 48 48 70 48 48     0PPxH......HHpHH
     f16:	48 f0 00 00 00 00 78 88 80 80 80 80 88 70 00 00     H.....x......p..
     f26:	00 00 f0 48 48 48 48 48 48 f0 00 00 00 00 f8 48     ...HHHHHH......H
     f36:	50 70 50 40 48 f8 00 00 00 00 f8 48 50 70 50 40     PpP@H......HPpP@
     f46:	40 e0 00 00 00 00 38 48 80 80 9c 88 48 30 00 00     @.....8H....H0..
     f56:	00 00 cc 48 48 78 48 48 48 cc 00 00 00 00 f8 20     ...HHxHHH...... 
     f66:	20 20 20 20 20 f8 00 00 00 00 7c 10 10 10 10 10          .....|.....
     f76:	10 90 e0 00 00 00 ec 48 50 60 50 50 48 ec 00 00     .......HP`PPH...
     f86:	00 00 e0 40 40 40 40 40 44 fc 00 00 00 00 d8 d8     ...@@@@@D.......
     f96:	d8 d8 a8 a8 a8 a8 00 00 00 00 dc 48 68 68 58 58     ...........HhhXX
     fa6:	48 e8 00 00 00 00 70 88 88 88 88 88 88 70 00 00     H.....p......p..
     fb6:	00 00 f0 48 48 70 40 40 40 e0 00 00 00 00 70 88     ...HHp@@@.....p.
     fc6:	88 88 88 e8 98 70 18 00 00 00 f0 48 48 70 50 48     .....p.....HHpPH
     fd6:	48 ec 00 00 00 00 78 88 80 60 10 08 88 f0 00 00     H.....x..`......
     fe6:	00 00 f8 a8 20 20 20 20 20 70 00 00 00 00 cc 48     ....     p.....H
     ff6:	48 48 48 48 48 30 00 00 00 00 cc 48 48 50 50 30     HHHHH0.....HHPP0
    1006:	20 20 00 00 00 00 a8 a8 a8 70 50 50 50 50 00 00       .......pPPPP..
    1016:	00 00 d8 50 50 20 20 50 50 d8 00 00 00 00 d8 50     ...PP  PP......P
    1026:	50 20 20 20 20 70 00 00 00 00 f8 90 10 20 20 40     P    p.......  @
    1036:	48 f8 00 00 00 38 20 20 20 20 20 20 20 20 38 00     H....8        8.
    1046:	00 40 40 40 20 20 10 10 10 08 00 00 00 70 10 10     .@@@  .......p..
    1056:	10 10 10 10 10 10 70 00 00 20 50 00 00 00 00 00     ......p.. P.....
	...
    1072:	00 00 00 fc 00 20 00 00 00 00 00 00 00 00 00 00     ..... ..........
    1082:	00 00 00 00 00 30 48 38 48 3c 00 00 00 00 c0 40     .....0H8H<.....@
    1092:	40 70 48 48 48 70 00 00 00 00 00 00 00 38 48 40     @pHHHp.......8H@
    10a2:	40 38 00 00 00 00 18 08 08 38 48 48 48 3c 00 00     @8.......8HHH<..
    10b2:	00 00 00 00 00 30 48 78 40 38 00 00 00 00 1c 20     .....0Hx@8..... 
    10c2:	20 78 20 20 20 78 00 00 00 00 00 00 00 3c 48 30      x   x.......<H0
    10d2:	40 78 44 38 00 00 c0 40 40 70 48 48 48 ec 00 00     @xD8...@@pHHH...
    10e2:	00 00 20 00 00 60 20 20 20 70 00 00 00 00 10 00     .. ..`   p......
    10f2:	00 30 10 10 10 10 10 e0 00 00 c0 40 40 5c 50 70     .0.........@@\Pp
    1102:	48 ec 00 00 00 00 e0 20 20 20 20 20 20 f8 00 00     H......      ...
    1112:	00 00 00 00 00 f0 a8 a8 a8 a8 00 00 00 00 00 00     ................
    1122:	00 f0 48 48 48 ec 00 00 00 00 00 00 00 30 48 48     ..HHH........0HH
    1132:	48 30 00 00 00 00 00 00 00 f0 48 48 48 70 40 e0     H0........HHHp@.
    1142:	00 00 00 00 00 38 48 48 48 38 08 1c 00 00 00 00     .....8HHH8......
    1152:	00 d8 60 40 40 e0 00 00 00 00 00 00 00 78 40 30     ..`@@........x@0
    1162:	08 78 00 00 00 00 00 20 20 70 20 20 20 18 00 00     .x.....  p   ...
    1172:	00 00 00 00 00 d8 48 48 48 3c 00 00 00 00 00 00     ......HHH<......
    1182:	00 ec 48 50 30 20 00 00 00 00 00 00 00 a8 a8 70     ..HP0 .........p
    1192:	50 50 00 00 00 00 00 00 00 d8 50 20 50 d8 00 00     PP........P P...
    11a2:	00 00 00 00 00 ec 48 50 30 20 20 c0 00 00 00 00     ......HP0  .....
    11b2:	00 78 10 20 20 78 00 00 00 18 10 10 10 20 10 10     .x.  x....... ..
    11c2:	10 10 18 00 10 10 10 10 10 10 10 10 10 10 10 10     ................
    11d2:	00 60 20 20 20 10 20 20 20 20 60 00 40 a4 18 00     .`   .    `.@...
	...

000011ea <digital_pin_to_timer_PGM>:
    11ea:	00 00 0a 0b 02 09 0c 0d 0e 08 07 03 04 01 00 00     ................
	...
    1216:	12 11 10 00 00 00 00 00 00 00 00 00 00 00 00 00     ................
	...

00001230 <digital_pin_to_bit_mask_PGM>:
    1230:	01 02 10 20 20 08 08 10 20 40 10 20 40 80 02 01     ...  ... @. @...
    1240:	02 01 08 04 02 01 01 02 04 08 10 20 40 80 80 40     ........... @..@
    1250:	20 10 08 04 02 01 80 04 02 01 80 40 20 10 08 04      ..........@ ...
    1260:	02 01 08 04 02 01 01 02 04 08 10 20 40 80 01 02     ........... @...
    1270:	04 08 10 20 40 80                                   ... @.

00001276 <digital_pin_to_port_PGM>:
    1276:	05 05 05 05 07 05 08 08 08 08 02 02 02 02 0a 0a     ................
    1286:	08 08 04 04 04 04 01 01 01 01 01 01 01 01 03 03     ................
    1296:	03 03 03 03 03 03 04 07 07 07 0c 0c 0c 0c 0c 0c     ................
    12a6:	0c 0c 02 02 02 02 06 06 06 06 06 06 06 06 0b 0b     ................
    12b6:	0b 0b 0b 0b 0b 0b                                   ......

000012bc <port_to_input_PGM>:
    12bc:	00 00 20 00 23 00 26 00 29 00 2c 00 2f 00 32 00     .. .#.&.).,./.2.
    12cc:	00 01 00 00 03 01 06 01 09 01                       ..........

000012d6 <port_to_output_PGM>:
    12d6:	00 00 22 00 25 00 28 00 2b 00 2e 00 31 00 34 00     ..".%.(.+...1.4.
    12e6:	02 01 00 00 05 01 08 01 0b 01                       ..........

000012f0 <port_to_mode_PGM>:
    12f0:	00 00 21 00 24 00 27 00 2a 00 2d 00 30 00 33 00     ..!.$.'.*.-.0.3.
    1300:	01 01 00 00 04 01 07 01 0a 01                       ..........

0000130a <__ctors_start>:
    130a:	6c 0b       	sbc	r22, r28
    130c:	0a 0e       	add	r0, r26
    130e:	99 0f       	add	r25, r25
    1310:	cc 10       	cpse	r12, r12
    1312:	1f 33       	cpi	r17, 0x3F	; 63

00001314 <__ctors_end>:
    1314:	1a 0c       	add	r1, r10
    1316:	b8 0e       	add	r11, r24
    1318:	47 10       	cpse	r4, r7
    131a:	e4 11       	cpse	r30, r4

0000131c <__dtors_end>:
    131c:	11 24       	eor	r1, r1
    131e:	1f be       	out	0x3f, r1	; 63
    1320:	cf ef       	ldi	r28, 0xFF	; 255
    1322:	d1 e2       	ldi	r29, 0x21	; 33
    1324:	de bf       	out	0x3e, r29	; 62
    1326:	cd bf       	out	0x3d, r28	; 61
    1328:	00 e0       	ldi	r16, 0x00	; 0
    132a:	0c bf       	out	0x3c, r16	; 60

0000132c <__do_copy_data>:
    132c:	13 e0       	ldi	r17, 0x03	; 3
    132e:	a0 e0       	ldi	r26, 0x00	; 0
    1330:	b2 e0       	ldi	r27, 0x02	; 2
    1332:	e4 eb       	ldi	r30, 0xB4	; 180
    1334:	f5 e7       	ldi	r31, 0x75	; 117
    1336:	00 e0       	ldi	r16, 0x00	; 0
    1338:	0b bf       	out	0x3b, r16	; 59
    133a:	02 c0       	rjmp	.+4      	; 0x1340 <__do_copy_data+0x14>
    133c:	07 90       	elpm	r0, Z+
    133e:	0d 92       	st	X+, r0
    1340:	ac 36       	cpi	r26, 0x6C	; 108
    1342:	b1 07       	cpc	r27, r17
    1344:	d9 f7       	brne	.-10     	; 0x133c <__do_copy_data+0x10>

00001346 <__do_clear_bss>:
    1346:	28 e0       	ldi	r18, 0x08	; 8
    1348:	ac e6       	ldi	r26, 0x6C	; 108
    134a:	b3 e0       	ldi	r27, 0x03	; 3
    134c:	01 c0       	rjmp	.+2      	; 0x1350 <.do_clear_bss_start>

0000134e <.do_clear_bss_loop>:
    134e:	1d 92       	st	X+, r1

00001350 <.do_clear_bss_start>:
    1350:	a0 3f       	cpi	r26, 0xF0	; 240
    1352:	b2 07       	cpc	r27, r18
    1354:	e1 f7       	brne	.-8      	; 0x134e <.do_clear_bss_loop>

00001356 <__do_global_ctors>:
    1356:	19 e0       	ldi	r17, 0x09	; 9
    1358:	ca e8       	ldi	r28, 0x8A	; 138
    135a:	d9 e0       	ldi	r29, 0x09	; 9
    135c:	00 e0       	ldi	r16, 0x00	; 0
    135e:	06 c0       	rjmp	.+12     	; 0x136c <__do_global_ctors+0x16>
    1360:	21 97       	sbiw	r28, 0x01	; 1
    1362:	01 09       	sbc	r16, r1
    1364:	80 2f       	mov	r24, r16
    1366:	fe 01       	movw	r30, r28
    1368:	0e 94 97 38 	call	0x712e	; 0x712e <__tablejump2__>
    136c:	c5 38       	cpi	r28, 0x85	; 133
    136e:	d1 07       	cpc	r29, r17
    1370:	80 e0       	ldi	r24, 0x00	; 0
    1372:	08 07       	cpc	r16, r24
    1374:	a9 f7       	brne	.-22     	; 0x1360 <__do_global_ctors+0xa>
    1376:	0e 94 4d 33 	call	0x669a	; 0x669a <main>
    137a:	0c 94 c9 3a 	jmp	0x7592	; 0x7592 <__do_global_dtors>

0000137e <__bad_interrupt>:
    137e:	0c 94 00 00 	jmp	0	; 0x0 <__vectors>

00001382 <_ZN7Encoder6updateEP24Encoder_internal_state_t>:

public:
	// update() is not meant to be called from outside Encoder,
	// but it is public to allow static interrupt routines.
	// DO NOT call update() directly from sketches.
	static void update(Encoder_internal_state_t *arg) {
    1382:	dc 01       	movw	r26, r24
			"st	-X, r25"		"\n\t"
			"st	-X, r24"		"\n\t"
			"st	-X, r23"		"\n\t"
			"st	-X, r22"		"\n\t"
		"L%=end:"				"\n"
		: : "x" (arg) : "r22", "r23", "r24", "r25", "r30", "r31");
    1384:	ed 91       	ld	r30, X+
    1386:	fd 91       	ld	r31, X+
    1388:	80 81       	ld	r24, Z
    138a:	ed 91       	ld	r30, X+
    138c:	fd 91       	ld	r31, X+
    138e:	90 81       	ld	r25, Z
    1390:	ed 91       	ld	r30, X+
    1392:	fd 91       	ld	r31, X+
    1394:	6c 91       	ld	r22, X
    1396:	63 70       	andi	r22, 0x03	; 3
    1398:	8e 23       	and	r24, r30
    139a:	09 f0       	breq	.+2      	; 0x139e <L71>
    139c:	64 60       	ori	r22, 0x04	; 4

0000139e <L71>:
    139e:	9f 23       	and	r25, r31
    13a0:	09 f0       	breq	.+2      	; 0x13a4 <L72>
    13a2:	68 60       	ori	r22, 0x08	; 8

000013a4 <L72>:
    13a4:	ee ed       	ldi	r30, 0xDE	; 222
    13a6:	f9 e0       	ldi	r31, 0x09	; 9
    13a8:	e6 0f       	add	r30, r22
    13aa:	f1 1d       	adc	r31, r1
    13ac:	65 95       	asr	r22
    13ae:	65 95       	asr	r22
    13b0:	6d 93       	st	X+, r22
    13b2:	6d 91       	ld	r22, X+
    13b4:	7d 91       	ld	r23, X+
    13b6:	8d 91       	ld	r24, X+
    13b8:	9d 91       	ld	r25, X+
    13ba:	09 94       	ijmp

000013bc <L7table>:
    13bc:	23 c0       	rjmp	.+70     	; 0x1404 <L7end>
    13be:	1a c0       	rjmp	.+52     	; 0x13f4 <L7plus1>
    13c0:	12 c0       	rjmp	.+36     	; 0x13e6 <L7minus1>
    13c2:	16 c0       	rjmp	.+44     	; 0x13f0 <L7plus2>
    13c4:	10 c0       	rjmp	.+32     	; 0x13e6 <L7minus1>
    13c6:	1e c0       	rjmp	.+60     	; 0x1404 <L7end>
    13c8:	09 c0       	rjmp	.+18     	; 0x13dc <L7minus2>
    13ca:	14 c0       	rjmp	.+40     	; 0x13f4 <L7plus1>
    13cc:	13 c0       	rjmp	.+38     	; 0x13f4 <L7plus1>
    13ce:	06 c0       	rjmp	.+12     	; 0x13dc <L7minus2>
    13d0:	19 c0       	rjmp	.+50     	; 0x1404 <L7end>
    13d2:	09 c0       	rjmp	.+18     	; 0x13e6 <L7minus1>
    13d4:	0d c0       	rjmp	.+26     	; 0x13f0 <L7plus2>
    13d6:	07 c0       	rjmp	.+14     	; 0x13e6 <L7minus1>
    13d8:	0d c0       	rjmp	.+26     	; 0x13f4 <L7plus1>
    13da:	14 c0       	rjmp	.+40     	; 0x1404 <L7end>

000013dc <L7minus2>:
    13dc:	62 50       	subi	r22, 0x02	; 2
    13de:	70 40       	sbci	r23, 0x00	; 0
    13e0:	80 40       	sbci	r24, 0x00	; 0
    13e2:	90 40       	sbci	r25, 0x00	; 0
    13e4:	0b c0       	rjmp	.+22     	; 0x13fc <L7store>

000013e6 <L7minus1>:
    13e6:	61 50       	subi	r22, 0x01	; 1
    13e8:	70 40       	sbci	r23, 0x00	; 0
    13ea:	80 40       	sbci	r24, 0x00	; 0
    13ec:	90 40       	sbci	r25, 0x00	; 0
    13ee:	06 c0       	rjmp	.+12     	; 0x13fc <L7store>

000013f0 <L7plus2>:
    13f0:	6e 5f       	subi	r22, 0xFE	; 254
    13f2:	01 c0       	rjmp	.+2      	; 0x13f6 <L7z>

000013f4 <L7plus1>:
    13f4:	6f 5f       	subi	r22, 0xFF	; 255

000013f6 <L7z>:
    13f6:	7f 4f       	sbci	r23, 0xFF	; 255
    13f8:	8f 4f       	sbci	r24, 0xFF	; 255
    13fa:	9f 4f       	sbci	r25, 0xFF	; 255

000013fc <L7store>:
    13fc:	9e 93       	st	-X, r25
    13fe:	8e 93       	st	-X, r24
    1400:	7e 93       	st	-X, r23
    1402:	6e 93       	st	-X, r22

00001404 <L7end>:
    1404:	08 95       	ret

00001406 <_ZN7Encoder4isr1Ev>:

void Control::storePreset() {

}

void Control::loadPreset() {
    1406:	80 91 3c 08 	lds	r24, 0x083C	; 0x80083c <_ZN7Encoder13interruptArgsE+0x2>
    140a:	90 91 3d 08 	lds	r25, 0x083D	; 0x80083d <_ZN7Encoder13interruptArgsE+0x3>
    140e:	b9 cf       	rjmp	.-142    	; 0x1382 <_ZN7Encoder6updateEP24Encoder_internal_state_t>

00001410 <_ZN7Encoder4isr0Ev>:
    1410:	80 91 3a 08 	lds	r24, 0x083A	; 0x80083a <_ZN7Encoder13interruptArgsE>
    1414:	90 91 3b 08 	lds	r25, 0x083B	; 0x80083b <_ZN7Encoder13interruptArgsE+0x1>
    1418:	b4 cf       	rjmp	.-152    	; 0x1382 <_ZN7Encoder6updateEP24Encoder_internal_state_t>

0000141a <_ZN7ControlC1Ev>:
    141a:	cf 93       	push	r28
    141c:	df 93       	push	r29
    141e:	ec 01       	movw	r28, r24
    1420:	72 d2       	rcall	.+1252   	; 0x1906 <_ZN14EncoderHandlerC1Ev>
    1422:	1d 8e       	std	Y+29, r1	; 0x1d
    1424:	1e 8e       	std	Y+30, r1	; 0x1e
    1426:	80 e0       	ldi	r24, 0x00	; 0
    1428:	90 e0       	ldi	r25, 0x00	; 0
    142a:	ac e5       	ldi	r26, 0x5C	; 92
    142c:	b3 e4       	ldi	r27, 0x43	; 67
    142e:	8f 8f       	std	Y+31, r24	; 0x1f
    1430:	98 a3       	std	Y+32, r25	; 0x20
    1432:	a9 a3       	std	Y+33, r26	; 0x21
    1434:	ba a3       	std	Y+34, r27	; 0x22
    1436:	1b a2       	std	Y+35, r1	; 0x23
    1438:	80 e0       	ldi	r24, 0x00	; 0
    143a:	90 e0       	ldi	r25, 0x00	; 0
    143c:	a0 e8       	ldi	r26, 0x80	; 128
    143e:	b0 e4       	ldi	r27, 0x40	; 64
    1440:	8c a3       	std	Y+36, r24	; 0x24
    1442:	9d a3       	std	Y+37, r25	; 0x25
    1444:	ae a3       	std	Y+38, r26	; 0x26
    1446:	bf a3       	std	Y+39, r27	; 0x27
    1448:	18 a6       	std	Y+40, r1	; 0x28
    144a:	80 e0       	ldi	r24, 0x00	; 0
    144c:	90 e8       	ldi	r25, 0x80	; 128
    144e:	ab e3       	ldi	r26, 0x3B	; 59
    1450:	b6 e4       	ldi	r27, 0x46	; 70
    1452:	89 a7       	std	Y+41, r24	; 0x29
    1454:	9a a7       	std	Y+42, r25	; 0x2a
    1456:	ab a7       	std	Y+43, r26	; 0x2b
    1458:	bc a7       	std	Y+44, r27	; 0x2c
    145a:	88 e2       	ldi	r24, 0x28	; 40
    145c:	8d a7       	std	Y+45, r24	; 0x2d
    145e:	1e a6       	std	Y+46, r1	; 0x2e
    1460:	1f a6       	std	Y+47, r1	; 0x2f
    1462:	18 aa       	std	Y+48, r1	; 0x30
    1464:	19 aa       	std	Y+49, r1	; 0x31
    1466:	1a aa       	std	Y+50, r1	; 0x32
    1468:	80 e0       	ldi	r24, 0x00	; 0
    146a:	90 e0       	ldi	r25, 0x00	; 0
    146c:	a8 e4       	ldi	r26, 0x48	; 72
    146e:	b3 e4       	ldi	r27, 0x43	; 67
    1470:	8b ab       	std	Y+51, r24	; 0x33
    1472:	9c ab       	std	Y+52, r25	; 0x34
    1474:	ad ab       	std	Y+53, r26	; 0x35
    1476:	be ab       	std	Y+54, r27	; 0x36
    1478:	84 eb       	ldi	r24, 0xB4	; 180
    147a:	8f ab       	std	Y+55, r24	; 0x37
    147c:	80 e0       	ldi	r24, 0x00	; 0
    147e:	90 e0       	ldi	r25, 0x00	; 0
    1480:	aa e7       	ldi	r26, 0x7A	; 122
    1482:	b3 e4       	ldi	r27, 0x43	; 67
    1484:	88 af       	std	Y+56, r24	; 0x38
    1486:	99 af       	std	Y+57, r25	; 0x39
    1488:	aa af       	std	Y+58, r26	; 0x3a
    148a:	bb af       	std	Y+59, r27	; 0x3b
    148c:	1c ae       	std	Y+60, r1	; 0x3c
    148e:	1d ae       	std	Y+61, r1	; 0x3d
    1490:	1e ae       	std	Y+62, r1	; 0x3e
    1492:	1f ae       	std	Y+63, r1	; 0x3f
    1494:	fe 01       	movw	r30, r28
    1496:	e0 5c       	subi	r30, 0xC0	; 192
    1498:	ff 4f       	sbci	r31, 0xFF	; 255
    149a:	10 82       	st	Z, r1
    149c:	31 96       	adiw	r30, 0x01	; 1
    149e:	8f ef       	ldi	r24, 0xFF	; 255
    14a0:	80 83       	st	Z, r24
    14a2:	31 96       	adiw	r30, 0x01	; 1
    14a4:	10 82       	st	Z, r1
    14a6:	31 96       	adiw	r30, 0x01	; 1
    14a8:	10 82       	st	Z, r1
    14aa:	ce 01       	movw	r24, r28
    14ac:	8a 5b       	subi	r24, 0xBA	; 186
    14ae:	9f 4f       	sbci	r25, 0xFF	; 255
    14b0:	2a d2       	rcall	.+1108   	; 0x1906 <_ZN14EncoderHandlerC1Ev>
    14b2:	fe 01       	movw	r30, r28
    14b4:	e9 59       	subi	r30, 0x99	; 153
    14b6:	ff 4f       	sbci	r31, 0xFF	; 255
    14b8:	81 e0       	ldi	r24, 0x01	; 1
    14ba:	80 83       	st	Z, r24
    14bc:	31 96       	adiw	r30, 0x01	; 1
    14be:	80 83       	st	Z, r24
    14c0:	cd 59       	subi	r28, 0x9D	; 157
    14c2:	df 4f       	sbci	r29, 0xFF	; 255
    14c4:	18 82       	st	Y, r1
    14c6:	62 e0       	ldi	r22, 0x02	; 2
    14c8:	8e e0       	ldi	r24, 0x0E	; 14
    14ca:	df 91       	pop	r29
    14cc:	cf 91       	pop	r28
    14ce:	0c 94 3c 37 	jmp	0x6e78	; 0x6e78 <pinMode>

000014d2 <_ZN7Control4initEPN10Parameters8params_tE>:
    14d2:	0f 93       	push	r16
    14d4:	1f 93       	push	r17
    14d6:	cf 93       	push	r28
    14d8:	df 93       	push	r29
    14da:	8c 01       	movw	r16, r24
    14dc:	fc 01       	movw	r30, r24
    14de:	eb 59       	subi	r30, 0x9B	; 155
    14e0:	ff 4f       	sbci	r31, 0xFF	; 255
    14e2:	71 83       	std	Z+1, r23	; 0x01
    14e4:	60 83       	st	Z, r22
    14e6:	8c e0       	ldi	r24, 0x0C	; 12
    14e8:	90 e0       	ldi	r25, 0x00	; 0
    14ea:	0e 94 59 33 	call	0x66b2	; 0x66b2 <_Znwj>
    14ee:	ec 01       	movw	r28, r24
    14f0:	62 e0       	ldi	r22, 0x02	; 2
    14f2:	82 e0       	ldi	r24, 0x02	; 2
    14f4:	0e 94 3c 37 	call	0x6e78	; 0x6e78 <pinMode>
    14f8:	62 e0       	ldi	r22, 0x02	; 2
    14fa:	83 e0       	ldi	r24, 0x03	; 3
    14fc:	0e 94 3c 37 	call	0x6e78	; 0x6e78 <pinMode>
    1500:	e8 e7       	ldi	r30, 0x78	; 120
    1502:	f2 e1       	ldi	r31, 0x12	; 18
    1504:	e4 91       	lpm	r30, Z
    1506:	f0 e0       	ldi	r31, 0x00	; 0
    1508:	ee 0f       	add	r30, r30
    150a:	ff 1f       	adc	r31, r31
    150c:	e4 54       	subi	r30, 0x44	; 68
    150e:	fd 4e       	sbci	r31, 0xED	; 237
    1510:	85 91       	lpm	r24, Z+
    1512:	94 91       	lpm	r25, Z
    1514:	99 83       	std	Y+1, r25	; 0x01
    1516:	88 83       	st	Y, r24
    1518:	e2 e3       	ldi	r30, 0x32	; 50
    151a:	f2 e1       	ldi	r31, 0x12	; 18
    151c:	e4 91       	lpm	r30, Z
    151e:	ec 83       	std	Y+4, r30	; 0x04
    1520:	e9 e7       	ldi	r30, 0x79	; 121
    1522:	f2 e1       	ldi	r31, 0x12	; 18
    1524:	e4 91       	lpm	r30, Z
    1526:	f0 e0       	ldi	r31, 0x00	; 0
    1528:	ee 0f       	add	r30, r30
    152a:	ff 1f       	adc	r31, r31
    152c:	e4 54       	subi	r30, 0x44	; 68
    152e:	fd 4e       	sbci	r31, 0xED	; 237
    1530:	85 91       	lpm	r24, Z+
    1532:	94 91       	lpm	r25, Z
    1534:	9b 83       	std	Y+3, r25	; 0x03
    1536:	8a 83       	std	Y+2, r24	; 0x02
    1538:	e3 e3       	ldi	r30, 0x33	; 51
    153a:	f2 e1       	ldi	r31, 0x12	; 18
    153c:	e4 91       	lpm	r30, Z
    153e:	ed 83       	std	Y+5, r30	; 0x05
    1540:	1f 82       	std	Y+7, r1	; 0x07
    1542:	18 86       	std	Y+8, r1	; 0x08
    1544:	19 86       	std	Y+9, r1	; 0x09
    1546:	1a 86       	std	Y+10, r1	; 0x0a
    1548:	80 ed       	ldi	r24, 0xD0	; 208
    154a:	97 e0       	ldi	r25, 0x07	; 7
    154c:	0e 94 7a 36 	call	0x6cf4	; 0x6cf4 <delayMicroseconds>
    1550:	e8 81       	ld	r30, Y
    1552:	f9 81       	ldd	r31, Y+1	; 0x01
    1554:	90 81       	ld	r25, Z
    1556:	8c 81       	ldd	r24, Y+4	; 0x04
    1558:	98 23       	and	r25, r24
    155a:	81 e0       	ldi	r24, 0x01	; 1
    155c:	09 f4       	brne	.+2      	; 0x1560 <_ZN7Control4initEPN10Parameters8params_tE+0x8e>
    155e:	80 e0       	ldi	r24, 0x00	; 0
    1560:	ea 81       	ldd	r30, Y+2	; 0x02
    1562:	fb 81       	ldd	r31, Y+3	; 0x03
    1564:	20 81       	ld	r18, Z
    1566:	9d 81       	ldd	r25, Y+5	; 0x05
    1568:	92 23       	and	r25, r18
    156a:	09 f0       	breq	.+2      	; 0x156e <_ZN7Control4initEPN10Parameters8params_tE+0x9c>
    156c:	82 60       	ori	r24, 0x02	; 2
    156e:	8e 83       	std	Y+6, r24	; 0x06
    1570:	d0 93 3b 08 	sts	0x083B, r29	; 0x80083b <_ZN7Encoder13interruptArgsE+0x1>
    1574:	c0 93 3a 08 	sts	0x083A, r28	; 0x80083a <_ZN7Encoder13interruptArgsE>
    1578:	41 e0       	ldi	r20, 0x01	; 1
    157a:	50 e0       	ldi	r21, 0x00	; 0
    157c:	68 e0       	ldi	r22, 0x08	; 8
    157e:	7a e0       	ldi	r23, 0x0A	; 10
    1580:	80 e0       	ldi	r24, 0x00	; 0
    1582:	0e 94 07 34 	call	0x680e	; 0x680e <attachInterrupt>
    1586:	81 e0       	ldi	r24, 0x01	; 1
    1588:	8b 87       	std	Y+11, r24	; 0x0b
    158a:	d0 93 3d 08 	sts	0x083D, r29	; 0x80083d <_ZN7Encoder13interruptArgsE+0x3>
    158e:	c0 93 3c 08 	sts	0x083C, r28	; 0x80083c <_ZN7Encoder13interruptArgsE+0x2>
    1592:	41 e0       	ldi	r20, 0x01	; 1
    1594:	50 e0       	ldi	r21, 0x00	; 0
    1596:	63 e0       	ldi	r22, 0x03	; 3
    1598:	7a e0       	ldi	r23, 0x0A	; 10
    159a:	0e 94 07 34 	call	0x680e	; 0x680e <attachInterrupt>
    159e:	8b 85       	ldd	r24, Y+11	; 0x0b
    15a0:	8f 5f       	subi	r24, 0xFF	; 255
    15a2:	8b 87       	std	Y+11, r24	; 0x0b
    15a4:	f8 01       	movw	r30, r16
    15a6:	ec 5b       	subi	r30, 0xBC	; 188
    15a8:	ff 4f       	sbci	r31, 0xFF	; 255
    15aa:	d1 83       	std	Z+1, r29	; 0x01
    15ac:	c0 83       	st	Z, r28
    15ae:	42 e1       	ldi	r20, 0x12	; 18
    15b0:	be 01       	movw	r22, r28
    15b2:	c8 01       	movw	r24, r16
    15b4:	8a 5b       	subi	r24, 0xBA	; 186
    15b6:	9f 4f       	sbci	r25, 0xFF	; 255
    15b8:	df 91       	pop	r29
    15ba:	cf 91       	pop	r28
    15bc:	1f 91       	pop	r17
    15be:	0f 91       	pop	r16
    15c0:	b8 c1       	rjmp	.+880    	; 0x1932 <_ZN14EncoderHandler4initEP7Encoderh>

000015c2 <_ZN7Control7incMenuEv>:
    15c2:	fc 01       	movw	r30, r24
    15c4:	eb 59       	subi	r30, 0x9B	; 155
    15c6:	ff 4f       	sbci	r31, 0xFF	; 255
    15c8:	a0 81       	ld	r26, Z
    15ca:	b1 81       	ldd	r27, Z+1	; 0x01
    15cc:	9c 91       	ld	r25, X
    15ce:	9f 5f       	subi	r25, 0xFF	; 255
    15d0:	9c 93       	st	X, r25
    15d2:	01 90       	ld	r0, Z+
    15d4:	f0 81       	ld	r31, Z
    15d6:	e0 2d       	mov	r30, r0
    15d8:	80 81       	ld	r24, Z
    15da:	85 30       	cpi	r24, 0x05	; 5
    15dc:	08 f0       	brcs	.+2      	; 0x15e0 <_ZN7Control7incMenuEv+0x1e>
    15de:	10 82       	st	Z, r1
    15e0:	08 95       	ret

000015e2 <_ZN7Control10readButtonEv>:
    15e2:	ef 92       	push	r14
    15e4:	ff 92       	push	r15
    15e6:	0f 93       	push	r16
    15e8:	1f 93       	push	r17
    15ea:	cf 93       	push	r28
    15ec:	df 93       	push	r29
    15ee:	ec 01       	movw	r28, r24
    15f0:	8e e0       	ldi	r24, 0x0E	; 14
    15f2:	0e 94 a6 37 	call	0x6f4c	; 0x6f4c <digitalRead>
    15f6:	8e 01       	movw	r16, r28
    15f8:	09 59       	subi	r16, 0x99	; 153
    15fa:	1f 4f       	sbci	r17, 0xFF	; 255
    15fc:	21 e0       	ldi	r18, 0x01	; 1
    15fe:	89 2b       	or	r24, r25
    1600:	09 f4       	brne	.+2      	; 0x1604 <_ZN7Control10readButtonEv+0x22>
    1602:	20 e0       	ldi	r18, 0x00	; 0
    1604:	f8 01       	movw	r30, r16
    1606:	20 83       	st	Z, r18
    1608:	6a e0       	ldi	r22, 0x0A	; 10
    160a:	70 e0       	ldi	r23, 0x00	; 0
    160c:	80 e0       	ldi	r24, 0x00	; 0
    160e:	90 e0       	ldi	r25, 0x00	; 0
    1610:	0e 94 41 36 	call	0x6c82	; 0x6c82 <delay>
    1614:	f8 01       	movw	r30, r16
    1616:	80 81       	ld	r24, Z
    1618:	9e 01       	movw	r18, r28
    161a:	28 59       	subi	r18, 0x98	; 152
    161c:	3f 4f       	sbci	r19, 0xFF	; 255
    161e:	79 01       	movw	r14, r18
    1620:	81 11       	cpse	r24, r1
    1622:	1c c0       	rjmp	.+56     	; 0x165c <_ZN7Control10readButtonEv+0x7a>
    1624:	f9 01       	movw	r30, r18
    1626:	80 81       	ld	r24, Z
    1628:	88 23       	and	r24, r24
    162a:	c1 f0       	breq	.+48     	; 0x165c <_ZN7Control10readButtonEv+0x7a>
    162c:	ce 01       	movw	r24, r28
    162e:	c9 df       	rcall	.-110    	; 0x15c2 <_ZN7Control7incMenuEv>
    1630:	fe 01       	movw	r30, r28
    1632:	ed 59       	subi	r30, 0x9D	; 157
    1634:	ff 4f       	sbci	r31, 0xFF	; 255
    1636:	81 e0       	ldi	r24, 0x01	; 1
    1638:	80 83       	st	Z, r24
    163a:	66 eb       	ldi	r22, 0xB6	; 182
    163c:	72 e0       	ldi	r23, 0x02	; 2
    163e:	86 e4       	ldi	r24, 0x46	; 70
    1640:	98 e0       	ldi	r25, 0x08	; 8
    1642:	0e 94 99 33 	call	0x6732	; 0x6732 <_ZN5Print5printEPKc>
    1646:	cb 59       	subi	r28, 0x9B	; 155
    1648:	df 4f       	sbci	r29, 0xFF	; 255
    164a:	e8 81       	ld	r30, Y
    164c:	f9 81       	ldd	r31, Y+1	; 0x01
    164e:	4a e0       	ldi	r20, 0x0A	; 10
    1650:	50 e0       	ldi	r21, 0x00	; 0
    1652:	60 81       	ld	r22, Z
    1654:	86 e4       	ldi	r24, 0x46	; 70
    1656:	98 e0       	ldi	r25, 0x08	; 8
    1658:	0e 94 f6 33 	call	0x67ec	; 0x67ec <_ZN5Print7printlnEhi>
    165c:	f8 01       	movw	r30, r16
    165e:	80 81       	ld	r24, Z
    1660:	f7 01       	movw	r30, r14
    1662:	80 83       	st	Z, r24
    1664:	df 91       	pop	r29
    1666:	cf 91       	pop	r28
    1668:	1f 91       	pop	r17
    166a:	0f 91       	pop	r16
    166c:	ff 90       	pop	r15
    166e:	ef 90       	pop	r14
    1670:	08 95       	ret

00001672 <_ZN7Control4readEv>:
    1672:	cf 92       	push	r12
    1674:	df 92       	push	r13
    1676:	ef 92       	push	r14
    1678:	ff 92       	push	r15
    167a:	0f 93       	push	r16
    167c:	1f 93       	push	r17
    167e:	cf 93       	push	r28
    1680:	df 93       	push	r29
    1682:	ec 01       	movw	r28, r24
    1684:	6c 01       	movw	r12, r24
    1686:	86 e4       	ldi	r24, 0x46	; 70
    1688:	c8 0e       	add	r12, r24
    168a:	d1 1c       	adc	r13, r1
    168c:	00 e0       	ldi	r16, 0x00	; 0
    168e:	10 e0       	ldi	r17, 0x00	; 0
    1690:	20 e2       	ldi	r18, 0x20	; 32
    1692:	31 e4       	ldi	r19, 0x41	; 65
    1694:	40 e0       	ldi	r20, 0x00	; 0
    1696:	50 e0       	ldi	r21, 0x00	; 0
    1698:	60 e8       	ldi	r22, 0x80	; 128
    169a:	7f e3       	ldi	r23, 0x3F	; 63
    169c:	c6 01       	movw	r24, r12
    169e:	51 d1       	rcall	.+674    	; 0x1942 <_ZN14EncoderHandler6setMulEff>
    16a0:	fe 01       	movw	r30, r28
    16a2:	eb 59       	subi	r30, 0x9B	; 155
    16a4:	ff 4f       	sbci	r31, 0xFF	; 255
    16a6:	60 81       	ld	r22, Z
    16a8:	71 81       	ldd	r23, Z+1	; 0x01
    16aa:	6e 5f       	subi	r22, 0xFE	; 254
    16ac:	7f 4f       	sbci	r23, 0xFF	; 255
    16ae:	e1 2c       	mov	r14, r1
    16b0:	10 e8       	ldi	r17, 0x80	; 128
    16b2:	f1 2e       	mov	r15, r17
    16b4:	0b e3       	ldi	r16, 0x3B	; 59
    16b6:	16 e4       	ldi	r17, 0x46	; 70
    16b8:	20 e0       	ldi	r18, 0x00	; 0
    16ba:	30 e0       	ldi	r19, 0x00	; 0
    16bc:	40 ef       	ldi	r20, 0xF0	; 240
    16be:	51 e4       	ldi	r21, 0x41	; 65
    16c0:	c6 01       	movw	r24, r12
    16c2:	63 d1       	rcall	.+710    	; 0x198a <_ZN14EncoderHandler8setValueEPfff>
    16c4:	ce 01       	movw	r24, r28
    16c6:	df 91       	pop	r29
    16c8:	cf 91       	pop	r28
    16ca:	1f 91       	pop	r17
    16cc:	0f 91       	pop	r16
    16ce:	ff 90       	pop	r15
    16d0:	ef 90       	pop	r14
    16d2:	df 90       	pop	r13
    16d4:	cf 90       	pop	r12
    16d6:	85 cf       	rjmp	.-246    	; 0x15e2 <_ZN7Control10readButtonEv>

000016d8 <_GLOBAL__sub_I__ZN7ControlC2Ev>:

    16d8:	cf 93       	push	r28
    16da:	df 93       	push	r29
    const int BKGCOLOR = 0x0000;
    const int COLOR = 0xF800;
    const byte STROKEWEIGHT = 3;
    
	const byte TABLES = 5;
    const String tmTables[TABLES] = {"OSC.", "FIL.", "ENV.", "FX", "SETT."};
    16dc:	6d eb       	ldi	r22, 0xBD	; 189
    16de:	72 e0       	ldi	r23, 0x02	; 2
    16e0:	84 e1       	ldi	r24, 0x14	; 20
    16e2:	94 e0       	ldi	r25, 0x04	; 4
    16e4:	0e 94 35 38 	call	0x706a	; 0x706a <_ZN6StringC1EPKc>
    16e8:	62 ec       	ldi	r22, 0xC2	; 194
    16ea:	72 e0       	ldi	r23, 0x02	; 2
    16ec:	8a e1       	ldi	r24, 0x1A	; 26
    16ee:	94 e0       	ldi	r25, 0x04	; 4
    16f0:	0e 94 35 38 	call	0x706a	; 0x706a <_ZN6StringC1EPKc>
    16f4:	67 ec       	ldi	r22, 0xC7	; 199
    16f6:	72 e0       	ldi	r23, 0x02	; 2
    16f8:	80 e2       	ldi	r24, 0x20	; 32
    16fa:	94 e0       	ldi	r25, 0x04	; 4
    16fc:	0e 94 35 38 	call	0x706a	; 0x706a <_ZN6StringC1EPKc>
    1700:	6c ec       	ldi	r22, 0xCC	; 204
    1702:	72 e0       	ldi	r23, 0x02	; 2
    1704:	86 e2       	ldi	r24, 0x26	; 38
    1706:	94 e0       	ldi	r25, 0x04	; 4
    1708:	0e 94 35 38 	call	0x706a	; 0x706a <_ZN6StringC1EPKc>
    170c:	6f ec       	ldi	r22, 0xCF	; 207
    170e:	72 e0       	ldi	r23, 0x02	; 2
    1710:	8c e2       	ldi	r24, 0x2C	; 44
    1712:	94 e0       	ldi	r25, 0x04	; 4
    1714:	0e 94 35 38 	call	0x706a	; 0x706a <_ZN6StringC1EPKc>
    const byte BLABELS = 4;
    const String oscLabels[BLABELS] = {"WAVE:", "FREQ:", "LFO:", "FREQ:"};
    1718:	65 ed       	ldi	r22, 0xD5	; 213
    171a:	72 e0       	ldi	r23, 0x02	; 2
    171c:	8c ef       	ldi	r24, 0xFC	; 252
    171e:	93 e0       	ldi	r25, 0x03	; 3
    1720:	0e 94 35 38 	call	0x706a	; 0x706a <_ZN6StringC1EPKc>
    1724:	6b ed       	ldi	r22, 0xDB	; 219
    1726:	72 e0       	ldi	r23, 0x02	; 2
    1728:	82 e0       	ldi	r24, 0x02	; 2
    172a:	94 e0       	ldi	r25, 0x04	; 4
    172c:	0e 94 35 38 	call	0x706a	; 0x706a <_ZN6StringC1EPKc>
    1730:	61 ee       	ldi	r22, 0xE1	; 225
    1732:	72 e0       	ldi	r23, 0x02	; 2
    1734:	88 e0       	ldi	r24, 0x08	; 8
    1736:	94 e0       	ldi	r25, 0x04	; 4
    1738:	0e 94 35 38 	call	0x706a	; 0x706a <_ZN6StringC1EPKc>
    173c:	6b ed       	ldi	r22, 0xDB	; 219
    173e:	72 e0       	ldi	r23, 0x02	; 2
    1740:	8e e0       	ldi	r24, 0x0E	; 14
    1742:	94 e0       	ldi	r25, 0x04	; 4
    1744:	0e 94 35 38 	call	0x706a	; 0x706a <_ZN6StringC1EPKc>
    const String filLabels[BLABELS] = {"TYPE:", "FREQ:", "RES:", "ENV:"};
    1748:	66 ee       	ldi	r22, 0xE6	; 230
    174a:	72 e0       	ldi	r23, 0x02	; 2
    174c:	84 ee       	ldi	r24, 0xE4	; 228
    174e:	93 e0       	ldi	r25, 0x03	; 3
    1750:	0e 94 35 38 	call	0x706a	; 0x706a <_ZN6StringC1EPKc>
    1754:	6b ed       	ldi	r22, 0xDB	; 219
    1756:	72 e0       	ldi	r23, 0x02	; 2
    1758:	8a ee       	ldi	r24, 0xEA	; 234
    175a:	93 e0       	ldi	r25, 0x03	; 3
    175c:	0e 94 35 38 	call	0x706a	; 0x706a <_ZN6StringC1EPKc>
    1760:	6c ee       	ldi	r22, 0xEC	; 236
    1762:	72 e0       	ldi	r23, 0x02	; 2
    1764:	80 ef       	ldi	r24, 0xF0	; 240
    1766:	93 e0       	ldi	r25, 0x03	; 3
    1768:	0e 94 35 38 	call	0x706a	; 0x706a <_ZN6StringC1EPKc>
    176c:	61 ef       	ldi	r22, 0xF1	; 241
    176e:	72 e0       	ldi	r23, 0x02	; 2
    1770:	86 ef       	ldi	r24, 0xF6	; 246
    1772:	93 e0       	ldi	r25, 0x03	; 3
    1774:	0e 94 35 38 	call	0x706a	; 0x706a <_ZN6StringC1EPKc>
    const String envLabels[BLABELS] = {"ATK:", "DEC:", "SUS:", "REL:"};
    1778:	66 ef       	ldi	r22, 0xF6	; 246
    177a:	72 e0       	ldi	r23, 0x02	; 2
    177c:	8c ec       	ldi	r24, 0xCC	; 204
    177e:	93 e0       	ldi	r25, 0x03	; 3
    1780:	0e 94 35 38 	call	0x706a	; 0x706a <_ZN6StringC1EPKc>
    1784:	6b ef       	ldi	r22, 0xFB	; 251
    1786:	72 e0       	ldi	r23, 0x02	; 2
    1788:	82 ed       	ldi	r24, 0xD2	; 210
    178a:	93 e0       	ldi	r25, 0x03	; 3
    178c:	0e 94 35 38 	call	0x706a	; 0x706a <_ZN6StringC1EPKc>
    1790:	60 e0       	ldi	r22, 0x00	; 0
    1792:	73 e0       	ldi	r23, 0x03	; 3
    1794:	88 ed       	ldi	r24, 0xD8	; 216
    1796:	93 e0       	ldi	r25, 0x03	; 3
    1798:	0e 94 35 38 	call	0x706a	; 0x706a <_ZN6StringC1EPKc>
    179c:	65 e0       	ldi	r22, 0x05	; 5
    179e:	73 e0       	ldi	r23, 0x03	; 3
    17a0:	8e ed       	ldi	r24, 0xDE	; 222
    17a2:	93 e0       	ldi	r25, 0x03	; 3
    17a4:	0e 94 35 38 	call	0x706a	; 0x706a <_ZN6StringC1EPKc>
    const String fxLabels[BLABELS] = {"TYPE:", "AMT:", "PARAM:", "LFO:"};
    17a8:	66 ee       	ldi	r22, 0xE6	; 230
    17aa:	72 e0       	ldi	r23, 0x02	; 2
    17ac:	84 eb       	ldi	r24, 0xB4	; 180
    17ae:	93 e0       	ldi	r25, 0x03	; 3
    17b0:	0e 94 35 38 	call	0x706a	; 0x706a <_ZN6StringC1EPKc>
    17b4:	6a e0       	ldi	r22, 0x0A	; 10
    17b6:	73 e0       	ldi	r23, 0x03	; 3
    17b8:	8a eb       	ldi	r24, 0xBA	; 186
    17ba:	93 e0       	ldi	r25, 0x03	; 3
    17bc:	0e 94 35 38 	call	0x706a	; 0x706a <_ZN6StringC1EPKc>
    17c0:	6f e0       	ldi	r22, 0x0F	; 15
    17c2:	73 e0       	ldi	r23, 0x03	; 3
    17c4:	80 ec       	ldi	r24, 0xC0	; 192
    17c6:	93 e0       	ldi	r25, 0x03	; 3
    17c8:	0e 94 35 38 	call	0x706a	; 0x706a <_ZN6StringC1EPKc>
    17cc:	61 ee       	ldi	r22, 0xE1	; 225
    17ce:	72 e0       	ldi	r23, 0x02	; 2
    17d0:	86 ec       	ldi	r24, 0xC6	; 198
    17d2:	93 e0       	ldi	r25, 0x03	; 3
    17d4:	0e 94 35 38 	call	0x706a	; 0x706a <_ZN6StringC1EPKc>
    const byte NUMWAVES = 4; 
	const String waveNames[NUMWAVES] = {"SINE", "SQR", "TRI", "SAW"};
    17d8:	66 e1       	ldi	r22, 0x16	; 22
    17da:	73 e0       	ldi	r23, 0x03	; 3
    17dc:	8c e9       	ldi	r24, 0x9C	; 156
    17de:	93 e0       	ldi	r25, 0x03	; 3
    17e0:	0e 94 35 38 	call	0x706a	; 0x706a <_ZN6StringC1EPKc>
    17e4:	6b e1       	ldi	r22, 0x1B	; 27
    17e6:	73 e0       	ldi	r23, 0x03	; 3
    17e8:	82 ea       	ldi	r24, 0xA2	; 162
    17ea:	93 e0       	ldi	r25, 0x03	; 3
    17ec:	0e 94 35 38 	call	0x706a	; 0x706a <_ZN6StringC1EPKc>
    17f0:	6f e1       	ldi	r22, 0x1F	; 31
    17f2:	73 e0       	ldi	r23, 0x03	; 3
    17f4:	88 ea       	ldi	r24, 0xA8	; 168
    17f6:	93 e0       	ldi	r25, 0x03	; 3
    17f8:	0e 94 35 38 	call	0x706a	; 0x706a <_ZN6StringC1EPKc>
    17fc:	63 e2       	ldi	r22, 0x23	; 35
    17fe:	73 e0       	ldi	r23, 0x03	; 3
    1800:	8e ea       	ldi	r24, 0xAE	; 174
    1802:	93 e0       	ldi	r25, 0x03	; 3
    1804:	0e 94 35 38 	call	0x706a	; 0x706a <_ZN6StringC1EPKc>
    const byte NUMFX = 8;
	const String fxNames[NUMFX] = {"OFF, >>, <<, AND, OR, NOR, XAND, XOR"};
    1808:	67 e2       	ldi	r22, 0x27	; 39
    180a:	73 e0       	ldi	r23, 0x03	; 3
    180c:	8c e6       	ldi	r24, 0x6C	; 108
    180e:	93 e0       	ldi	r25, 0x03	; 3
    1810:	0e 94 35 38 	call	0x706a	; 0x706a <_ZN6StringC1EPKc>
    1814:	c0 e0       	ldi	r28, 0x00	; 0
    1816:	d0 e0       	ldi	r29, 0x00	; 0
    1818:	26 96       	adiw	r28, 0x06	; 6
    181a:	6e e5       	ldi	r22, 0x5E	; 94
    181c:	73 e0       	ldi	r23, 0x03	; 3
    181e:	ce 01       	movw	r24, r28
    1820:	84 59       	subi	r24, 0x94	; 148
    1822:	9c 4f       	sbci	r25, 0xFC	; 252
    1824:	0e 94 35 38 	call	0x706a	; 0x706a <_ZN6StringC1EPKc>
    1828:	ca 32       	cpi	r28, 0x2A	; 42
    182a:	d1 05       	cpc	r29, r1
    182c:	a9 f7       	brne	.-22     	; 0x1818 <_GLOBAL__sub_I__ZN7ControlC2Ev+0x140>
    182e:	df 91       	pop	r29
    1830:	cf 91       	pop	r28
    1832:	08 95       	ret

00001834 <_GLOBAL__sub_D__ZN7ControlC2Ev>:
    1834:	cf 93       	push	r28
    1836:	df 93       	push	r29
    1838:	cc e9       	ldi	r28, 0x9C	; 156
    183a:	d3 e0       	ldi	r29, 0x03	; 3
    183c:	26 97       	sbiw	r28, 0x06	; 6
    183e:	ce 01       	movw	r24, r28
    1840:	0e 94 ce 37 	call	0x6f9c	; 0x6f9c <_ZN6StringD1Ev>
    1844:	83 e0       	ldi	r24, 0x03	; 3
    1846:	cc 36       	cpi	r28, 0x6C	; 108
    1848:	d8 07       	cpc	r29, r24
    184a:	c1 f7       	brne	.-16     	; 0x183c <_GLOBAL__sub_D__ZN7ControlC2Ev+0x8>
    const String oscLabels[BLABELS] = {"WAVE:", "FREQ:", "LFO:", "FREQ:"};
    const String filLabels[BLABELS] = {"TYPE:", "FREQ:", "RES:", "ENV:"};
    const String envLabels[BLABELS] = {"ATK:", "DEC:", "SUS:", "REL:"};
    const String fxLabels[BLABELS] = {"TYPE:", "AMT:", "PARAM:", "LFO:"};
    const byte NUMWAVES = 4; 
	const String waveNames[NUMWAVES] = {"SINE", "SQR", "TRI", "SAW"};
    184c:	8e ea       	ldi	r24, 0xAE	; 174
    184e:	93 e0       	ldi	r25, 0x03	; 3
    1850:	0e 94 ce 37 	call	0x6f9c	; 0x6f9c <_ZN6StringD1Ev>
    1854:	88 ea       	ldi	r24, 0xA8	; 168
    1856:	93 e0       	ldi	r25, 0x03	; 3
    1858:	0e 94 ce 37 	call	0x6f9c	; 0x6f9c <_ZN6StringD1Ev>
    185c:	82 ea       	ldi	r24, 0xA2	; 162
    185e:	93 e0       	ldi	r25, 0x03	; 3
    1860:	0e 94 ce 37 	call	0x6f9c	; 0x6f9c <_ZN6StringD1Ev>
    1864:	8c e9       	ldi	r24, 0x9C	; 156
    1866:	93 e0       	ldi	r25, 0x03	; 3
    1868:	0e 94 ce 37 	call	0x6f9c	; 0x6f9c <_ZN6StringD1Ev>
    const String tmTables[TABLES] = {"OSC.", "FIL.", "ENV.", "FX", "SETT."};
    const byte BLABELS = 4;
    const String oscLabels[BLABELS] = {"WAVE:", "FREQ:", "LFO:", "FREQ:"};
    const String filLabels[BLABELS] = {"TYPE:", "FREQ:", "RES:", "ENV:"};
    const String envLabels[BLABELS] = {"ATK:", "DEC:", "SUS:", "REL:"};
    const String fxLabels[BLABELS] = {"TYPE:", "AMT:", "PARAM:", "LFO:"};
    186c:	86 ec       	ldi	r24, 0xC6	; 198
    186e:	93 e0       	ldi	r25, 0x03	; 3
    1870:	0e 94 ce 37 	call	0x6f9c	; 0x6f9c <_ZN6StringD1Ev>
    1874:	80 ec       	ldi	r24, 0xC0	; 192
    1876:	93 e0       	ldi	r25, 0x03	; 3
    1878:	0e 94 ce 37 	call	0x6f9c	; 0x6f9c <_ZN6StringD1Ev>
    187c:	8a eb       	ldi	r24, 0xBA	; 186
    187e:	93 e0       	ldi	r25, 0x03	; 3
    1880:	0e 94 ce 37 	call	0x6f9c	; 0x6f9c <_ZN6StringD1Ev>
    1884:	84 eb       	ldi	r24, 0xB4	; 180
    1886:	93 e0       	ldi	r25, 0x03	; 3
    1888:	0e 94 ce 37 	call	0x6f9c	; 0x6f9c <_ZN6StringD1Ev>
	const byte TABLES = 5;
    const String tmTables[TABLES] = {"OSC.", "FIL.", "ENV.", "FX", "SETT."};
    const byte BLABELS = 4;
    const String oscLabels[BLABELS] = {"WAVE:", "FREQ:", "LFO:", "FREQ:"};
    const String filLabels[BLABELS] = {"TYPE:", "FREQ:", "RES:", "ENV:"};
    const String envLabels[BLABELS] = {"ATK:", "DEC:", "SUS:", "REL:"};
    188c:	8e ed       	ldi	r24, 0xDE	; 222
    188e:	93 e0       	ldi	r25, 0x03	; 3
    1890:	0e 94 ce 37 	call	0x6f9c	; 0x6f9c <_ZN6StringD1Ev>
    1894:	88 ed       	ldi	r24, 0xD8	; 216
    1896:	93 e0       	ldi	r25, 0x03	; 3
    1898:	0e 94 ce 37 	call	0x6f9c	; 0x6f9c <_ZN6StringD1Ev>
    189c:	82 ed       	ldi	r24, 0xD2	; 210
    189e:	93 e0       	ldi	r25, 0x03	; 3
    18a0:	0e 94 ce 37 	call	0x6f9c	; 0x6f9c <_ZN6StringD1Ev>
    18a4:	8c ec       	ldi	r24, 0xCC	; 204
    18a6:	93 e0       	ldi	r25, 0x03	; 3
    18a8:	0e 94 ce 37 	call	0x6f9c	; 0x6f9c <_ZN6StringD1Ev>
    
	const byte TABLES = 5;
    const String tmTables[TABLES] = {"OSC.", "FIL.", "ENV.", "FX", "SETT."};
    const byte BLABELS = 4;
    const String oscLabels[BLABELS] = {"WAVE:", "FREQ:", "LFO:", "FREQ:"};
    const String filLabels[BLABELS] = {"TYPE:", "FREQ:", "RES:", "ENV:"};
    18ac:	86 ef       	ldi	r24, 0xF6	; 246
    18ae:	93 e0       	ldi	r25, 0x03	; 3
    18b0:	0e 94 ce 37 	call	0x6f9c	; 0x6f9c <_ZN6StringD1Ev>
    18b4:	80 ef       	ldi	r24, 0xF0	; 240
    18b6:	93 e0       	ldi	r25, 0x03	; 3
    18b8:	0e 94 ce 37 	call	0x6f9c	; 0x6f9c <_ZN6StringD1Ev>
    18bc:	8a ee       	ldi	r24, 0xEA	; 234
    18be:	93 e0       	ldi	r25, 0x03	; 3
    18c0:	0e 94 ce 37 	call	0x6f9c	; 0x6f9c <_ZN6StringD1Ev>
    18c4:	84 ee       	ldi	r24, 0xE4	; 228
    18c6:	93 e0       	ldi	r25, 0x03	; 3
    18c8:	0e 94 ce 37 	call	0x6f9c	; 0x6f9c <_ZN6StringD1Ev>
    const byte STROKEWEIGHT = 3;
    
	const byte TABLES = 5;
    const String tmTables[TABLES] = {"OSC.", "FIL.", "ENV.", "FX", "SETT."};
    const byte BLABELS = 4;
    const String oscLabels[BLABELS] = {"WAVE:", "FREQ:", "LFO:", "FREQ:"};
    18cc:	8e e0       	ldi	r24, 0x0E	; 14
    18ce:	94 e0       	ldi	r25, 0x04	; 4
    18d0:	0e 94 ce 37 	call	0x6f9c	; 0x6f9c <_ZN6StringD1Ev>
    18d4:	88 e0       	ldi	r24, 0x08	; 8
    18d6:	94 e0       	ldi	r25, 0x04	; 4
    18d8:	0e 94 ce 37 	call	0x6f9c	; 0x6f9c <_ZN6StringD1Ev>
    18dc:	82 e0       	ldi	r24, 0x02	; 2
    18de:	94 e0       	ldi	r25, 0x04	; 4
    18e0:	0e 94 ce 37 	call	0x6f9c	; 0x6f9c <_ZN6StringD1Ev>
    18e4:	8c ef       	ldi	r24, 0xFC	; 252
    18e6:	93 e0       	ldi	r25, 0x03	; 3
    18e8:	0e 94 ce 37 	call	0x6f9c	; 0x6f9c <_ZN6StringD1Ev>
    18ec:	c2 e3       	ldi	r28, 0x32	; 50
    18ee:	d4 e0       	ldi	r29, 0x04	; 4
    const int BKGCOLOR = 0x0000;
    const int COLOR = 0xF800;
    const byte STROKEWEIGHT = 3;
    
	const byte TABLES = 5;
    const String tmTables[TABLES] = {"OSC.", "FIL.", "ENV.", "FX", "SETT."};
    18f0:	26 97       	sbiw	r28, 0x06	; 6
    18f2:	ce 01       	movw	r24, r28
    18f4:	0e 94 ce 37 	call	0x6f9c	; 0x6f9c <_ZN6StringD1Ev>
    18f8:	84 e0       	ldi	r24, 0x04	; 4
    18fa:	c4 31       	cpi	r28, 0x14	; 20
    18fc:	d8 07       	cpc	r29, r24
    18fe:	c1 f7       	brne	.-16     	; 0x18f0 <_GLOBAL__sub_D__ZN7ControlC2Ev+0xbc>
    1900:	df 91       	pop	r29
    1902:	cf 91       	pop	r28
    1904:	08 95       	ret

00001906 <_ZN14EncoderHandlerC1Ev>:
 * EncoderHandler implementation
 * 
 * This class provides additional functionality to the Encoder library
 */

EncoderHandler::EncoderHandler(){
    1906:	fc 01       	movw	r30, r24
	pos[0] = 0; //new position
    1908:	11 8e       	std	Z+25, r1	; 0x19
    190a:	10 8e       	std	Z+24, r1	; 0x18
	pos[1] = 0; //old position
    190c:	13 8e       	std	Z+27, r1	; 0x1b
    190e:	12 8e       	std	Z+26, r1	; 0x1a
	bMul = 1.f;
    1910:	80 e0       	ldi	r24, 0x00	; 0
    1912:	90 e0       	ldi	r25, 0x00	; 0
    1914:	a0 e8       	ldi	r26, 0x80	; 128
    1916:	bf e3       	ldi	r27, 0x3F	; 63
    1918:	80 8b       	std	Z+16, r24	; 0x10
    191a:	91 8b       	std	Z+17, r25	; 0x11
    191c:	a2 8b       	std	Z+18, r26	; 0x12
    191e:	b3 8b       	std	Z+19, r27	; 0x13
	nMul = 0.25f; 
    1920:	80 e0       	ldi	r24, 0x00	; 0
    1922:	90 e0       	ldi	r25, 0x00	; 0
    1924:	a0 e8       	ldi	r26, 0x80	; 128
    1926:	be e3       	ldi	r27, 0x3E	; 62
    1928:	84 8b       	std	Z+20, r24	; 0x14
    192a:	95 8b       	std	Z+21, r25	; 0x15
    192c:	a6 8b       	std	Z+22, r26	; 0x16
    192e:	b7 8b       	std	Z+23, r27	; 0x17
    1930:	08 95       	ret

00001932 <_ZN14EncoderHandler4initEP7Encoderh>:
}

void EncoderHandler::init(Encoder* e, byte bP) {
	enc = e; 
    1932:	fc 01       	movw	r30, r24
    1934:	76 87       	std	Z+14, r23	; 0x0e
    1936:	65 87       	std	Z+13, r22	; 0x0d
	bPin = bP;
    1938:	47 87       	std	Z+15, r20	; 0x0f
	pinMode(bPin, INPUT_PULLUP);
    193a:	62 e0       	ldi	r22, 0x02	; 2
    193c:	84 2f       	mov	r24, r20
    193e:	0c 94 3c 37 	jmp	0x6e78	; 0x6e78 <pinMode>

00001942 <_ZN14EncoderHandler6setMulEff>:
}

void EncoderHandler::setMul(float bM, float nM) {
    1942:	cf 92       	push	r12
    1944:	df 92       	push	r13
    1946:	ef 92       	push	r14
    1948:	ff 92       	push	r15
    194a:	0f 93       	push	r16
    194c:	1f 93       	push	r17
    194e:	cf 93       	push	r28
    1950:	df 93       	push	r29
    1952:	ec 01       	movw	r28, r24
    1954:	6a 01       	movw	r12, r20
    1956:	7b 01       	movw	r14, r22
    1958:	c9 01       	movw	r24, r18
    195a:	b8 01       	movw	r22, r16
	bMul = bM;
    195c:	c8 8a       	std	Y+16, r12	; 0x10
    195e:	d9 8a       	std	Y+17, r13	; 0x11
    1960:	ea 8a       	std	Y+18, r14	; 0x12
    1962:	fb 8a       	std	Y+19, r15	; 0x13
	nMul = nM*0.25;
    1964:	20 e0       	ldi	r18, 0x00	; 0
    1966:	30 e0       	ldi	r19, 0x00	; 0
    1968:	40 e8       	ldi	r20, 0x80	; 128
    196a:	5e e3       	ldi	r21, 0x3E	; 62
    196c:	0e 94 ff 30 	call	0x61fe	; 0x61fe <__mulsf3>
    1970:	6c 8b       	std	Y+20, r22	; 0x14
    1972:	7d 8b       	std	Y+21, r23	; 0x15
    1974:	8e 8b       	std	Y+22, r24	; 0x16
    1976:	9f 8b       	std	Y+23, r25	; 0x17
}
    1978:	df 91       	pop	r29
    197a:	cf 91       	pop	r28
    197c:	1f 91       	pop	r17
    197e:	0f 91       	pop	r16
    1980:	ff 90       	pop	r15
    1982:	ef 90       	pop	r14
    1984:	df 90       	pop	r13
    1986:	cf 90       	pop	r12
    1988:	08 95       	ret

0000198a <_ZN14EncoderHandler8setValueEPfff>:

void EncoderHandler::setValue(float* v, float min, float max) {
    198a:	2f 92       	push	r2
    198c:	3f 92       	push	r3
    198e:	4f 92       	push	r4
    1990:	5f 92       	push	r5
    1992:	6f 92       	push	r6
    1994:	7f 92       	push	r7
    1996:	8f 92       	push	r8
    1998:	9f 92       	push	r9
    199a:	af 92       	push	r10
    199c:	bf 92       	push	r11
    199e:	cf 92       	push	r12
    19a0:	df 92       	push	r13
    19a2:	ef 92       	push	r14
    19a4:	ff 92       	push	r15
    19a6:	0f 93       	push	r16
    19a8:	1f 93       	push	r17
    19aa:	cf 93       	push	r28
    19ac:	df 93       	push	r29
    19ae:	00 d0       	rcall	.+0      	; 0x19b0 <_ZN14EncoderHandler8setValueEPfff+0x26>
    19b0:	00 d0       	rcall	.+0      	; 0x19b2 <_ZN14EncoderHandler8setValueEPfff+0x28>
    19b2:	cd b7       	in	r28, 0x3d	; 61
    19b4:	de b7       	in	r29, 0x3e	; 62
    19b6:	9e 83       	std	Y+6, r25	; 0x06
    19b8:	8d 83       	std	Y+5, r24	; 0x05
    19ba:	6b 01       	movw	r12, r22
    19bc:	49 01       	movw	r8, r18
    19be:	5a 01       	movw	r10, r20
    19c0:	09 83       	std	Y+1, r16	; 0x01
    19c2:	1a 83       	std	Y+2, r17	; 0x02
	button = digitalRead(bPin);
    19c4:	fc 01       	movw	r30, r24
    19c6:	87 85       	ldd	r24, Z+15	; 0x0f
    19c8:	0e 94 a6 37 	call	0x6f4c	; 0x6f4c <digitalRead>
    19cc:	21 e0       	ldi	r18, 0x01	; 1
    19ce:	89 2b       	or	r24, r25
    19d0:	09 f4       	brne	.+2      	; 0x19d4 <_ZN14EncoderHandler8setValueEPfff+0x4a>
    19d2:	20 e0       	ldi	r18, 0x00	; 0
    19d4:	ed 81       	ldd	r30, Y+5	; 0x05
    19d6:	fe 81       	ldd	r31, Y+6	; 0x06
    19d8:	24 8f       	std	Z+28, r18	; 0x1c
	//Serial.println(enc->read());
	
	pos[0] = enc->read();
    19da:	05 85       	ldd	r16, Z+13	; 0x0d
    19dc:	16 85       	ldd	r17, Z+14	; 0x0e
	}


#ifdef ENCODER_USE_INTERRUPTS
	inline int32_t read() {
		if (interrupts_in_use < 2) {
    19de:	f8 01       	movw	r30, r16
    19e0:	83 85       	ldd	r24, Z+11	; 0x0b
    19e2:	82 30       	cpi	r24, 0x02	; 2
    19e4:	20 f4       	brcc	.+8      	; 0x19ee <_ZN14EncoderHandler8setValueEPfff+0x64>
			noInterrupts();
    19e6:	f8 94       	cli
			update(&encoder);
    19e8:	c8 01       	movw	r24, r16
    19ea:	cb dc       	rcall	.-1642   	; 0x1382 <_ZN7Encoder6updateEP24Encoder_internal_state_t>
    19ec:	01 c0       	rjmp	.+2      	; 0x19f0 <_ZN14EncoderHandler8setValueEPfff+0x66>
		} else {
			noInterrupts();
    19ee:	f8 94       	cli
		}
		int32_t ret = encoder.position;
    19f0:	f8 01       	movw	r30, r16
    19f2:	47 80       	ldd	r4, Z+7	; 0x07
    19f4:	50 84       	ldd	r5, Z+8	; 0x08
    19f6:	61 84       	ldd	r6, Z+9	; 0x09
    19f8:	72 84       	ldd	r7, Z+10	; 0x0a
		interrupts();
    19fa:	78 94       	sei
    19fc:	5c 82       	std	Y+4, r5	; 0x04
    19fe:	4b 82       	std	Y+3, r4	; 0x03
    1a00:	ed 81       	ldd	r30, Y+5	; 0x05
    1a02:	fe 81       	ldd	r31, Y+6	; 0x06
    1a04:	51 8e       	std	Z+25, r5	; 0x19
    1a06:	40 8e       	std	Z+24, r4	; 0x18
	if(pos[0]>pos[1]){
    1a08:	82 8d       	ldd	r24, Z+26	; 0x1a
    1a0a:	93 8d       	ldd	r25, Z+27	; 0x1b
    1a0c:	84 15       	cp	r24, r4
    1a0e:	95 05       	cpc	r25, r5
    1a10:	cc f5       	brge	.+114    	; 0x1a84 <_ZN14EncoderHandler8setValueEPfff+0xfa>
		else return f;
	}
}

float EncoderHandler::returnMul(boolean m){ // mode, bMul, nMul
	if(m) return nMul;
    1a12:	84 8d       	ldd	r24, Z+28	; 0x1c
    1a14:	88 23       	and	r24, r24
    1a16:	29 f0       	breq	.+10     	; 0x1a22 <_ZN14EncoderHandler8setValueEPfff+0x98>
    1a18:	64 89       	ldd	r22, Z+20	; 0x14
    1a1a:	75 89       	ldd	r23, Z+21	; 0x15
    1a1c:	86 89       	ldd	r24, Z+22	; 0x16
    1a1e:	97 89       	ldd	r25, Z+23	; 0x17
    1a20:	06 c0       	rjmp	.+12     	; 0x1a2e <_ZN14EncoderHandler8setValueEPfff+0xa4>
	else return bMul;
    1a22:	ed 81       	ldd	r30, Y+5	; 0x05
    1a24:	fe 81       	ldd	r31, Y+6	; 0x06
    1a26:	60 89       	ldd	r22, Z+16	; 0x10
    1a28:	71 89       	ldd	r23, Z+17	; 0x11
    1a2a:	82 89       	ldd	r24, Z+18	; 0x12
    1a2c:	93 89       	ldd	r25, Z+19	; 0x13
	button = digitalRead(bPin);
	//Serial.println(enc->read());
	
	pos[0] = enc->read();
	if(pos[0]>pos[1]){
		*v += returnMul(button);
    1a2e:	f6 01       	movw	r30, r12
    1a30:	20 81       	ld	r18, Z
    1a32:	31 81       	ldd	r19, Z+1	; 0x01
    1a34:	42 81       	ldd	r20, Z+2	; 0x02
    1a36:	53 81       	ldd	r21, Z+3	; 0x03
    1a38:	0e 94 1e 30 	call	0x603c	; 0x603c <__addsf3>
    1a3c:	1b 01       	movw	r2, r22
    1a3e:	8c 01       	movw	r16, r24
void EncoderHandler::setValue(byte* v, byte min, byte max) {

}

float EncoderHandler::clip(float f, float mn, float mx){
	if(f < mn){
    1a40:	94 01       	movw	r18, r8
    1a42:	a5 01       	movw	r20, r10
    1a44:	0e 94 82 30 	call	0x6104	; 0x6104 <__cmpsf2>
    1a48:	87 fd       	sbrc	r24, 7
    1a4a:	0d c0       	rjmp	.+26     	; 0x1a66 <_ZN14EncoderHandler8setValueEPfff+0xdc>
		return mn;
	}
	else{
		if(f>mx) return mx;
    1a4c:	97 01       	movw	r18, r14
    1a4e:	49 81       	ldd	r20, Y+1	; 0x01
    1a50:	5a 81       	ldd	r21, Y+2	; 0x02
    1a52:	b1 01       	movw	r22, r2
    1a54:	c8 01       	movw	r24, r16
    1a56:	0e 94 fb 30 	call	0x61f6	; 0x61f6 <__gesf2>
    1a5a:	18 16       	cp	r1, r24
    1a5c:	34 f4       	brge	.+12     	; 0x1a6a <_ZN14EncoderHandler8setValueEPfff+0xe0>
    1a5e:	17 01       	movw	r2, r14
    1a60:	09 81       	ldd	r16, Y+1	; 0x01
    1a62:	1a 81       	ldd	r17, Y+2	; 0x02
    1a64:	02 c0       	rjmp	.+4      	; 0x1a6a <_ZN14EncoderHandler8setValueEPfff+0xe0>

}

float EncoderHandler::clip(float f, float mn, float mx){
	if(f < mn){
		return mn;
    1a66:	14 01       	movw	r2, r8
    1a68:	85 01       	movw	r16, r10
	//Serial.println(enc->read());
	
	pos[0] = enc->read();
	if(pos[0]>pos[1]){
		*v += returnMul(button);
		*v = clip(*v, min, max);
    1a6a:	c1 01       	movw	r24, r2
    1a6c:	d8 01       	movw	r26, r16
    1a6e:	f6 01       	movw	r30, r12
    1a70:	80 83       	st	Z, r24
    1a72:	91 83       	std	Z+1, r25	; 0x01
    1a74:	a2 83       	std	Z+2, r26	; 0x02
    1a76:	b3 83       	std	Z+3, r27	; 0x03
		pos[1] = pos[0];
    1a78:	ed 81       	ldd	r30, Y+5	; 0x05
    1a7a:	fe 81       	ldd	r31, Y+6	; 0x06
    1a7c:	53 8e       	std	Z+27, r5	; 0x1b
    1a7e:	42 8e       	std	Z+26, r4	; 0x1a
		changed = true;
    1a80:	81 e0       	ldi	r24, 0x01	; 1
    1a82:	84 87       	std	Z+12, r24	; 0x0c
	}
	if(pos[0]<pos[1]){
    1a84:	ed 81       	ldd	r30, Y+5	; 0x05
    1a86:	fe 81       	ldd	r31, Y+6	; 0x06
    1a88:	82 8d       	ldd	r24, Z+26	; 0x1a
    1a8a:	93 8d       	ldd	r25, Z+27	; 0x1b
    1a8c:	2b 81       	ldd	r18, Y+3	; 0x03
    1a8e:	3c 81       	ldd	r19, Y+4	; 0x04
    1a90:	28 17       	cp	r18, r24
    1a92:	39 07       	cpc	r19, r25
    1a94:	dc f5       	brge	.+118    	; 0x1b0c <_ZN14EncoderHandler8setValueEPfff+0x182>
		else return f;
	}
}

float EncoderHandler::returnMul(boolean m){ // mode, bMul, nMul
	if(m) return nMul;
    1a96:	84 8d       	ldd	r24, Z+28	; 0x1c
    1a98:	88 23       	and	r24, r24
    1a9a:	29 f0       	breq	.+10     	; 0x1aa6 <_ZN14EncoderHandler8setValueEPfff+0x11c>
    1a9c:	24 89       	ldd	r18, Z+20	; 0x14
    1a9e:	35 89       	ldd	r19, Z+21	; 0x15
    1aa0:	46 89       	ldd	r20, Z+22	; 0x16
    1aa2:	57 89       	ldd	r21, Z+23	; 0x17
    1aa4:	06 c0       	rjmp	.+12     	; 0x1ab2 <_ZN14EncoderHandler8setValueEPfff+0x128>
	else return bMul;
    1aa6:	ed 81       	ldd	r30, Y+5	; 0x05
    1aa8:	fe 81       	ldd	r31, Y+6	; 0x06
    1aaa:	20 89       	ldd	r18, Z+16	; 0x10
    1aac:	31 89       	ldd	r19, Z+17	; 0x11
    1aae:	42 89       	ldd	r20, Z+18	; 0x12
    1ab0:	53 89       	ldd	r21, Z+19	; 0x13
		*v = clip(*v, min, max);
		pos[1] = pos[0];
		changed = true;
	}
	if(pos[0]<pos[1]){
		*v -= returnMul(button);
    1ab2:	f6 01       	movw	r30, r12
    1ab4:	60 81       	ld	r22, Z
    1ab6:	71 81       	ldd	r23, Z+1	; 0x01
    1ab8:	82 81       	ldd	r24, Z+2	; 0x02
    1aba:	93 81       	ldd	r25, Z+3	; 0x03
    1abc:	0e 94 1d 30 	call	0x603a	; 0x603a <__subsf3>
    1ac0:	1b 01       	movw	r2, r22
    1ac2:	8c 01       	movw	r16, r24
void EncoderHandler::setValue(byte* v, byte min, byte max) {

}

float EncoderHandler::clip(float f, float mn, float mx){
	if(f < mn){
    1ac4:	9b 01       	movw	r18, r22
    1ac6:	ac 01       	movw	r20, r24
    1ac8:	b4 01       	movw	r22, r8
    1aca:	c5 01       	movw	r24, r10
    1acc:	0e 94 fb 30 	call	0x61f6	; 0x61f6 <__gesf2>
    1ad0:	18 16       	cp	r1, r24
    1ad2:	6c f0       	brlt	.+26     	; 0x1aee <_ZN14EncoderHandler8setValueEPfff+0x164>
		return mn;
	}
	else{
		if(f>mx) return mx;
    1ad4:	91 01       	movw	r18, r2
    1ad6:	a8 01       	movw	r20, r16
    1ad8:	b7 01       	movw	r22, r14
    1ada:	89 81       	ldd	r24, Y+1	; 0x01
    1adc:	9a 81       	ldd	r25, Y+2	; 0x02
    1ade:	0e 94 82 30 	call	0x6104	; 0x6104 <__cmpsf2>
    1ae2:	87 ff       	sbrs	r24, 7
    1ae4:	06 c0       	rjmp	.+12     	; 0x1af2 <_ZN14EncoderHandler8setValueEPfff+0x168>
    1ae6:	17 01       	movw	r2, r14
    1ae8:	09 81       	ldd	r16, Y+1	; 0x01
    1aea:	1a 81       	ldd	r17, Y+2	; 0x02
    1aec:	02 c0       	rjmp	.+4      	; 0x1af2 <_ZN14EncoderHandler8setValueEPfff+0x168>

}

float EncoderHandler::clip(float f, float mn, float mx){
	if(f < mn){
		return mn;
    1aee:	14 01       	movw	r2, r8
    1af0:	85 01       	movw	r16, r10
		pos[1] = pos[0];
		changed = true;
	}
	if(pos[0]<pos[1]){
		*v -= returnMul(button);
		*v = clip(*v, min, max);
    1af2:	c1 01       	movw	r24, r2
    1af4:	d8 01       	movw	r26, r16
    1af6:	f6 01       	movw	r30, r12
    1af8:	80 83       	st	Z, r24
    1afa:	91 83       	std	Z+1, r25	; 0x01
    1afc:	a2 83       	std	Z+2, r26	; 0x02
    1afe:	b3 83       	std	Z+3, r27	; 0x03
		pos[1] = pos[0];
    1b00:	ed 81       	ldd	r30, Y+5	; 0x05
    1b02:	fe 81       	ldd	r31, Y+6	; 0x06
    1b04:	53 8e       	std	Z+27, r5	; 0x1b
    1b06:	42 8e       	std	Z+26, r4	; 0x1a
		changed = true;
    1b08:	81 e0       	ldi	r24, 0x01	; 1
    1b0a:	84 87       	std	Z+12, r24	; 0x0c
	}
	//changed = false; // --> set from outside (where?)
}
    1b0c:	26 96       	adiw	r28, 0x06	; 6
    1b0e:	0f b6       	in	r0, 0x3f	; 63
    1b10:	f8 94       	cli
    1b12:	de bf       	out	0x3e, r29	; 62
    1b14:	0f be       	out	0x3f, r0	; 63
    1b16:	cd bf       	out	0x3d, r28	; 61
    1b18:	df 91       	pop	r29
    1b1a:	cf 91       	pop	r28
    1b1c:	1f 91       	pop	r17
    1b1e:	0f 91       	pop	r16
    1b20:	ff 90       	pop	r15
    1b22:	ef 90       	pop	r14
    1b24:	df 90       	pop	r13
    1b26:	cf 90       	pop	r12
    1b28:	bf 90       	pop	r11
    1b2a:	af 90       	pop	r10
    1b2c:	9f 90       	pop	r9
    1b2e:	8f 90       	pop	r8
    1b30:	7f 90       	pop	r7
    1b32:	6f 90       	pop	r6
    1b34:	5f 90       	pop	r5
    1b36:	4f 90       	pop	r4
    1b38:	3f 90       	pop	r3
    1b3a:	2f 90       	pop	r2
    1b3c:	08 95       	ret

00001b3e <_ZN4MenuC1Ev>:
 * 
 * This class draws the upper menu as well as the bottom labels and associated parameters
 */


Menu::Menu() {
    1b3e:	fc 01       	movw	r30, r24

class Parameters {
public: 
	Parameters(){};
	
    typedef struct {
    1b40:	10 82       	st	Z, r1
    1b42:	11 82       	std	Z+1, r1	; 0x01
    1b44:	80 e0       	ldi	r24, 0x00	; 0
    1b46:	90 e0       	ldi	r25, 0x00	; 0
    1b48:	ac e5       	ldi	r26, 0x5C	; 92
    1b4a:	b3 e4       	ldi	r27, 0x43	; 67
    1b4c:	82 83       	std	Z+2, r24	; 0x02
    1b4e:	93 83       	std	Z+3, r25	; 0x03
    1b50:	a4 83       	std	Z+4, r26	; 0x04
    1b52:	b5 83       	std	Z+5, r27	; 0x05
    1b54:	16 82       	std	Z+6, r1	; 0x06
    1b56:	80 e0       	ldi	r24, 0x00	; 0
    1b58:	90 e0       	ldi	r25, 0x00	; 0
    1b5a:	a0 e8       	ldi	r26, 0x80	; 128
    1b5c:	b0 e4       	ldi	r27, 0x40	; 64
    1b5e:	87 83       	std	Z+7, r24	; 0x07
    1b60:	90 87       	std	Z+8, r25	; 0x08
    1b62:	a1 87       	std	Z+9, r26	; 0x09
    1b64:	b2 87       	std	Z+10, r27	; 0x0a
    1b66:	13 86       	std	Z+11, r1	; 0x0b
    1b68:	80 e0       	ldi	r24, 0x00	; 0
    1b6a:	90 e8       	ldi	r25, 0x80	; 128
    1b6c:	ab e3       	ldi	r26, 0x3B	; 59
    1b6e:	b6 e4       	ldi	r27, 0x46	; 70
    1b70:	84 87       	std	Z+12, r24	; 0x0c
    1b72:	95 87       	std	Z+13, r25	; 0x0d
    1b74:	a6 87       	std	Z+14, r26	; 0x0e
    1b76:	b7 87       	std	Z+15, r27	; 0x0f
    1b78:	88 e2       	ldi	r24, 0x28	; 40
    1b7a:	80 8b       	std	Z+16, r24	; 0x10
    1b7c:	11 8a       	std	Z+17, r1	; 0x11
    1b7e:	12 8a       	std	Z+18, r1	; 0x12
    1b80:	13 8a       	std	Z+19, r1	; 0x13
    1b82:	14 8a       	std	Z+20, r1	; 0x14
    1b84:	15 8a       	std	Z+21, r1	; 0x15
    1b86:	80 e0       	ldi	r24, 0x00	; 0
    1b88:	90 e0       	ldi	r25, 0x00	; 0
    1b8a:	a8 e4       	ldi	r26, 0x48	; 72
    1b8c:	b3 e4       	ldi	r27, 0x43	; 67
    1b8e:	86 8b       	std	Z+22, r24	; 0x16
    1b90:	97 8b       	std	Z+23, r25	; 0x17
    1b92:	a0 8f       	std	Z+24, r26	; 0x18
    1b94:	b1 8f       	std	Z+25, r27	; 0x19
    1b96:	84 eb       	ldi	r24, 0xB4	; 180
    1b98:	82 8f       	std	Z+26, r24	; 0x1a
    1b9a:	80 e0       	ldi	r24, 0x00	; 0
    1b9c:	90 e0       	ldi	r25, 0x00	; 0
    1b9e:	aa e7       	ldi	r26, 0x7A	; 122
    1ba0:	b3 e4       	ldi	r27, 0x43	; 67
    1ba2:	83 8f       	std	Z+27, r24	; 0x1b
    1ba4:	94 8f       	std	Z+28, r25	; 0x1c
    1ba6:	a5 8f       	std	Z+29, r26	; 0x1d
    1ba8:	b6 8f       	std	Z+30, r27	; 0x1e
    1baa:	17 8e       	std	Z+31, r1	; 0x1f
    1bac:	10 a2       	std	Z+32, r1	; 0x20
    1bae:	11 a2       	std	Z+33, r1	; 0x21
    1bb0:	12 a2       	std	Z+34, r1	; 0x22
    1bb2:	13 a2       	std	Z+35, r1	; 0x23
    1bb4:	8f ef       	ldi	r24, 0xFF	; 255
    1bb6:	84 a3       	std	Z+36, r24	; 0x24
    1bb8:	15 a2       	std	Z+37, r1	; 0x25
    1bba:	16 a2       	std	Z+38, r1	; 0x26
    1bbc:	08 95       	ret

00001bbe <_ZN4Menu4initEP4UTFTPhS2_PN10Parameters8params_tE>:

}

void Menu::init(UTFT* u, uint8_t* sF, uint8_t* bF, params_t* p) {
    1bbe:	0f 93       	push	r16
    1bc0:	1f 93       	push	r17
    1bc2:	fc 01       	movw	r30, r24
	//Serial.println(p->oscFreq);
	paramsPtr = p;
    1bc4:	16 a7       	std	Z+46, r17	; 0x2e
    1bc6:	05 a7       	std	Z+45, r16	; 0x2d
	mLCD = u;
    1bc8:	70 a7       	std	Z+40, r23	; 0x28
    1bca:	67 a3       	std	Z+39, r22	; 0x27
	sFont = sF;
    1bcc:	52 a7       	std	Z+42, r21	; 0x2a
    1bce:	41 a7       	std	Z+41, r20	; 0x29
	bFont = bF;
    1bd0:	34 a7       	std	Z+44, r19	; 0x2c
    1bd2:	23 a7       	std	Z+43, r18	; 0x2b
}
    1bd4:	1f 91       	pop	r17
    1bd6:	0f 91       	pop	r16
    1bd8:	08 95       	ret

00001bda <_ZN4Menu9drawMenusEv>:

void Menu::drawMenus(){
    1bda:	0f 93       	push	r16
    1bdc:	1f 93       	push	r17
    1bde:	cf 93       	push	r28
    1be0:	df 93       	push	r29
    1be2:	ec 01       	movw	r28, r24
	mLCD->setColor(COLOR);
    1be4:	60 e0       	ldi	r22, 0x00	; 0
    1be6:	78 ef       	ldi	r23, 0xF8	; 248
    1be8:	8f a1       	ldd	r24, Y+39	; 0x27
    1bea:	98 a5       	ldd	r25, Y+40	; 0x28
    1bec:	0e 94 19 2e 	call	0x5c32	; 0x5c32 <_ZN4UTFT8setColorEj>
	mLCD->fillRect(120, 120, WIDTH, HEIGHT);
    1bf0:	00 e4       	ldi	r16, 0x40	; 64
    1bf2:	11 e0       	ldi	r17, 0x01	; 1
    1bf4:	20 ee       	ldi	r18, 0xE0	; 224
    1bf6:	31 e0       	ldi	r19, 0x01	; 1
    1bf8:	48 e7       	ldi	r20, 0x78	; 120
    1bfa:	50 e0       	ldi	r21, 0x00	; 0
    1bfc:	68 e7       	ldi	r22, 0x78	; 120
    1bfe:	70 e0       	ldi	r23, 0x00	; 0
    1c00:	8f a1       	ldd	r24, Y+39	; 0x27
    1c02:	98 a5       	ldd	r25, Y+40	; 0x28
    1c04:	0e 94 e1 2e 	call	0x5dc2	; 0x5dc2 <_ZN4UTFT8fillRectEiiii>
}
    1c08:	df 91       	pop	r29
    1c0a:	cf 91       	pop	r28
    1c0c:	1f 91       	pop	r17
    1c0e:	0f 91       	pop	r16
    1c10:	08 95       	ret

00001c12 <_ZN4Menu10drawValuesEv>:

void Menu::drawBottomMenu() {

}

void Menu::drawValues() {
    1c12:	08 95       	ret

00001c14 <_GLOBAL__sub_I__ZN4MenuC2Ev>:

    1c14:	cf 93       	push	r28
    1c16:	df 93       	push	r29
    1c18:	6d eb       	ldi	r22, 0xBD	; 189
    1c1a:	72 e0       	ldi	r23, 0x02	; 2
    1c1c:	8a ed       	ldi	r24, 0xDA	; 218
    1c1e:	94 e0       	ldi	r25, 0x04	; 4
    1c20:	0e 94 35 38 	call	0x706a	; 0x706a <_ZN6StringC1EPKc>
    1c24:	62 ec       	ldi	r22, 0xC2	; 194
    1c26:	72 e0       	ldi	r23, 0x02	; 2
    1c28:	80 ee       	ldi	r24, 0xE0	; 224
    1c2a:	94 e0       	ldi	r25, 0x04	; 4
    1c2c:	0e 94 35 38 	call	0x706a	; 0x706a <_ZN6StringC1EPKc>
    1c30:	67 ec       	ldi	r22, 0xC7	; 199
    1c32:	72 e0       	ldi	r23, 0x02	; 2
    1c34:	86 ee       	ldi	r24, 0xE6	; 230
    1c36:	94 e0       	ldi	r25, 0x04	; 4
    1c38:	0e 94 35 38 	call	0x706a	; 0x706a <_ZN6StringC1EPKc>
    1c3c:	6c ec       	ldi	r22, 0xCC	; 204
    1c3e:	72 e0       	ldi	r23, 0x02	; 2
    1c40:	8c ee       	ldi	r24, 0xEC	; 236
    1c42:	94 e0       	ldi	r25, 0x04	; 4
    1c44:	0e 94 35 38 	call	0x706a	; 0x706a <_ZN6StringC1EPKc>
    1c48:	6f ec       	ldi	r22, 0xCF	; 207
    1c4a:	72 e0       	ldi	r23, 0x02	; 2
    1c4c:	82 ef       	ldi	r24, 0xF2	; 242
    1c4e:	94 e0       	ldi	r25, 0x04	; 4
    1c50:	0e 94 35 38 	call	0x706a	; 0x706a <_ZN6StringC1EPKc>
    const byte BLABELS = 4;
    const String oscLabels[BLABELS] = {"WAVE:", "FREQ:", "LFO:", "FREQ:"};
    1c54:	65 ed       	ldi	r22, 0xD5	; 213
    1c56:	72 e0       	ldi	r23, 0x02	; 2
    1c58:	82 ec       	ldi	r24, 0xC2	; 194
    1c5a:	94 e0       	ldi	r25, 0x04	; 4
    1c5c:	0e 94 35 38 	call	0x706a	; 0x706a <_ZN6StringC1EPKc>
    1c60:	6b ed       	ldi	r22, 0xDB	; 219
    1c62:	72 e0       	ldi	r23, 0x02	; 2
    1c64:	88 ec       	ldi	r24, 0xC8	; 200
    1c66:	94 e0       	ldi	r25, 0x04	; 4
    1c68:	0e 94 35 38 	call	0x706a	; 0x706a <_ZN6StringC1EPKc>
    1c6c:	61 ee       	ldi	r22, 0xE1	; 225
    1c6e:	72 e0       	ldi	r23, 0x02	; 2
    1c70:	8e ec       	ldi	r24, 0xCE	; 206
    1c72:	94 e0       	ldi	r25, 0x04	; 4
    1c74:	0e 94 35 38 	call	0x706a	; 0x706a <_ZN6StringC1EPKc>
    1c78:	6b ed       	ldi	r22, 0xDB	; 219
    1c7a:	72 e0       	ldi	r23, 0x02	; 2
    1c7c:	84 ed       	ldi	r24, 0xD4	; 212
    1c7e:	94 e0       	ldi	r25, 0x04	; 4
    1c80:	0e 94 35 38 	call	0x706a	; 0x706a <_ZN6StringC1EPKc>
    const String filLabels[BLABELS] = {"TYPE:", "FREQ:", "RES:", "ENV:"};
    1c84:	66 ee       	ldi	r22, 0xE6	; 230
    1c86:	72 e0       	ldi	r23, 0x02	; 2
    1c88:	8a ea       	ldi	r24, 0xAA	; 170
    1c8a:	94 e0       	ldi	r25, 0x04	; 4
    1c8c:	0e 94 35 38 	call	0x706a	; 0x706a <_ZN6StringC1EPKc>
    1c90:	6b ed       	ldi	r22, 0xDB	; 219
    1c92:	72 e0       	ldi	r23, 0x02	; 2
    1c94:	80 eb       	ldi	r24, 0xB0	; 176
    1c96:	94 e0       	ldi	r25, 0x04	; 4
    1c98:	0e 94 35 38 	call	0x706a	; 0x706a <_ZN6StringC1EPKc>
    1c9c:	6c ee       	ldi	r22, 0xEC	; 236
    1c9e:	72 e0       	ldi	r23, 0x02	; 2
    1ca0:	86 eb       	ldi	r24, 0xB6	; 182
    1ca2:	94 e0       	ldi	r25, 0x04	; 4
    1ca4:	0e 94 35 38 	call	0x706a	; 0x706a <_ZN6StringC1EPKc>
    1ca8:	61 ef       	ldi	r22, 0xF1	; 241
    1caa:	72 e0       	ldi	r23, 0x02	; 2
    1cac:	8c eb       	ldi	r24, 0xBC	; 188
    1cae:	94 e0       	ldi	r25, 0x04	; 4
    1cb0:	0e 94 35 38 	call	0x706a	; 0x706a <_ZN6StringC1EPKc>
    const String envLabels[BLABELS] = {"ATK:", "DEC:", "SUS:", "REL:"};
    1cb4:	66 ef       	ldi	r22, 0xF6	; 246
    1cb6:	72 e0       	ldi	r23, 0x02	; 2
    1cb8:	82 e9       	ldi	r24, 0x92	; 146
    1cba:	94 e0       	ldi	r25, 0x04	; 4
    1cbc:	0e 94 35 38 	call	0x706a	; 0x706a <_ZN6StringC1EPKc>
    1cc0:	6b ef       	ldi	r22, 0xFB	; 251
    1cc2:	72 e0       	ldi	r23, 0x02	; 2
    1cc4:	88 e9       	ldi	r24, 0x98	; 152
    1cc6:	94 e0       	ldi	r25, 0x04	; 4
    1cc8:	0e 94 35 38 	call	0x706a	; 0x706a <_ZN6StringC1EPKc>
    1ccc:	60 e0       	ldi	r22, 0x00	; 0
    1cce:	73 e0       	ldi	r23, 0x03	; 3
    1cd0:	8e e9       	ldi	r24, 0x9E	; 158
    1cd2:	94 e0       	ldi	r25, 0x04	; 4
    1cd4:	0e 94 35 38 	call	0x706a	; 0x706a <_ZN6StringC1EPKc>
    1cd8:	65 e0       	ldi	r22, 0x05	; 5
    1cda:	73 e0       	ldi	r23, 0x03	; 3
    1cdc:	84 ea       	ldi	r24, 0xA4	; 164
    1cde:	94 e0       	ldi	r25, 0x04	; 4
    1ce0:	0e 94 35 38 	call	0x706a	; 0x706a <_ZN6StringC1EPKc>
    const String fxLabels[BLABELS] = {"TYPE:", "AMT:", "PARAM:", "LFO:"};
    1ce4:	66 ee       	ldi	r22, 0xE6	; 230
    1ce6:	72 e0       	ldi	r23, 0x02	; 2
    1ce8:	8a e7       	ldi	r24, 0x7A	; 122
    1cea:	94 e0       	ldi	r25, 0x04	; 4
    1cec:	0e 94 35 38 	call	0x706a	; 0x706a <_ZN6StringC1EPKc>
    1cf0:	6a e0       	ldi	r22, 0x0A	; 10
    1cf2:	73 e0       	ldi	r23, 0x03	; 3
    1cf4:	80 e8       	ldi	r24, 0x80	; 128
    1cf6:	94 e0       	ldi	r25, 0x04	; 4
    1cf8:	0e 94 35 38 	call	0x706a	; 0x706a <_ZN6StringC1EPKc>
    1cfc:	6f e0       	ldi	r22, 0x0F	; 15
    1cfe:	73 e0       	ldi	r23, 0x03	; 3
    1d00:	86 e8       	ldi	r24, 0x86	; 134
    1d02:	94 e0       	ldi	r25, 0x04	; 4
    1d04:	0e 94 35 38 	call	0x706a	; 0x706a <_ZN6StringC1EPKc>
    1d08:	61 ee       	ldi	r22, 0xE1	; 225
    1d0a:	72 e0       	ldi	r23, 0x02	; 2
    1d0c:	8c e8       	ldi	r24, 0x8C	; 140
    1d0e:	94 e0       	ldi	r25, 0x04	; 4
    1d10:	0e 94 35 38 	call	0x706a	; 0x706a <_ZN6StringC1EPKc>
    const byte NUMWAVES = 4; 
	const String waveNames[NUMWAVES] = {"SINE", "SQR", "TRI", "SAW"};
    1d14:	66 e1       	ldi	r22, 0x16	; 22
    1d16:	73 e0       	ldi	r23, 0x03	; 3
    1d18:	82 e6       	ldi	r24, 0x62	; 98
    1d1a:	94 e0       	ldi	r25, 0x04	; 4
    1d1c:	0e 94 35 38 	call	0x706a	; 0x706a <_ZN6StringC1EPKc>
    1d20:	6b e1       	ldi	r22, 0x1B	; 27
    1d22:	73 e0       	ldi	r23, 0x03	; 3
    1d24:	88 e6       	ldi	r24, 0x68	; 104
    1d26:	94 e0       	ldi	r25, 0x04	; 4
    1d28:	0e 94 35 38 	call	0x706a	; 0x706a <_ZN6StringC1EPKc>
    1d2c:	6f e1       	ldi	r22, 0x1F	; 31
    1d2e:	73 e0       	ldi	r23, 0x03	; 3
    1d30:	8e e6       	ldi	r24, 0x6E	; 110
    1d32:	94 e0       	ldi	r25, 0x04	; 4
    1d34:	0e 94 35 38 	call	0x706a	; 0x706a <_ZN6StringC1EPKc>
    1d38:	63 e2       	ldi	r22, 0x23	; 35
    1d3a:	73 e0       	ldi	r23, 0x03	; 3
    1d3c:	84 e7       	ldi	r24, 0x74	; 116
    1d3e:	94 e0       	ldi	r25, 0x04	; 4
    1d40:	0e 94 35 38 	call	0x706a	; 0x706a <_ZN6StringC1EPKc>
    const byte NUMFX = 8;
	const String fxNames[NUMFX] = {"OFF, >>, <<, AND, OR, NOR, XAND, XOR"};
    1d44:	67 e2       	ldi	r22, 0x27	; 39
    1d46:	73 e0       	ldi	r23, 0x03	; 3
    1d48:	82 e3       	ldi	r24, 0x32	; 50
    1d4a:	94 e0       	ldi	r25, 0x04	; 4
    1d4c:	0e 94 35 38 	call	0x706a	; 0x706a <_ZN6StringC1EPKc>
    1d50:	c0 e0       	ldi	r28, 0x00	; 0
    1d52:	d0 e0       	ldi	r29, 0x00	; 0
    1d54:	26 96       	adiw	r28, 0x06	; 6
    1d56:	6e e5       	ldi	r22, 0x5E	; 94
    1d58:	73 e0       	ldi	r23, 0x03	; 3
    1d5a:	ce 01       	movw	r24, r28
    1d5c:	8e 5c       	subi	r24, 0xCE	; 206
    1d5e:	9b 4f       	sbci	r25, 0xFB	; 251
    1d60:	0e 94 35 38 	call	0x706a	; 0x706a <_ZN6StringC1EPKc>
    1d64:	ca 32       	cpi	r28, 0x2A	; 42
    1d66:	d1 05       	cpc	r29, r1
    1d68:	a9 f7       	brne	.-22     	; 0x1d54 <_GLOBAL__sub_I__ZN4MenuC2Ev+0x140>
    1d6a:	df 91       	pop	r29
    1d6c:	cf 91       	pop	r28
    1d6e:	08 95       	ret

00001d70 <_GLOBAL__sub_D__ZN4MenuC2Ev>:
    1d70:	cf 93       	push	r28
    1d72:	df 93       	push	r29
    1d74:	c2 e6       	ldi	r28, 0x62	; 98
    1d76:	d4 e0       	ldi	r29, 0x04	; 4
    1d78:	26 97       	sbiw	r28, 0x06	; 6
    1d7a:	ce 01       	movw	r24, r28
    1d7c:	0e 94 ce 37 	call	0x6f9c	; 0x6f9c <_ZN6StringD1Ev>
    1d80:	84 e0       	ldi	r24, 0x04	; 4
    1d82:	c2 33       	cpi	r28, 0x32	; 50
    1d84:	d8 07       	cpc	r29, r24
    1d86:	c1 f7       	brne	.-16     	; 0x1d78 <_GLOBAL__sub_D__ZN4MenuC2Ev+0x8>
    const String oscLabels[BLABELS] = {"WAVE:", "FREQ:", "LFO:", "FREQ:"};
    const String filLabels[BLABELS] = {"TYPE:", "FREQ:", "RES:", "ENV:"};
    const String envLabels[BLABELS] = {"ATK:", "DEC:", "SUS:", "REL:"};
    const String fxLabels[BLABELS] = {"TYPE:", "AMT:", "PARAM:", "LFO:"};
    const byte NUMWAVES = 4; 
	const String waveNames[NUMWAVES] = {"SINE", "SQR", "TRI", "SAW"};
    1d88:	84 e7       	ldi	r24, 0x74	; 116
    1d8a:	94 e0       	ldi	r25, 0x04	; 4
    1d8c:	0e 94 ce 37 	call	0x6f9c	; 0x6f9c <_ZN6StringD1Ev>
    1d90:	8e e6       	ldi	r24, 0x6E	; 110
    1d92:	94 e0       	ldi	r25, 0x04	; 4
    1d94:	0e 94 ce 37 	call	0x6f9c	; 0x6f9c <_ZN6StringD1Ev>
    1d98:	88 e6       	ldi	r24, 0x68	; 104
    1d9a:	94 e0       	ldi	r25, 0x04	; 4
    1d9c:	0e 94 ce 37 	call	0x6f9c	; 0x6f9c <_ZN6StringD1Ev>
    1da0:	82 e6       	ldi	r24, 0x62	; 98
    1da2:	94 e0       	ldi	r25, 0x04	; 4
    1da4:	0e 94 ce 37 	call	0x6f9c	; 0x6f9c <_ZN6StringD1Ev>
    const String tmTables[TABLES] = {"OSC.", "FIL.", "ENV.", "FX", "SETT."};
    const byte BLABELS = 4;
    const String oscLabels[BLABELS] = {"WAVE:", "FREQ:", "LFO:", "FREQ:"};
    const String filLabels[BLABELS] = {"TYPE:", "FREQ:", "RES:", "ENV:"};
    const String envLabels[BLABELS] = {"ATK:", "DEC:", "SUS:", "REL:"};
    const String fxLabels[BLABELS] = {"TYPE:", "AMT:", "PARAM:", "LFO:"};
    1da8:	8c e8       	ldi	r24, 0x8C	; 140
    1daa:	94 e0       	ldi	r25, 0x04	; 4
    1dac:	0e 94 ce 37 	call	0x6f9c	; 0x6f9c <_ZN6StringD1Ev>
    1db0:	86 e8       	ldi	r24, 0x86	; 134
    1db2:	94 e0       	ldi	r25, 0x04	; 4
    1db4:	0e 94 ce 37 	call	0x6f9c	; 0x6f9c <_ZN6StringD1Ev>
    1db8:	80 e8       	ldi	r24, 0x80	; 128
    1dba:	94 e0       	ldi	r25, 0x04	; 4
    1dbc:	0e 94 ce 37 	call	0x6f9c	; 0x6f9c <_ZN6StringD1Ev>
    1dc0:	8a e7       	ldi	r24, 0x7A	; 122
    1dc2:	94 e0       	ldi	r25, 0x04	; 4
    1dc4:	0e 94 ce 37 	call	0x6f9c	; 0x6f9c <_ZN6StringD1Ev>
	const byte TABLES = 5;
    const String tmTables[TABLES] = {"OSC.", "FIL.", "ENV.", "FX", "SETT."};
    const byte BLABELS = 4;
    const String oscLabels[BLABELS] = {"WAVE:", "FREQ:", "LFO:", "FREQ:"};
    const String filLabels[BLABELS] = {"TYPE:", "FREQ:", "RES:", "ENV:"};
    const String envLabels[BLABELS] = {"ATK:", "DEC:", "SUS:", "REL:"};
    1dc8:	84 ea       	ldi	r24, 0xA4	; 164
    1dca:	94 e0       	ldi	r25, 0x04	; 4
    1dcc:	0e 94 ce 37 	call	0x6f9c	; 0x6f9c <_ZN6StringD1Ev>
    1dd0:	8e e9       	ldi	r24, 0x9E	; 158
    1dd2:	94 e0       	ldi	r25, 0x04	; 4
    1dd4:	0e 94 ce 37 	call	0x6f9c	; 0x6f9c <_ZN6StringD1Ev>
    1dd8:	88 e9       	ldi	r24, 0x98	; 152
    1dda:	94 e0       	ldi	r25, 0x04	; 4
    1ddc:	0e 94 ce 37 	call	0x6f9c	; 0x6f9c <_ZN6StringD1Ev>
    1de0:	82 e9       	ldi	r24, 0x92	; 146
    1de2:	94 e0       	ldi	r25, 0x04	; 4
    1de4:	0e 94 ce 37 	call	0x6f9c	; 0x6f9c <_ZN6StringD1Ev>
    
	const byte TABLES = 5;
    const String tmTables[TABLES] = {"OSC.", "FIL.", "ENV.", "FX", "SETT."};
    const byte BLABELS = 4;
    const String oscLabels[BLABELS] = {"WAVE:", "FREQ:", "LFO:", "FREQ:"};
    const String filLabels[BLABELS] = {"TYPE:", "FREQ:", "RES:", "ENV:"};
    1de8:	8c eb       	ldi	r24, 0xBC	; 188
    1dea:	94 e0       	ldi	r25, 0x04	; 4
    1dec:	0e 94 ce 37 	call	0x6f9c	; 0x6f9c <_ZN6StringD1Ev>
    1df0:	86 eb       	ldi	r24, 0xB6	; 182
    1df2:	94 e0       	ldi	r25, 0x04	; 4
    1df4:	0e 94 ce 37 	call	0x6f9c	; 0x6f9c <_ZN6StringD1Ev>
    1df8:	80 eb       	ldi	r24, 0xB0	; 176
    1dfa:	94 e0       	ldi	r25, 0x04	; 4
    1dfc:	0e 94 ce 37 	call	0x6f9c	; 0x6f9c <_ZN6StringD1Ev>
    1e00:	8a ea       	ldi	r24, 0xAA	; 170
    1e02:	94 e0       	ldi	r25, 0x04	; 4
    1e04:	0e 94 ce 37 	call	0x6f9c	; 0x6f9c <_ZN6StringD1Ev>
    const byte STROKEWEIGHT = 3;
    
	const byte TABLES = 5;
    const String tmTables[TABLES] = {"OSC.", "FIL.", "ENV.", "FX", "SETT."};
    const byte BLABELS = 4;
    const String oscLabels[BLABELS] = {"WAVE:", "FREQ:", "LFO:", "FREQ:"};
    1e08:	84 ed       	ldi	r24, 0xD4	; 212
    1e0a:	94 e0       	ldi	r25, 0x04	; 4
    1e0c:	0e 94 ce 37 	call	0x6f9c	; 0x6f9c <_ZN6StringD1Ev>
    1e10:	8e ec       	ldi	r24, 0xCE	; 206
    1e12:	94 e0       	ldi	r25, 0x04	; 4
    1e14:	0e 94 ce 37 	call	0x6f9c	; 0x6f9c <_ZN6StringD1Ev>
    1e18:	88 ec       	ldi	r24, 0xC8	; 200
    1e1a:	94 e0       	ldi	r25, 0x04	; 4
    1e1c:	0e 94 ce 37 	call	0x6f9c	; 0x6f9c <_ZN6StringD1Ev>
    1e20:	82 ec       	ldi	r24, 0xC2	; 194
    1e22:	94 e0       	ldi	r25, 0x04	; 4
    1e24:	0e 94 ce 37 	call	0x6f9c	; 0x6f9c <_ZN6StringD1Ev>
    1e28:	c8 ef       	ldi	r28, 0xF8	; 248
    1e2a:	d4 e0       	ldi	r29, 0x04	; 4
    const int BKGCOLOR = 0x0000;
    const int COLOR = 0xF800;
    const byte STROKEWEIGHT = 3;
    
	const byte TABLES = 5;
    const String tmTables[TABLES] = {"OSC.", "FIL.", "ENV.", "FX", "SETT."};
    1e2c:	26 97       	sbiw	r28, 0x06	; 6
    1e2e:	ce 01       	movw	r24, r28
    1e30:	0e 94 ce 37 	call	0x6f9c	; 0x6f9c <_ZN6StringD1Ev>
    1e34:	84 e0       	ldi	r24, 0x04	; 4
    1e36:	ca 3d       	cpi	r28, 0xDA	; 218
    1e38:	d8 07       	cpc	r29, r24
    1e3a:	c1 f7       	brne	.-16     	; 0x1e2c <_GLOBAL__sub_D__ZN4MenuC2Ev+0xbc>
    1e3c:	df 91       	pop	r29
    1e3e:	cf 91       	pop	r28
    1e40:	08 95       	ret

00001e42 <_ZN6ScreenC1Ev>:
 * Screen implementation
 * 
 * This class handles all screen manipulations
 */

Screen::Screen() {
    1e42:	cf 93       	push	r28
    1e44:	df 93       	push	r29
    1e46:	ec 01       	movw	r28, r24
    1e48:	0e 94 30 17 	call	0x2e60	; 0x2e60 <_ZN4UTFTC1Ev>
    1e4c:	ce 01       	movw	r24, r28
    1e4e:	c1 96       	adiw	r24, 0x31	; 49
    1e50:	76 de       	rcall	.-788    	; 0x1b3e <_ZN4MenuC1Ev>
    1e52:	ce 01       	movw	r24, r28
    1e54:	8d 59       	subi	r24, 0x9D	; 157
    1e56:	9f 4f       	sbci	r25, 0xFF	; 255
    1e58:	0e 94 dd 2f 	call	0x5fba	; 0x5fba <_ZN6WindowC1Ev>
    1e5c:	ce 01       	movw	r24, r28
    1e5e:	8c 56       	subi	r24, 0x6C	; 108
    1e60:	9f 4f       	sbci	r25, 0xFF	; 255
    1e62:	fe d7       	rcall	.+4092   	; 0x2e60 <_ZN4UTFTC1Ev>
    1e64:	ce 01       	movw	r24, r28
    1e66:	8b 53       	subi	r24, 0x3B	; 59
    1e68:	9f 4f       	sbci	r25, 0xFF	; 255
    1e6a:	69 de       	rcall	.-814    	; 0x1b3e <_ZN4MenuC1Ev>
    1e6c:	ce 01       	movw	r24, r28
    1e6e:	89 50       	subi	r24, 0x09	; 9
    1e70:	9f 4f       	sbci	r25, 0xFF	; 255

}
    1e72:	df 91       	pop	r29
    1e74:	cf 91       	pop	r28
 * Screen implementation
 * 
 * This class handles all screen manipulations
 */

Screen::Screen() {
    1e76:	0c 94 dd 2f 	jmp	0x5fba	; 0x5fba <_ZN6WindowC1Ev>

00001e7a <_ZN6Screen4initEP7Control>:

}

void Screen::init(Control *obj) {
    1e7a:	8f 92       	push	r8
    1e7c:	9f 92       	push	r9
    1e7e:	af 92       	push	r10
    1e80:	bf 92       	push	r11
    1e82:	cf 92       	push	r12
    1e84:	df 92       	push	r13
    1e86:	ef 92       	push	r14
    1e88:	ff 92       	push	r15
    1e8a:	0f 93       	push	r16
    1e8c:	1f 93       	push	r17
    1e8e:	cf 93       	push	r28
    1e90:	df 93       	push	r29
    1e92:	ec 01       	movw	r28, r24
	ctrlPtr = obj;
    1e94:	5c 01       	movw	r10, r24
    1e96:	82 e9       	ldi	r24, 0x92	; 146
    1e98:	a8 0e       	add	r10, r24
    1e9a:	b1 1c       	adc	r11, r1
    1e9c:	d5 01       	movw	r26, r10
    1e9e:	6d 93       	st	X+, r22
    1ea0:	7c 93       	st	X, r23

	lcd = *new UTFT(CTE32HR,38,39,40,41);
    1ea2:	81 e3       	ldi	r24, 0x31	; 49
    1ea4:	90 e0       	ldi	r25, 0x00	; 0
    1ea6:	0e 94 59 33 	call	0x66b2	; 0x66b2 <_Znwj>
    1eaa:	4c 01       	movw	r8, r24
    1eac:	c1 2c       	mov	r12, r1
    1eae:	d1 2c       	mov	r13, r1
    1eb0:	89 e2       	ldi	r24, 0x29	; 41
    1eb2:	e8 2e       	mov	r14, r24
    1eb4:	f1 2c       	mov	r15, r1
    1eb6:	08 e2       	ldi	r16, 0x28	; 40
    1eb8:	10 e0       	ldi	r17, 0x00	; 0
    1eba:	27 e2       	ldi	r18, 0x27	; 39
    1ebc:	30 e0       	ldi	r19, 0x00	; 0
    1ebe:	46 e2       	ldi	r20, 0x26	; 38
    1ec0:	50 e0       	ldi	r21, 0x00	; 0
    1ec2:	65 e1       	ldi	r22, 0x15	; 21
    1ec4:	c4 01       	movw	r24, r8
    1ec6:	cd d7       	rcall	.+3994   	; 0x2e62 <_ZN4UTFTC1Ehiiiii>
    1ec8:	7e 01       	movw	r14, r28
    1eca:	b4 e9       	ldi	r27, 0x94	; 148
    1ecc:	eb 0e       	add	r14, r27
    1ece:	f1 1c       	adc	r15, r1
    1ed0:	81 e3       	ldi	r24, 0x31	; 49
    1ed2:	f4 01       	movw	r30, r8
    1ed4:	d7 01       	movw	r26, r14
    1ed6:	01 90       	ld	r0, Z+
    1ed8:	0d 92       	st	X+, r0
    1eda:	8a 95       	dec	r24
    1edc:	e1 f7       	brne	.-8      	; 0x1ed6 <_ZN6Screen4initEP7Control+0x5c>
	lcd.InitLCD();
    1ede:	61 e0       	ldi	r22, 0x01	; 1
    1ee0:	c7 01       	movw	r24, r14
    1ee2:	0e 94 80 1a 	call	0x3500	; 0x3500 <_ZN4UTFT7InitLCDEh>
	extern uint8_t BigFont[];
	extern uint8_t SmallFont[];
	
	menu.init(&lcd, SmallFont, BigFont, ctrlPtr->paramsPtr);
    1ee6:	cb 53       	subi	r28, 0x3B	; 59
    1ee8:	df 4f       	sbci	r29, 0xFF	; 255
    1eea:	d5 01       	movw	r26, r10
    1eec:	ed 91       	ld	r30, X+
    1eee:	fc 91       	ld	r31, X
    1ef0:	eb 59       	subi	r30, 0x9B	; 155
    1ef2:	ff 4f       	sbci	r31, 0xFF	; 255
    1ef4:	00 81       	ld	r16, Z
    1ef6:	11 81       	ldd	r17, Z+1	; 0x01
    1ef8:	2e e8       	ldi	r18, 0x8E	; 142
    1efa:	31 e0       	ldi	r19, 0x01	; 1
    1efc:	42 e7       	ldi	r20, 0x72	; 114
    1efe:	5d e0       	ldi	r21, 0x0D	; 13
    1f00:	b7 01       	movw	r22, r14
    1f02:	ce 01       	movw	r24, r28
    1f04:	5c de       	rcall	.-840    	; 0x1bbe <_ZN4Menu4initEP4UTFTPhS2_PN10Parameters8params_tE>
	
	lcd.clrScr();
    1f06:	c7 01       	movw	r24, r14
    1f08:	0e 94 7d 2d 	call	0x5afa	; 0x5afa <_ZN4UTFT6clrScrEv>
	menu.drawMenus();
    1f0c:	ce 01       	movw	r24, r28
    1f0e:	65 de       	rcall	.-822    	; 0x1bda <_ZN4Menu9drawMenusEv>
	menu.drawValues();
    1f10:	ce 01       	movw	r24, r28
}
    1f12:	df 91       	pop	r29
    1f14:	cf 91       	pop	r28
    1f16:	1f 91       	pop	r17
    1f18:	0f 91       	pop	r16
    1f1a:	ff 90       	pop	r15
    1f1c:	ef 90       	pop	r14
    1f1e:	df 90       	pop	r13
    1f20:	cf 90       	pop	r12
    1f22:	bf 90       	pop	r11
    1f24:	af 90       	pop	r10
    1f26:	9f 90       	pop	r9
	
	menu.init(&lcd, SmallFont, BigFont, ctrlPtr->paramsPtr);
	
	lcd.clrScr();
	menu.drawMenus();
	menu.drawValues();
    1f28:	8f 90       	pop	r8
    1f2a:	73 ce       	rjmp	.-794    	; 0x1c12 <_ZN4Menu10drawValuesEv>

00001f2c <_ZN6Screen7displayEv>:
}

void Screen::display() {
	menu.drawMenus();
    1f2c:	8b 53       	subi	r24, 0x3B	; 59
    1f2e:	9f 4f       	sbci	r25, 0xFF	; 255
    1f30:	54 ce       	rjmp	.-856    	; 0x1bda <_ZN4Menu9drawMenusEv>

00001f32 <_GLOBAL__sub_I__ZN6ScreenC2Ev>:
    1f32:	cf 93       	push	r28
    1f34:	df 93       	push	r29
    1f36:	6d eb       	ldi	r22, 0xBD	; 189
    1f38:	72 e0       	ldi	r23, 0x02	; 2
    1f3a:	80 ea       	ldi	r24, 0xA0	; 160
    1f3c:	95 e0       	ldi	r25, 0x05	; 5
    1f3e:	0e 94 35 38 	call	0x706a	; 0x706a <_ZN6StringC1EPKc>
    1f42:	62 ec       	ldi	r22, 0xC2	; 194
    1f44:	72 e0       	ldi	r23, 0x02	; 2
    1f46:	86 ea       	ldi	r24, 0xA6	; 166
    1f48:	95 e0       	ldi	r25, 0x05	; 5
    1f4a:	0e 94 35 38 	call	0x706a	; 0x706a <_ZN6StringC1EPKc>
    1f4e:	67 ec       	ldi	r22, 0xC7	; 199
    1f50:	72 e0       	ldi	r23, 0x02	; 2
    1f52:	8c ea       	ldi	r24, 0xAC	; 172
    1f54:	95 e0       	ldi	r25, 0x05	; 5
    1f56:	0e 94 35 38 	call	0x706a	; 0x706a <_ZN6StringC1EPKc>
    1f5a:	6c ec       	ldi	r22, 0xCC	; 204
    1f5c:	72 e0       	ldi	r23, 0x02	; 2
    1f5e:	82 eb       	ldi	r24, 0xB2	; 178
    1f60:	95 e0       	ldi	r25, 0x05	; 5
    1f62:	0e 94 35 38 	call	0x706a	; 0x706a <_ZN6StringC1EPKc>
    1f66:	6f ec       	ldi	r22, 0xCF	; 207
    1f68:	72 e0       	ldi	r23, 0x02	; 2
    1f6a:	88 eb       	ldi	r24, 0xB8	; 184
    1f6c:	95 e0       	ldi	r25, 0x05	; 5
    1f6e:	0e 94 35 38 	call	0x706a	; 0x706a <_ZN6StringC1EPKc>
    const byte BLABELS = 4;
    const String oscLabels[BLABELS] = {"WAVE:", "FREQ:", "LFO:", "FREQ:"};
    1f72:	65 ed       	ldi	r22, 0xD5	; 213
    1f74:	72 e0       	ldi	r23, 0x02	; 2
    1f76:	88 e8       	ldi	r24, 0x88	; 136
    1f78:	95 e0       	ldi	r25, 0x05	; 5
    1f7a:	0e 94 35 38 	call	0x706a	; 0x706a <_ZN6StringC1EPKc>
    1f7e:	6b ed       	ldi	r22, 0xDB	; 219
    1f80:	72 e0       	ldi	r23, 0x02	; 2
    1f82:	8e e8       	ldi	r24, 0x8E	; 142
    1f84:	95 e0       	ldi	r25, 0x05	; 5
    1f86:	0e 94 35 38 	call	0x706a	; 0x706a <_ZN6StringC1EPKc>
    1f8a:	61 ee       	ldi	r22, 0xE1	; 225
    1f8c:	72 e0       	ldi	r23, 0x02	; 2
    1f8e:	84 e9       	ldi	r24, 0x94	; 148
    1f90:	95 e0       	ldi	r25, 0x05	; 5
    1f92:	0e 94 35 38 	call	0x706a	; 0x706a <_ZN6StringC1EPKc>
    1f96:	6b ed       	ldi	r22, 0xDB	; 219
    1f98:	72 e0       	ldi	r23, 0x02	; 2
    1f9a:	8a e9       	ldi	r24, 0x9A	; 154
    1f9c:	95 e0       	ldi	r25, 0x05	; 5
    1f9e:	0e 94 35 38 	call	0x706a	; 0x706a <_ZN6StringC1EPKc>
    const String filLabels[BLABELS] = {"TYPE:", "FREQ:", "RES:", "ENV:"};
    1fa2:	66 ee       	ldi	r22, 0xE6	; 230
    1fa4:	72 e0       	ldi	r23, 0x02	; 2
    1fa6:	80 e7       	ldi	r24, 0x70	; 112
    1fa8:	95 e0       	ldi	r25, 0x05	; 5
    1faa:	0e 94 35 38 	call	0x706a	; 0x706a <_ZN6StringC1EPKc>
    1fae:	6b ed       	ldi	r22, 0xDB	; 219
    1fb0:	72 e0       	ldi	r23, 0x02	; 2
    1fb2:	86 e7       	ldi	r24, 0x76	; 118
    1fb4:	95 e0       	ldi	r25, 0x05	; 5
    1fb6:	0e 94 35 38 	call	0x706a	; 0x706a <_ZN6StringC1EPKc>
    1fba:	6c ee       	ldi	r22, 0xEC	; 236
    1fbc:	72 e0       	ldi	r23, 0x02	; 2
    1fbe:	8c e7       	ldi	r24, 0x7C	; 124
    1fc0:	95 e0       	ldi	r25, 0x05	; 5
    1fc2:	0e 94 35 38 	call	0x706a	; 0x706a <_ZN6StringC1EPKc>
    1fc6:	61 ef       	ldi	r22, 0xF1	; 241
    1fc8:	72 e0       	ldi	r23, 0x02	; 2
    1fca:	82 e8       	ldi	r24, 0x82	; 130
    1fcc:	95 e0       	ldi	r25, 0x05	; 5
    1fce:	0e 94 35 38 	call	0x706a	; 0x706a <_ZN6StringC1EPKc>
    const String envLabels[BLABELS] = {"ATK:", "DEC:", "SUS:", "REL:"};
    1fd2:	66 ef       	ldi	r22, 0xF6	; 246
    1fd4:	72 e0       	ldi	r23, 0x02	; 2
    1fd6:	88 e5       	ldi	r24, 0x58	; 88
    1fd8:	95 e0       	ldi	r25, 0x05	; 5
    1fda:	0e 94 35 38 	call	0x706a	; 0x706a <_ZN6StringC1EPKc>
    1fde:	6b ef       	ldi	r22, 0xFB	; 251
    1fe0:	72 e0       	ldi	r23, 0x02	; 2
    1fe2:	8e e5       	ldi	r24, 0x5E	; 94
    1fe4:	95 e0       	ldi	r25, 0x05	; 5
    1fe6:	0e 94 35 38 	call	0x706a	; 0x706a <_ZN6StringC1EPKc>
    1fea:	60 e0       	ldi	r22, 0x00	; 0
    1fec:	73 e0       	ldi	r23, 0x03	; 3
    1fee:	84 e6       	ldi	r24, 0x64	; 100
    1ff0:	95 e0       	ldi	r25, 0x05	; 5
    1ff2:	0e 94 35 38 	call	0x706a	; 0x706a <_ZN6StringC1EPKc>
    1ff6:	65 e0       	ldi	r22, 0x05	; 5
    1ff8:	73 e0       	ldi	r23, 0x03	; 3
    1ffa:	8a e6       	ldi	r24, 0x6A	; 106
    1ffc:	95 e0       	ldi	r25, 0x05	; 5
    1ffe:	0e 94 35 38 	call	0x706a	; 0x706a <_ZN6StringC1EPKc>
    const String fxLabels[BLABELS] = {"TYPE:", "AMT:", "PARAM:", "LFO:"};
    2002:	66 ee       	ldi	r22, 0xE6	; 230
    2004:	72 e0       	ldi	r23, 0x02	; 2
    2006:	80 e4       	ldi	r24, 0x40	; 64
    2008:	95 e0       	ldi	r25, 0x05	; 5
    200a:	0e 94 35 38 	call	0x706a	; 0x706a <_ZN6StringC1EPKc>
    200e:	6a e0       	ldi	r22, 0x0A	; 10
    2010:	73 e0       	ldi	r23, 0x03	; 3
    2012:	86 e4       	ldi	r24, 0x46	; 70
    2014:	95 e0       	ldi	r25, 0x05	; 5
    2016:	0e 94 35 38 	call	0x706a	; 0x706a <_ZN6StringC1EPKc>
    201a:	6f e0       	ldi	r22, 0x0F	; 15
    201c:	73 e0       	ldi	r23, 0x03	; 3
    201e:	8c e4       	ldi	r24, 0x4C	; 76
    2020:	95 e0       	ldi	r25, 0x05	; 5
    2022:	0e 94 35 38 	call	0x706a	; 0x706a <_ZN6StringC1EPKc>
    2026:	61 ee       	ldi	r22, 0xE1	; 225
    2028:	72 e0       	ldi	r23, 0x02	; 2
    202a:	82 e5       	ldi	r24, 0x52	; 82
    202c:	95 e0       	ldi	r25, 0x05	; 5
    202e:	0e 94 35 38 	call	0x706a	; 0x706a <_ZN6StringC1EPKc>
    const byte NUMWAVES = 4; 
	const String waveNames[NUMWAVES] = {"SINE", "SQR", "TRI", "SAW"};
    2032:	66 e1       	ldi	r22, 0x16	; 22
    2034:	73 e0       	ldi	r23, 0x03	; 3
    2036:	88 e2       	ldi	r24, 0x28	; 40
    2038:	95 e0       	ldi	r25, 0x05	; 5
    203a:	0e 94 35 38 	call	0x706a	; 0x706a <_ZN6StringC1EPKc>
    203e:	6b e1       	ldi	r22, 0x1B	; 27
    2040:	73 e0       	ldi	r23, 0x03	; 3
    2042:	8e e2       	ldi	r24, 0x2E	; 46
    2044:	95 e0       	ldi	r25, 0x05	; 5
    2046:	0e 94 35 38 	call	0x706a	; 0x706a <_ZN6StringC1EPKc>
    204a:	6f e1       	ldi	r22, 0x1F	; 31
    204c:	73 e0       	ldi	r23, 0x03	; 3
    204e:	84 e3       	ldi	r24, 0x34	; 52
    2050:	95 e0       	ldi	r25, 0x05	; 5
    2052:	0e 94 35 38 	call	0x706a	; 0x706a <_ZN6StringC1EPKc>
    2056:	63 e2       	ldi	r22, 0x23	; 35
    2058:	73 e0       	ldi	r23, 0x03	; 3
    205a:	8a e3       	ldi	r24, 0x3A	; 58
    205c:	95 e0       	ldi	r25, 0x05	; 5
    205e:	0e 94 35 38 	call	0x706a	; 0x706a <_ZN6StringC1EPKc>
    const byte NUMFX = 8;
	const String fxNames[NUMFX] = {"OFF, >>, <<, AND, OR, NOR, XAND, XOR"};
    2062:	67 e2       	ldi	r22, 0x27	; 39
    2064:	73 e0       	ldi	r23, 0x03	; 3
    2066:	88 ef       	ldi	r24, 0xF8	; 248
    2068:	94 e0       	ldi	r25, 0x04	; 4
    206a:	0e 94 35 38 	call	0x706a	; 0x706a <_ZN6StringC1EPKc>
    206e:	c0 e0       	ldi	r28, 0x00	; 0
    2070:	d0 e0       	ldi	r29, 0x00	; 0
    2072:	26 96       	adiw	r28, 0x06	; 6
    2074:	6e e5       	ldi	r22, 0x5E	; 94
    2076:	73 e0       	ldi	r23, 0x03	; 3
    2078:	ce 01       	movw	r24, r28
    207a:	88 50       	subi	r24, 0x08	; 8
    207c:	9b 4f       	sbci	r25, 0xFB	; 251
    207e:	0e 94 35 38 	call	0x706a	; 0x706a <_ZN6StringC1EPKc>
    2082:	ca 32       	cpi	r28, 0x2A	; 42
    2084:	d1 05       	cpc	r29, r1
    2086:	a9 f7       	brne	.-22     	; 0x2072 <_GLOBAL__sub_I__ZN6ScreenC2Ev+0x140>
    2088:	df 91       	pop	r29
    208a:	cf 91       	pop	r28
    208c:	08 95       	ret

0000208e <_GLOBAL__sub_D__ZN6ScreenC2Ev>:
    208e:	cf 93       	push	r28
    2090:	df 93       	push	r29
    2092:	c8 e2       	ldi	r28, 0x28	; 40
    2094:	d5 e0       	ldi	r29, 0x05	; 5
    2096:	26 97       	sbiw	r28, 0x06	; 6
    2098:	ce 01       	movw	r24, r28
    209a:	0e 94 ce 37 	call	0x6f9c	; 0x6f9c <_ZN6StringD1Ev>
    209e:	84 e0       	ldi	r24, 0x04	; 4
    20a0:	c8 3f       	cpi	r28, 0xF8	; 248
    20a2:	d8 07       	cpc	r29, r24
    20a4:	c1 f7       	brne	.-16     	; 0x2096 <_GLOBAL__sub_D__ZN6ScreenC2Ev+0x8>
    const String oscLabels[BLABELS] = {"WAVE:", "FREQ:", "LFO:", "FREQ:"};
    const String filLabels[BLABELS] = {"TYPE:", "FREQ:", "RES:", "ENV:"};
    const String envLabels[BLABELS] = {"ATK:", "DEC:", "SUS:", "REL:"};
    const String fxLabels[BLABELS] = {"TYPE:", "AMT:", "PARAM:", "LFO:"};
    const byte NUMWAVES = 4; 
	const String waveNames[NUMWAVES] = {"SINE", "SQR", "TRI", "SAW"};
    20a6:	8a e3       	ldi	r24, 0x3A	; 58
    20a8:	95 e0       	ldi	r25, 0x05	; 5
    20aa:	0e 94 ce 37 	call	0x6f9c	; 0x6f9c <_ZN6StringD1Ev>
    20ae:	84 e3       	ldi	r24, 0x34	; 52
    20b0:	95 e0       	ldi	r25, 0x05	; 5
    20b2:	0e 94 ce 37 	call	0x6f9c	; 0x6f9c <_ZN6StringD1Ev>
    20b6:	8e e2       	ldi	r24, 0x2E	; 46
    20b8:	95 e0       	ldi	r25, 0x05	; 5
    20ba:	0e 94 ce 37 	call	0x6f9c	; 0x6f9c <_ZN6StringD1Ev>
    20be:	88 e2       	ldi	r24, 0x28	; 40
    20c0:	95 e0       	ldi	r25, 0x05	; 5
    20c2:	0e 94 ce 37 	call	0x6f9c	; 0x6f9c <_ZN6StringD1Ev>
    const String tmTables[TABLES] = {"OSC.", "FIL.", "ENV.", "FX", "SETT."};
    const byte BLABELS = 4;
    const String oscLabels[BLABELS] = {"WAVE:", "FREQ:", "LFO:", "FREQ:"};
    const String filLabels[BLABELS] = {"TYPE:", "FREQ:", "RES:", "ENV:"};
    const String envLabels[BLABELS] = {"ATK:", "DEC:", "SUS:", "REL:"};
    const String fxLabels[BLABELS] = {"TYPE:", "AMT:", "PARAM:", "LFO:"};
    20c6:	82 e5       	ldi	r24, 0x52	; 82
    20c8:	95 e0       	ldi	r25, 0x05	; 5
    20ca:	0e 94 ce 37 	call	0x6f9c	; 0x6f9c <_ZN6StringD1Ev>
    20ce:	8c e4       	ldi	r24, 0x4C	; 76
    20d0:	95 e0       	ldi	r25, 0x05	; 5
    20d2:	0e 94 ce 37 	call	0x6f9c	; 0x6f9c <_ZN6StringD1Ev>
    20d6:	86 e4       	ldi	r24, 0x46	; 70
    20d8:	95 e0       	ldi	r25, 0x05	; 5
    20da:	0e 94 ce 37 	call	0x6f9c	; 0x6f9c <_ZN6StringD1Ev>
    20de:	80 e4       	ldi	r24, 0x40	; 64
    20e0:	95 e0       	ldi	r25, 0x05	; 5
    20e2:	0e 94 ce 37 	call	0x6f9c	; 0x6f9c <_ZN6StringD1Ev>
	const byte TABLES = 5;
    const String tmTables[TABLES] = {"OSC.", "FIL.", "ENV.", "FX", "SETT."};
    const byte BLABELS = 4;
    const String oscLabels[BLABELS] = {"WAVE:", "FREQ:", "LFO:", "FREQ:"};
    const String filLabels[BLABELS] = {"TYPE:", "FREQ:", "RES:", "ENV:"};
    const String envLabels[BLABELS] = {"ATK:", "DEC:", "SUS:", "REL:"};
    20e6:	8a e6       	ldi	r24, 0x6A	; 106
    20e8:	95 e0       	ldi	r25, 0x05	; 5
    20ea:	0e 94 ce 37 	call	0x6f9c	; 0x6f9c <_ZN6StringD1Ev>
    20ee:	84 e6       	ldi	r24, 0x64	; 100
    20f0:	95 e0       	ldi	r25, 0x05	; 5
    20f2:	0e 94 ce 37 	call	0x6f9c	; 0x6f9c <_ZN6StringD1Ev>
    20f6:	8e e5       	ldi	r24, 0x5E	; 94
    20f8:	95 e0       	ldi	r25, 0x05	; 5
    20fa:	0e 94 ce 37 	call	0x6f9c	; 0x6f9c <_ZN6StringD1Ev>
    20fe:	88 e5       	ldi	r24, 0x58	; 88
    2100:	95 e0       	ldi	r25, 0x05	; 5
    2102:	0e 94 ce 37 	call	0x6f9c	; 0x6f9c <_ZN6StringD1Ev>
    
	const byte TABLES = 5;
    const String tmTables[TABLES] = {"OSC.", "FIL.", "ENV.", "FX", "SETT."};
    const byte BLABELS = 4;
    const String oscLabels[BLABELS] = {"WAVE:", "FREQ:", "LFO:", "FREQ:"};
    const String filLabels[BLABELS] = {"TYPE:", "FREQ:", "RES:", "ENV:"};
    2106:	82 e8       	ldi	r24, 0x82	; 130
    2108:	95 e0       	ldi	r25, 0x05	; 5
    210a:	0e 94 ce 37 	call	0x6f9c	; 0x6f9c <_ZN6StringD1Ev>
    210e:	8c e7       	ldi	r24, 0x7C	; 124
    2110:	95 e0       	ldi	r25, 0x05	; 5
    2112:	0e 94 ce 37 	call	0x6f9c	; 0x6f9c <_ZN6StringD1Ev>
    2116:	86 e7       	ldi	r24, 0x76	; 118
    2118:	95 e0       	ldi	r25, 0x05	; 5
    211a:	0e 94 ce 37 	call	0x6f9c	; 0x6f9c <_ZN6StringD1Ev>
    211e:	80 e7       	ldi	r24, 0x70	; 112
    2120:	95 e0       	ldi	r25, 0x05	; 5
    2122:	0e 94 ce 37 	call	0x6f9c	; 0x6f9c <_ZN6StringD1Ev>
    const byte STROKEWEIGHT = 3;
    
	const byte TABLES = 5;
    const String tmTables[TABLES] = {"OSC.", "FIL.", "ENV.", "FX", "SETT."};
    const byte BLABELS = 4;
    const String oscLabels[BLABELS] = {"WAVE:", "FREQ:", "LFO:", "FREQ:"};
    2126:	8a e9       	ldi	r24, 0x9A	; 154
    2128:	95 e0       	ldi	r25, 0x05	; 5
    212a:	0e 94 ce 37 	call	0x6f9c	; 0x6f9c <_ZN6StringD1Ev>
    212e:	84 e9       	ldi	r24, 0x94	; 148
    2130:	95 e0       	ldi	r25, 0x05	; 5
    2132:	0e 94 ce 37 	call	0x6f9c	; 0x6f9c <_ZN6StringD1Ev>
    2136:	8e e8       	ldi	r24, 0x8E	; 142
    2138:	95 e0       	ldi	r25, 0x05	; 5
    213a:	0e 94 ce 37 	call	0x6f9c	; 0x6f9c <_ZN6StringD1Ev>
    213e:	88 e8       	ldi	r24, 0x88	; 136
    2140:	95 e0       	ldi	r25, 0x05	; 5
    2142:	0e 94 ce 37 	call	0x6f9c	; 0x6f9c <_ZN6StringD1Ev>
    2146:	ce eb       	ldi	r28, 0xBE	; 190
    2148:	d5 e0       	ldi	r29, 0x05	; 5
    const int BKGCOLOR = 0x0000;
    const int COLOR = 0xF800;
    const byte STROKEWEIGHT = 3;
    
	const byte TABLES = 5;
    const String tmTables[TABLES] = {"OSC.", "FIL.", "ENV.", "FX", "SETT."};
    214a:	26 97       	sbiw	r28, 0x06	; 6
    214c:	ce 01       	movw	r24, r28
    214e:	0e 94 ce 37 	call	0x6f9c	; 0x6f9c <_ZN6StringD1Ev>
    2152:	85 e0       	ldi	r24, 0x05	; 5
    2154:	c0 3a       	cpi	r28, 0xA0	; 160
    2156:	d8 07       	cpc	r29, r24
    2158:	c1 f7       	brne	.-16     	; 0x214a <_GLOBAL__sub_D__ZN6ScreenC2Ev+0xbc>
    215a:	df 91       	pop	r29
    215c:	cf 91       	pop	r28
    215e:	08 95       	ret

00002160 <setup>:
  public:
    inline HardwareSerial(
      volatile uint8_t *ubrrh, volatile uint8_t *ubrrl,
      volatile uint8_t *ucsra, volatile uint8_t *ucsrb,
      volatile uint8_t *ucsrc, volatile uint8_t *udr);
    void begin(unsigned long baud) { begin(baud, SERIAL_8N1); }
    2160:	26 e0       	ldi	r18, 0x06	; 6
    2162:	40 e0       	ldi	r20, 0x00	; 0
    2164:	52 ec       	ldi	r21, 0xC2	; 194
    2166:	61 e0       	ldi	r22, 0x01	; 1
    2168:	70 e0       	ldi	r23, 0x00	; 0
    216a:	86 e4       	ldi	r24, 0x46	; 70
    216c:	98 e0       	ldi	r25, 0x08	; 8
    216e:	0e 94 54 32 	call	0x64a8	; 0x64a8 <_ZN14HardwareSerial5beginEmh>
Control control; 
Screen screen; 

void setup() {
	if(DEBUG) Serial.begin(115200);
	control.init(&(parameters.data));
    2172:	6d e4       	ldi	r22, 0x4D	; 77
    2174:	77 e0       	ldi	r23, 0x07	; 7
    2176:	84 ee       	ldi	r24, 0xE4	; 228
    2178:	96 e0       	ldi	r25, 0x06	; 6
    217a:	ab d9       	rcall	.-3242   	; 0x14d2 <_ZN7Control4initEPN10Parameters8params_tE>
	screen.init(&control);
    217c:	64 ee       	ldi	r22, 0xE4	; 228
    217e:	76 e0       	ldi	r23, 0x06	; 6
    2180:	8e eb       	ldi	r24, 0xBE	; 190
    2182:	95 e0       	ldi	r25, 0x05	; 5
    2184:	7a de       	rcall	.-780    	; 0x1e7a <_ZN6Screen4initEP7Control>
	control.read();
    2186:	84 ee       	ldi	r24, 0xE4	; 228
    2188:	96 e0       	ldi	r25, 0x06	; 6
    218a:	73 ca       	rjmp	.-2842   	; 0x1672 <_ZN7Control4readEv>

0000218c <loop>:
}

void loop() {
	control.read();
    218c:	84 ee       	ldi	r24, 0xE4	; 228
    218e:	96 e0       	ldi	r25, 0x06	; 6
    2190:	70 da       	rcall	.-2848   	; 0x1672 <_ZN7Control4readEv>
	screen.display();
    2192:	8e eb       	ldi	r24, 0xBE	; 190
    2194:	95 e0       	ldi	r25, 0x05	; 5
    2196:	ca ce       	rjmp	.-620    	; 0x1f2c <_ZN6Screen7displayEv>

00002198 <_GLOBAL__sub_I_parameters>:
}
    2198:	cf 93       	push	r28
    219a:	df 93       	push	r29
    219c:	6d eb       	ldi	r22, 0xBD	; 189
    219e:	72 e0       	ldi	r23, 0x02	; 2
    21a0:	8c e1       	ldi	r24, 0x1C	; 28
    21a2:	98 e0       	ldi	r25, 0x08	; 8
    21a4:	0e 94 35 38 	call	0x706a	; 0x706a <_ZN6StringC1EPKc>
    21a8:	62 ec       	ldi	r22, 0xC2	; 194
    21aa:	72 e0       	ldi	r23, 0x02	; 2
    21ac:	82 e2       	ldi	r24, 0x22	; 34
    21ae:	98 e0       	ldi	r25, 0x08	; 8
    21b0:	0e 94 35 38 	call	0x706a	; 0x706a <_ZN6StringC1EPKc>
    21b4:	67 ec       	ldi	r22, 0xC7	; 199
    21b6:	72 e0       	ldi	r23, 0x02	; 2
    21b8:	88 e2       	ldi	r24, 0x28	; 40
    21ba:	98 e0       	ldi	r25, 0x08	; 8
    21bc:	0e 94 35 38 	call	0x706a	; 0x706a <_ZN6StringC1EPKc>
    21c0:	6c ec       	ldi	r22, 0xCC	; 204
    21c2:	72 e0       	ldi	r23, 0x02	; 2
    21c4:	8e e2       	ldi	r24, 0x2E	; 46
    21c6:	98 e0       	ldi	r25, 0x08	; 8
    21c8:	0e 94 35 38 	call	0x706a	; 0x706a <_ZN6StringC1EPKc>
    21cc:	6f ec       	ldi	r22, 0xCF	; 207
    21ce:	72 e0       	ldi	r23, 0x02	; 2
    21d0:	84 e3       	ldi	r24, 0x34	; 52
    21d2:	98 e0       	ldi	r25, 0x08	; 8
    21d4:	0e 94 35 38 	call	0x706a	; 0x706a <_ZN6StringC1EPKc>
    const byte BLABELS = 4;
    const String oscLabels[BLABELS] = {"WAVE:", "FREQ:", "LFO:", "FREQ:"};
    21d8:	65 ed       	ldi	r22, 0xD5	; 213
    21da:	72 e0       	ldi	r23, 0x02	; 2
    21dc:	84 e0       	ldi	r24, 0x04	; 4
    21de:	98 e0       	ldi	r25, 0x08	; 8
    21e0:	0e 94 35 38 	call	0x706a	; 0x706a <_ZN6StringC1EPKc>
    21e4:	6b ed       	ldi	r22, 0xDB	; 219
    21e6:	72 e0       	ldi	r23, 0x02	; 2
    21e8:	8a e0       	ldi	r24, 0x0A	; 10
    21ea:	98 e0       	ldi	r25, 0x08	; 8
    21ec:	0e 94 35 38 	call	0x706a	; 0x706a <_ZN6StringC1EPKc>
    21f0:	61 ee       	ldi	r22, 0xE1	; 225
    21f2:	72 e0       	ldi	r23, 0x02	; 2
    21f4:	80 e1       	ldi	r24, 0x10	; 16
    21f6:	98 e0       	ldi	r25, 0x08	; 8
    21f8:	0e 94 35 38 	call	0x706a	; 0x706a <_ZN6StringC1EPKc>
    21fc:	6b ed       	ldi	r22, 0xDB	; 219
    21fe:	72 e0       	ldi	r23, 0x02	; 2
    2200:	86 e1       	ldi	r24, 0x16	; 22
    2202:	98 e0       	ldi	r25, 0x08	; 8
    2204:	0e 94 35 38 	call	0x706a	; 0x706a <_ZN6StringC1EPKc>
    const String filLabels[BLABELS] = {"TYPE:", "FREQ:", "RES:", "ENV:"};
    2208:	66 ee       	ldi	r22, 0xE6	; 230
    220a:	72 e0       	ldi	r23, 0x02	; 2
    220c:	8c ee       	ldi	r24, 0xEC	; 236
    220e:	97 e0       	ldi	r25, 0x07	; 7
    2210:	0e 94 35 38 	call	0x706a	; 0x706a <_ZN6StringC1EPKc>
    2214:	6b ed       	ldi	r22, 0xDB	; 219
    2216:	72 e0       	ldi	r23, 0x02	; 2
    2218:	82 ef       	ldi	r24, 0xF2	; 242
    221a:	97 e0       	ldi	r25, 0x07	; 7
    221c:	0e 94 35 38 	call	0x706a	; 0x706a <_ZN6StringC1EPKc>
    2220:	6c ee       	ldi	r22, 0xEC	; 236
    2222:	72 e0       	ldi	r23, 0x02	; 2
    2224:	88 ef       	ldi	r24, 0xF8	; 248
    2226:	97 e0       	ldi	r25, 0x07	; 7
    2228:	0e 94 35 38 	call	0x706a	; 0x706a <_ZN6StringC1EPKc>
    222c:	61 ef       	ldi	r22, 0xF1	; 241
    222e:	72 e0       	ldi	r23, 0x02	; 2
    2230:	8e ef       	ldi	r24, 0xFE	; 254
    2232:	97 e0       	ldi	r25, 0x07	; 7
    2234:	0e 94 35 38 	call	0x706a	; 0x706a <_ZN6StringC1EPKc>
    const String envLabels[BLABELS] = {"ATK:", "DEC:", "SUS:", "REL:"};
    2238:	66 ef       	ldi	r22, 0xF6	; 246
    223a:	72 e0       	ldi	r23, 0x02	; 2
    223c:	84 ed       	ldi	r24, 0xD4	; 212
    223e:	97 e0       	ldi	r25, 0x07	; 7
    2240:	0e 94 35 38 	call	0x706a	; 0x706a <_ZN6StringC1EPKc>
    2244:	6b ef       	ldi	r22, 0xFB	; 251
    2246:	72 e0       	ldi	r23, 0x02	; 2
    2248:	8a ed       	ldi	r24, 0xDA	; 218
    224a:	97 e0       	ldi	r25, 0x07	; 7
    224c:	0e 94 35 38 	call	0x706a	; 0x706a <_ZN6StringC1EPKc>
    2250:	60 e0       	ldi	r22, 0x00	; 0
    2252:	73 e0       	ldi	r23, 0x03	; 3
    2254:	80 ee       	ldi	r24, 0xE0	; 224
    2256:	97 e0       	ldi	r25, 0x07	; 7
    2258:	0e 94 35 38 	call	0x706a	; 0x706a <_ZN6StringC1EPKc>
    225c:	65 e0       	ldi	r22, 0x05	; 5
    225e:	73 e0       	ldi	r23, 0x03	; 3
    2260:	86 ee       	ldi	r24, 0xE6	; 230
    2262:	97 e0       	ldi	r25, 0x07	; 7
    2264:	0e 94 35 38 	call	0x706a	; 0x706a <_ZN6StringC1EPKc>
    const String fxLabels[BLABELS] = {"TYPE:", "AMT:", "PARAM:", "LFO:"};
    2268:	66 ee       	ldi	r22, 0xE6	; 230
    226a:	72 e0       	ldi	r23, 0x02	; 2
    226c:	8c eb       	ldi	r24, 0xBC	; 188
    226e:	97 e0       	ldi	r25, 0x07	; 7
    2270:	0e 94 35 38 	call	0x706a	; 0x706a <_ZN6StringC1EPKc>
    2274:	6a e0       	ldi	r22, 0x0A	; 10
    2276:	73 e0       	ldi	r23, 0x03	; 3
    2278:	82 ec       	ldi	r24, 0xC2	; 194
    227a:	97 e0       	ldi	r25, 0x07	; 7
    227c:	0e 94 35 38 	call	0x706a	; 0x706a <_ZN6StringC1EPKc>
    2280:	6f e0       	ldi	r22, 0x0F	; 15
    2282:	73 e0       	ldi	r23, 0x03	; 3
    2284:	88 ec       	ldi	r24, 0xC8	; 200
    2286:	97 e0       	ldi	r25, 0x07	; 7
    2288:	0e 94 35 38 	call	0x706a	; 0x706a <_ZN6StringC1EPKc>
    228c:	61 ee       	ldi	r22, 0xE1	; 225
    228e:	72 e0       	ldi	r23, 0x02	; 2
    2290:	8e ec       	ldi	r24, 0xCE	; 206
    2292:	97 e0       	ldi	r25, 0x07	; 7
    2294:	0e 94 35 38 	call	0x706a	; 0x706a <_ZN6StringC1EPKc>
    const byte NUMWAVES = 4; 
	const String waveNames[NUMWAVES] = {"SINE", "SQR", "TRI", "SAW"};
    2298:	66 e1       	ldi	r22, 0x16	; 22
    229a:	73 e0       	ldi	r23, 0x03	; 3
    229c:	84 ea       	ldi	r24, 0xA4	; 164
    229e:	97 e0       	ldi	r25, 0x07	; 7
    22a0:	0e 94 35 38 	call	0x706a	; 0x706a <_ZN6StringC1EPKc>
    22a4:	6b e1       	ldi	r22, 0x1B	; 27
    22a6:	73 e0       	ldi	r23, 0x03	; 3
    22a8:	8a ea       	ldi	r24, 0xAA	; 170
    22aa:	97 e0       	ldi	r25, 0x07	; 7
    22ac:	0e 94 35 38 	call	0x706a	; 0x706a <_ZN6StringC1EPKc>
    22b0:	6f e1       	ldi	r22, 0x1F	; 31
    22b2:	73 e0       	ldi	r23, 0x03	; 3
    22b4:	80 eb       	ldi	r24, 0xB0	; 176
    22b6:	97 e0       	ldi	r25, 0x07	; 7
    22b8:	0e 94 35 38 	call	0x706a	; 0x706a <_ZN6StringC1EPKc>
    22bc:	63 e2       	ldi	r22, 0x23	; 35
    22be:	73 e0       	ldi	r23, 0x03	; 3
    22c0:	86 eb       	ldi	r24, 0xB6	; 182
    22c2:	97 e0       	ldi	r25, 0x07	; 7
    22c4:	0e 94 35 38 	call	0x706a	; 0x706a <_ZN6StringC1EPKc>
    const byte NUMFX = 8;
	const String fxNames[NUMFX] = {"OFF, >>, <<, AND, OR, NOR, XAND, XOR"};
    22c8:	67 e2       	ldi	r22, 0x27	; 39
    22ca:	73 e0       	ldi	r23, 0x03	; 3
    22cc:	84 e7       	ldi	r24, 0x74	; 116
    22ce:	97 e0       	ldi	r25, 0x07	; 7
    22d0:	0e 94 35 38 	call	0x706a	; 0x706a <_ZN6StringC1EPKc>
    22d4:	c0 e0       	ldi	r28, 0x00	; 0
    22d6:	d0 e0       	ldi	r29, 0x00	; 0
    22d8:	26 96       	adiw	r28, 0x06	; 6
    22da:	6e e5       	ldi	r22, 0x5E	; 94
    22dc:	73 e0       	ldi	r23, 0x03	; 3
    22de:	ce 01       	movw	r24, r28
    22e0:	8c 58       	subi	r24, 0x8C	; 140
    22e2:	98 4f       	sbci	r25, 0xF8	; 248
    22e4:	0e 94 35 38 	call	0x706a	; 0x706a <_ZN6StringC1EPKc>
    22e8:	ca 32       	cpi	r28, 0x2A	; 42
    22ea:	d1 05       	cpc	r29, r1
    22ec:	a9 f7       	brne	.-22     	; 0x22d8 <__stack+0xd9>
    22ee:	10 92 4d 07 	sts	0x074D, r1	; 0x80074d <parameters>
    22f2:	10 92 4e 07 	sts	0x074E, r1	; 0x80074e <parameters+0x1>
    22f6:	80 e0       	ldi	r24, 0x00	; 0
    22f8:	90 e0       	ldi	r25, 0x00	; 0
    22fa:	ac e5       	ldi	r26, 0x5C	; 92
    22fc:	b3 e4       	ldi	r27, 0x43	; 67
    22fe:	80 93 4f 07 	sts	0x074F, r24	; 0x80074f <parameters+0x2>
    2302:	90 93 50 07 	sts	0x0750, r25	; 0x800750 <parameters+0x3>
    2306:	a0 93 51 07 	sts	0x0751, r26	; 0x800751 <parameters+0x4>
    230a:	b0 93 52 07 	sts	0x0752, r27	; 0x800752 <parameters+0x5>
    230e:	10 92 53 07 	sts	0x0753, r1	; 0x800753 <parameters+0x6>
    2312:	80 e0       	ldi	r24, 0x00	; 0
    2314:	90 e0       	ldi	r25, 0x00	; 0
    2316:	a0 e8       	ldi	r26, 0x80	; 128
    2318:	b0 e4       	ldi	r27, 0x40	; 64
    231a:	80 93 54 07 	sts	0x0754, r24	; 0x800754 <parameters+0x7>
    231e:	90 93 55 07 	sts	0x0755, r25	; 0x800755 <parameters+0x8>
    2322:	a0 93 56 07 	sts	0x0756, r26	; 0x800756 <parameters+0x9>
    2326:	b0 93 57 07 	sts	0x0757, r27	; 0x800757 <parameters+0xa>
    232a:	10 92 58 07 	sts	0x0758, r1	; 0x800758 <parameters+0xb>
    232e:	80 e0       	ldi	r24, 0x00	; 0
    2330:	90 e8       	ldi	r25, 0x80	; 128
    2332:	ab e3       	ldi	r26, 0x3B	; 59
    2334:	b6 e4       	ldi	r27, 0x46	; 70
    2336:	80 93 59 07 	sts	0x0759, r24	; 0x800759 <parameters+0xc>
    233a:	90 93 5a 07 	sts	0x075A, r25	; 0x80075a <parameters+0xd>
    233e:	a0 93 5b 07 	sts	0x075B, r26	; 0x80075b <parameters+0xe>
    2342:	b0 93 5c 07 	sts	0x075C, r27	; 0x80075c <parameters+0xf>
    2346:	88 e2       	ldi	r24, 0x28	; 40
    2348:	80 93 5d 07 	sts	0x075D, r24	; 0x80075d <parameters+0x10>
    234c:	10 92 5e 07 	sts	0x075E, r1	; 0x80075e <parameters+0x11>
    2350:	10 92 5f 07 	sts	0x075F, r1	; 0x80075f <parameters+0x12>
    2354:	10 92 60 07 	sts	0x0760, r1	; 0x800760 <parameters+0x13>
    2358:	10 92 61 07 	sts	0x0761, r1	; 0x800761 <parameters+0x14>
    235c:	10 92 62 07 	sts	0x0762, r1	; 0x800762 <parameters+0x15>
    2360:	80 e0       	ldi	r24, 0x00	; 0
    2362:	90 e0       	ldi	r25, 0x00	; 0
    2364:	a8 e4       	ldi	r26, 0x48	; 72
    2366:	b3 e4       	ldi	r27, 0x43	; 67
    2368:	80 93 63 07 	sts	0x0763, r24	; 0x800763 <parameters+0x16>
    236c:	90 93 64 07 	sts	0x0764, r25	; 0x800764 <parameters+0x17>
    2370:	a0 93 65 07 	sts	0x0765, r26	; 0x800765 <parameters+0x18>
    2374:	b0 93 66 07 	sts	0x0766, r27	; 0x800766 <parameters+0x19>
    2378:	84 eb       	ldi	r24, 0xB4	; 180
    237a:	80 93 67 07 	sts	0x0767, r24	; 0x800767 <parameters+0x1a>
    237e:	80 e0       	ldi	r24, 0x00	; 0
    2380:	90 e0       	ldi	r25, 0x00	; 0
    2382:	aa e7       	ldi	r26, 0x7A	; 122
    2384:	b3 e4       	ldi	r27, 0x43	; 67
    2386:	80 93 68 07 	sts	0x0768, r24	; 0x800768 <parameters+0x1b>
    238a:	90 93 69 07 	sts	0x0769, r25	; 0x800769 <parameters+0x1c>
    238e:	a0 93 6a 07 	sts	0x076A, r26	; 0x80076a <parameters+0x1d>
    2392:	b0 93 6b 07 	sts	0x076B, r27	; 0x80076b <parameters+0x1e>
    2396:	10 92 6c 07 	sts	0x076C, r1	; 0x80076c <parameters+0x1f>
    239a:	10 92 6d 07 	sts	0x076D, r1	; 0x80076d <parameters+0x20>
    239e:	10 92 6e 07 	sts	0x076E, r1	; 0x80076e <parameters+0x21>
    23a2:	10 92 6f 07 	sts	0x076F, r1	; 0x80076f <parameters+0x22>
    23a6:	10 92 70 07 	sts	0x0770, r1	; 0x800770 <parameters+0x23>
    23aa:	8f ef       	ldi	r24, 0xFF	; 255
    23ac:	80 93 71 07 	sts	0x0771, r24	; 0x800771 <parameters+0x24>
    23b0:	10 92 72 07 	sts	0x0772, r1	; 0x800772 <parameters+0x25>
    23b4:	10 92 73 07 	sts	0x0773, r1	; 0x800773 <parameters+0x26>
#include "Screen.h"

#define DEBUG 1

Parameters parameters;
Control control; 
    23b8:	84 ee       	ldi	r24, 0xE4	; 228
    23ba:	96 e0       	ldi	r25, 0x06	; 6
    23bc:	2e d8       	rcall	.-4004   	; 0x141a <_ZN7ControlC1Ev>
Screen screen; 
    23be:	8e eb       	ldi	r24, 0xBE	; 190
    23c0:	95 e0       	ldi	r25, 0x05	; 5
}

void loop() {
	control.read();
	screen.display();
}
    23c2:	df 91       	pop	r29
    23c4:	cf 91       	pop	r28

#define DEBUG 1

Parameters parameters;
Control control; 
Screen screen; 
    23c6:	3d cd       	rjmp	.-1414   	; 0x1e42 <_ZN6ScreenC1Ev>

000023c8 <_GLOBAL__sub_D_parameters>:
}

void loop() {
	control.read();
	screen.display();
}
    23c8:	cf 93       	push	r28
    23ca:	df 93       	push	r29
    23cc:	c4 ea       	ldi	r28, 0xA4	; 164
    23ce:	d7 e0       	ldi	r29, 0x07	; 7
    23d0:	26 97       	sbiw	r28, 0x06	; 6
    23d2:	ce 01       	movw	r24, r28
    23d4:	0e 94 ce 37 	call	0x6f9c	; 0x6f9c <_ZN6StringD1Ev>
    23d8:	87 e0       	ldi	r24, 0x07	; 7
    23da:	c4 37       	cpi	r28, 0x74	; 116
    23dc:	d8 07       	cpc	r29, r24
    23de:	c1 f7       	brne	.-16     	; 0x23d0 <_GLOBAL__sub_D_parameters+0x8>
    const String oscLabels[BLABELS] = {"WAVE:", "FREQ:", "LFO:", "FREQ:"};
    const String filLabels[BLABELS] = {"TYPE:", "FREQ:", "RES:", "ENV:"};
    const String envLabels[BLABELS] = {"ATK:", "DEC:", "SUS:", "REL:"};
    const String fxLabels[BLABELS] = {"TYPE:", "AMT:", "PARAM:", "LFO:"};
    const byte NUMWAVES = 4; 
	const String waveNames[NUMWAVES] = {"SINE", "SQR", "TRI", "SAW"};
    23e0:	86 eb       	ldi	r24, 0xB6	; 182
    23e2:	97 e0       	ldi	r25, 0x07	; 7
    23e4:	0e 94 ce 37 	call	0x6f9c	; 0x6f9c <_ZN6StringD1Ev>
    23e8:	80 eb       	ldi	r24, 0xB0	; 176
    23ea:	97 e0       	ldi	r25, 0x07	; 7
    23ec:	0e 94 ce 37 	call	0x6f9c	; 0x6f9c <_ZN6StringD1Ev>
    23f0:	8a ea       	ldi	r24, 0xAA	; 170
    23f2:	97 e0       	ldi	r25, 0x07	; 7
    23f4:	0e 94 ce 37 	call	0x6f9c	; 0x6f9c <_ZN6StringD1Ev>
    23f8:	84 ea       	ldi	r24, 0xA4	; 164
    23fa:	97 e0       	ldi	r25, 0x07	; 7
    23fc:	0e 94 ce 37 	call	0x6f9c	; 0x6f9c <_ZN6StringD1Ev>
    const String tmTables[TABLES] = {"OSC.", "FIL.", "ENV.", "FX", "SETT."};
    const byte BLABELS = 4;
    const String oscLabels[BLABELS] = {"WAVE:", "FREQ:", "LFO:", "FREQ:"};
    const String filLabels[BLABELS] = {"TYPE:", "FREQ:", "RES:", "ENV:"};
    const String envLabels[BLABELS] = {"ATK:", "DEC:", "SUS:", "REL:"};
    const String fxLabels[BLABELS] = {"TYPE:", "AMT:", "PARAM:", "LFO:"};
    2400:	8e ec       	ldi	r24, 0xCE	; 206
    2402:	97 e0       	ldi	r25, 0x07	; 7
    2404:	0e 94 ce 37 	call	0x6f9c	; 0x6f9c <_ZN6StringD1Ev>
    2408:	88 ec       	ldi	r24, 0xC8	; 200
    240a:	97 e0       	ldi	r25, 0x07	; 7
    240c:	0e 94 ce 37 	call	0x6f9c	; 0x6f9c <_ZN6StringD1Ev>
    2410:	82 ec       	ldi	r24, 0xC2	; 194
    2412:	97 e0       	ldi	r25, 0x07	; 7
    2414:	0e 94 ce 37 	call	0x6f9c	; 0x6f9c <_ZN6StringD1Ev>
    2418:	8c eb       	ldi	r24, 0xBC	; 188
    241a:	97 e0       	ldi	r25, 0x07	; 7
    241c:	0e 94 ce 37 	call	0x6f9c	; 0x6f9c <_ZN6StringD1Ev>
	const byte TABLES = 5;
    const String tmTables[TABLES] = {"OSC.", "FIL.", "ENV.", "FX", "SETT."};
    const byte BLABELS = 4;
    const String oscLabels[BLABELS] = {"WAVE:", "FREQ:", "LFO:", "FREQ:"};
    const String filLabels[BLABELS] = {"TYPE:", "FREQ:", "RES:", "ENV:"};
    const String envLabels[BLABELS] = {"ATK:", "DEC:", "SUS:", "REL:"};
    2420:	86 ee       	ldi	r24, 0xE6	; 230
    2422:	97 e0       	ldi	r25, 0x07	; 7
    2424:	0e 94 ce 37 	call	0x6f9c	; 0x6f9c <_ZN6StringD1Ev>
    2428:	80 ee       	ldi	r24, 0xE0	; 224
    242a:	97 e0       	ldi	r25, 0x07	; 7
    242c:	0e 94 ce 37 	call	0x6f9c	; 0x6f9c <_ZN6StringD1Ev>
    2430:	8a ed       	ldi	r24, 0xDA	; 218
    2432:	97 e0       	ldi	r25, 0x07	; 7
    2434:	0e 94 ce 37 	call	0x6f9c	; 0x6f9c <_ZN6StringD1Ev>
    2438:	84 ed       	ldi	r24, 0xD4	; 212
    243a:	97 e0       	ldi	r25, 0x07	; 7
    243c:	0e 94 ce 37 	call	0x6f9c	; 0x6f9c <_ZN6StringD1Ev>
    
	const byte TABLES = 5;
    const String tmTables[TABLES] = {"OSC.", "FIL.", "ENV.", "FX", "SETT."};
    const byte BLABELS = 4;
    const String oscLabels[BLABELS] = {"WAVE:", "FREQ:", "LFO:", "FREQ:"};
    const String filLabels[BLABELS] = {"TYPE:", "FREQ:", "RES:", "ENV:"};
    2440:	8e ef       	ldi	r24, 0xFE	; 254
    2442:	97 e0       	ldi	r25, 0x07	; 7
    2444:	0e 94 ce 37 	call	0x6f9c	; 0x6f9c <_ZN6StringD1Ev>
    2448:	88 ef       	ldi	r24, 0xF8	; 248
    244a:	97 e0       	ldi	r25, 0x07	; 7
    244c:	0e 94 ce 37 	call	0x6f9c	; 0x6f9c <_ZN6StringD1Ev>
    2450:	82 ef       	ldi	r24, 0xF2	; 242
    2452:	97 e0       	ldi	r25, 0x07	; 7
    2454:	0e 94 ce 37 	call	0x6f9c	; 0x6f9c <_ZN6StringD1Ev>
    2458:	8c ee       	ldi	r24, 0xEC	; 236
    245a:	97 e0       	ldi	r25, 0x07	; 7
    245c:	0e 94 ce 37 	call	0x6f9c	; 0x6f9c <_ZN6StringD1Ev>
    const byte STROKEWEIGHT = 3;
    
	const byte TABLES = 5;
    const String tmTables[TABLES] = {"OSC.", "FIL.", "ENV.", "FX", "SETT."};
    const byte BLABELS = 4;
    const String oscLabels[BLABELS] = {"WAVE:", "FREQ:", "LFO:", "FREQ:"};
    2460:	86 e1       	ldi	r24, 0x16	; 22
    2462:	98 e0       	ldi	r25, 0x08	; 8
    2464:	0e 94 ce 37 	call	0x6f9c	; 0x6f9c <_ZN6StringD1Ev>
    2468:	80 e1       	ldi	r24, 0x10	; 16
    246a:	98 e0       	ldi	r25, 0x08	; 8
    246c:	0e 94 ce 37 	call	0x6f9c	; 0x6f9c <_ZN6StringD1Ev>
    2470:	8a e0       	ldi	r24, 0x0A	; 10
    2472:	98 e0       	ldi	r25, 0x08	; 8
    2474:	0e 94 ce 37 	call	0x6f9c	; 0x6f9c <_ZN6StringD1Ev>
    2478:	84 e0       	ldi	r24, 0x04	; 4
    247a:	98 e0       	ldi	r25, 0x08	; 8
    247c:	0e 94 ce 37 	call	0x6f9c	; 0x6f9c <_ZN6StringD1Ev>
    2480:	ca e3       	ldi	r28, 0x3A	; 58
    2482:	d8 e0       	ldi	r29, 0x08	; 8
    const int BKGCOLOR = 0x0000;
    const int COLOR = 0xF800;
    const byte STROKEWEIGHT = 3;
    
	const byte TABLES = 5;
    const String tmTables[TABLES] = {"OSC.", "FIL.", "ENV.", "FX", "SETT."};
    2484:	26 97       	sbiw	r28, 0x06	; 6
    2486:	ce 01       	movw	r24, r28
    2488:	0e 94 ce 37 	call	0x6f9c	; 0x6f9c <_ZN6StringD1Ev>
    248c:	88 e0       	ldi	r24, 0x08	; 8
    248e:	cc 31       	cpi	r28, 0x1C	; 28
    2490:	d8 07       	cpc	r29, r24
    2492:	c1 f7       	brne	.-16     	; 0x2484 <_GLOBAL__sub_D_parameters+0xbc>
    2494:	df 91       	pop	r29
    2496:	cf 91       	pop	r28
    2498:	08 95       	ret

0000249a <_ZN4UTFT12LCD_Writ_BusEcch>:
		drawHLine(x1+2, y1, x2-x1-4);
		drawHLine(x1+2, y2, x2-x1-4);
		drawVLine(x1, y1+2, y2-y1-4);
		drawVLine(x2, y1+2, y2-y1-4);
	}
}
    249a:	fc 01       	movw	r30, r24
    249c:	28 30       	cpi	r18, 0x08	; 8
    249e:	09 f4       	brne	.+2      	; 0x24a2 <_ZN4UTFT12LCD_Writ_BusEcch+0x8>
    24a0:	ee c0       	rjmp	.+476    	; 0x267e <_ZN4UTFT12LCD_Writ_BusEcch+0x1e4>
    24a2:	18 f4       	brcc	.+6      	; 0x24aa <_ZN4UTFT12LCD_Writ_BusEcch+0x10>
    24a4:	21 30       	cpi	r18, 0x01	; 1
    24a6:	41 f0       	breq	.+16     	; 0x24b8 <_ZN4UTFT12LCD_Writ_BusEcch+0x1e>
    24a8:	08 95       	ret
    24aa:	20 31       	cpi	r18, 0x10	; 16
    24ac:	09 f4       	brne	.+2      	; 0x24b0 <_ZN4UTFT12LCD_Writ_BusEcch+0x16>
    24ae:	f7 c0       	rjmp	.+494    	; 0x269e <_ZN4UTFT12LCD_Writ_BusEcch+0x204>
    24b0:	21 31       	cpi	r18, 0x11	; 17
    24b2:	09 f4       	brne	.+2      	; 0x24b6 <_ZN4UTFT12LCD_Writ_BusEcch+0x1c>
    24b4:	02 c1       	rjmp	.+516    	; 0x26ba <_ZN4UTFT12LCD_Writ_BusEcch+0x220>
    24b6:	08 95       	ret
    24b8:	87 85       	ldd	r24, Z+15	; 0x0f
    24ba:	84 30       	cpi	r24, 0x04	; 4
    24bc:	c1 f4       	brne	.+48     	; 0x24ee <_ZN4UTFT12LCD_Writ_BusEcch+0x54>
    24be:	a0 8d       	ldd	r26, Z+24	; 0x18
    24c0:	b1 8d       	ldd	r27, Z+25	; 0x19
    24c2:	82 a1       	ldd	r24, Z+34	; 0x22
    24c4:	9c 91       	ld	r25, X
    24c6:	61 30       	cpi	r22, 0x01	; 1
    24c8:	11 f4       	brne	.+4      	; 0x24ce <_ZN4UTFT12LCD_Writ_BusEcch+0x34>
    24ca:	89 2b       	or	r24, r25
    24cc:	02 c0       	rjmp	.+4      	; 0x24d2 <_ZN4UTFT12LCD_Writ_BusEcch+0x38>
    24ce:	80 95       	com	r24
    24d0:	89 23       	and	r24, r25
    24d2:	8c 93       	st	X, r24
    24d4:	a2 8d       	ldd	r26, Z+26	; 0x1a
    24d6:	b3 8d       	ldd	r27, Z+27	; 0x1b
    24d8:	9c 91       	ld	r25, X
    24da:	83 a1       	ldd	r24, Z+35	; 0x23
    24dc:	80 95       	com	r24
    24de:	89 23       	and	r24, r25
    24e0:	8c 93       	st	X, r24
    24e2:	a2 8d       	ldd	r26, Z+26	; 0x1a
    24e4:	b3 8d       	ldd	r27, Z+27	; 0x1b
    24e6:	9c 91       	ld	r25, X
    24e8:	83 a1       	ldd	r24, Z+35	; 0x23
    24ea:	89 2b       	or	r24, r25
    24ec:	08 c0       	rjmp	.+16     	; 0x24fe <_ZN4UTFT12LCD_Writ_BusEcch+0x64>
    24ee:	a0 89       	ldd	r26, Z+16	; 0x10
    24f0:	b1 89       	ldd	r27, Z+17	; 0x11
    24f2:	86 8d       	ldd	r24, Z+30	; 0x1e
    24f4:	9c 91       	ld	r25, X
    24f6:	61 30       	cpi	r22, 0x01	; 1
    24f8:	c1 f3       	breq	.-16     	; 0x24ea <_ZN4UTFT12LCD_Writ_BusEcch+0x50>
    24fa:	80 95       	com	r24
    24fc:	89 23       	and	r24, r25
    24fe:	8c 93       	st	X, r24
    2500:	a0 8d       	ldd	r26, Z+24	; 0x18
    2502:	b1 8d       	ldd	r27, Z+25	; 0x19
    2504:	82 a1       	ldd	r24, Z+34	; 0x22
    2506:	9c 91       	ld	r25, X
    2508:	47 ff       	sbrs	r20, 7
    250a:	02 c0       	rjmp	.+4      	; 0x2510 <_ZN4UTFT12LCD_Writ_BusEcch+0x76>
    250c:	89 2b       	or	r24, r25
    250e:	02 c0       	rjmp	.+4      	; 0x2514 <_ZN4UTFT12LCD_Writ_BusEcch+0x7a>
    2510:	80 95       	com	r24
    2512:	89 23       	and	r24, r25
    2514:	8c 93       	st	X, r24
    2516:	a2 8d       	ldd	r26, Z+26	; 0x1a
    2518:	b3 8d       	ldd	r27, Z+27	; 0x1b
    251a:	9c 91       	ld	r25, X
    251c:	83 a1       	ldd	r24, Z+35	; 0x23
    251e:	80 95       	com	r24
    2520:	89 23       	and	r24, r25
    2522:	8c 93       	st	X, r24
    2524:	a2 8d       	ldd	r26, Z+26	; 0x1a
    2526:	b3 8d       	ldd	r27, Z+27	; 0x1b
    2528:	9c 91       	ld	r25, X
    252a:	83 a1       	ldd	r24, Z+35	; 0x23
    252c:	89 2b       	or	r24, r25
    252e:	8c 93       	st	X, r24
    2530:	a0 8d       	ldd	r26, Z+24	; 0x18
    2532:	b1 8d       	ldd	r27, Z+25	; 0x19
    2534:	82 a1       	ldd	r24, Z+34	; 0x22
    2536:	9c 91       	ld	r25, X
    2538:	46 ff       	sbrs	r20, 6
    253a:	02 c0       	rjmp	.+4      	; 0x2540 <_ZN4UTFT12LCD_Writ_BusEcch+0xa6>
    253c:	89 2b       	or	r24, r25
    253e:	02 c0       	rjmp	.+4      	; 0x2544 <_ZN4UTFT12LCD_Writ_BusEcch+0xaa>
    2540:	80 95       	com	r24
    2542:	89 23       	and	r24, r25
    2544:	8c 93       	st	X, r24
    2546:	a2 8d       	ldd	r26, Z+26	; 0x1a
    2548:	b3 8d       	ldd	r27, Z+27	; 0x1b
    254a:	9c 91       	ld	r25, X
    254c:	83 a1       	ldd	r24, Z+35	; 0x23
    254e:	80 95       	com	r24
    2550:	89 23       	and	r24, r25
    2552:	8c 93       	st	X, r24
    2554:	a2 8d       	ldd	r26, Z+26	; 0x1a
    2556:	b3 8d       	ldd	r27, Z+27	; 0x1b
    2558:	9c 91       	ld	r25, X
    255a:	83 a1       	ldd	r24, Z+35	; 0x23
    255c:	89 2b       	or	r24, r25
    255e:	8c 93       	st	X, r24
    2560:	a0 8d       	ldd	r26, Z+24	; 0x18
    2562:	b1 8d       	ldd	r27, Z+25	; 0x19
    2564:	82 a1       	ldd	r24, Z+34	; 0x22
    2566:	9c 91       	ld	r25, X
    2568:	45 ff       	sbrs	r20, 5
    256a:	02 c0       	rjmp	.+4      	; 0x2570 <_ZN4UTFT12LCD_Writ_BusEcch+0xd6>
    256c:	89 2b       	or	r24, r25
    256e:	02 c0       	rjmp	.+4      	; 0x2574 <_ZN4UTFT12LCD_Writ_BusEcch+0xda>
    2570:	80 95       	com	r24
    2572:	89 23       	and	r24, r25
    2574:	8c 93       	st	X, r24
    2576:	a2 8d       	ldd	r26, Z+26	; 0x1a
    2578:	b3 8d       	ldd	r27, Z+27	; 0x1b
    257a:	9c 91       	ld	r25, X
    257c:	83 a1       	ldd	r24, Z+35	; 0x23
    257e:	80 95       	com	r24
    2580:	89 23       	and	r24, r25
    2582:	8c 93       	st	X, r24
    2584:	a2 8d       	ldd	r26, Z+26	; 0x1a
    2586:	b3 8d       	ldd	r27, Z+27	; 0x1b
    2588:	9c 91       	ld	r25, X
    258a:	83 a1       	ldd	r24, Z+35	; 0x23
    258c:	89 2b       	or	r24, r25
    258e:	8c 93       	st	X, r24
    2590:	a0 8d       	ldd	r26, Z+24	; 0x18
    2592:	b1 8d       	ldd	r27, Z+25	; 0x19
    2594:	82 a1       	ldd	r24, Z+34	; 0x22
    2596:	9c 91       	ld	r25, X
    2598:	44 ff       	sbrs	r20, 4
    259a:	02 c0       	rjmp	.+4      	; 0x25a0 <_ZN4UTFT12LCD_Writ_BusEcch+0x106>
    259c:	89 2b       	or	r24, r25
    259e:	02 c0       	rjmp	.+4      	; 0x25a4 <_ZN4UTFT12LCD_Writ_BusEcch+0x10a>
    25a0:	80 95       	com	r24
    25a2:	89 23       	and	r24, r25
    25a4:	8c 93       	st	X, r24
    25a6:	a2 8d       	ldd	r26, Z+26	; 0x1a
    25a8:	b3 8d       	ldd	r27, Z+27	; 0x1b
    25aa:	9c 91       	ld	r25, X
    25ac:	83 a1       	ldd	r24, Z+35	; 0x23
    25ae:	80 95       	com	r24
    25b0:	89 23       	and	r24, r25
    25b2:	8c 93       	st	X, r24
    25b4:	a2 8d       	ldd	r26, Z+26	; 0x1a
    25b6:	b3 8d       	ldd	r27, Z+27	; 0x1b
    25b8:	9c 91       	ld	r25, X
    25ba:	83 a1       	ldd	r24, Z+35	; 0x23
    25bc:	89 2b       	or	r24, r25
    25be:	8c 93       	st	X, r24
    25c0:	a0 8d       	ldd	r26, Z+24	; 0x18
    25c2:	b1 8d       	ldd	r27, Z+25	; 0x19
    25c4:	82 a1       	ldd	r24, Z+34	; 0x22
    25c6:	9c 91       	ld	r25, X
    25c8:	43 ff       	sbrs	r20, 3
    25ca:	02 c0       	rjmp	.+4      	; 0x25d0 <_ZN4UTFT12LCD_Writ_BusEcch+0x136>
    25cc:	89 2b       	or	r24, r25
    25ce:	02 c0       	rjmp	.+4      	; 0x25d4 <_ZN4UTFT12LCD_Writ_BusEcch+0x13a>
    25d0:	80 95       	com	r24
    25d2:	89 23       	and	r24, r25
    25d4:	8c 93       	st	X, r24
    25d6:	a2 8d       	ldd	r26, Z+26	; 0x1a
    25d8:	b3 8d       	ldd	r27, Z+27	; 0x1b
    25da:	9c 91       	ld	r25, X
    25dc:	83 a1       	ldd	r24, Z+35	; 0x23
    25de:	80 95       	com	r24
    25e0:	89 23       	and	r24, r25
    25e2:	8c 93       	st	X, r24
    25e4:	a2 8d       	ldd	r26, Z+26	; 0x1a
    25e6:	b3 8d       	ldd	r27, Z+27	; 0x1b
    25e8:	9c 91       	ld	r25, X
    25ea:	83 a1       	ldd	r24, Z+35	; 0x23
    25ec:	89 2b       	or	r24, r25
    25ee:	8c 93       	st	X, r24
    25f0:	a0 8d       	ldd	r26, Z+24	; 0x18
    25f2:	b1 8d       	ldd	r27, Z+25	; 0x19
    25f4:	82 a1       	ldd	r24, Z+34	; 0x22
    25f6:	9c 91       	ld	r25, X
    25f8:	42 ff       	sbrs	r20, 2
    25fa:	02 c0       	rjmp	.+4      	; 0x2600 <_ZN4UTFT12LCD_Writ_BusEcch+0x166>
    25fc:	89 2b       	or	r24, r25
    25fe:	02 c0       	rjmp	.+4      	; 0x2604 <_ZN4UTFT12LCD_Writ_BusEcch+0x16a>
    2600:	80 95       	com	r24
    2602:	89 23       	and	r24, r25
    2604:	8c 93       	st	X, r24
    2606:	a2 8d       	ldd	r26, Z+26	; 0x1a
    2608:	b3 8d       	ldd	r27, Z+27	; 0x1b
    260a:	9c 91       	ld	r25, X
    260c:	83 a1       	ldd	r24, Z+35	; 0x23
    260e:	80 95       	com	r24
    2610:	89 23       	and	r24, r25
    2612:	8c 93       	st	X, r24
    2614:	a2 8d       	ldd	r26, Z+26	; 0x1a
    2616:	b3 8d       	ldd	r27, Z+27	; 0x1b
    2618:	9c 91       	ld	r25, X
    261a:	83 a1       	ldd	r24, Z+35	; 0x23
    261c:	89 2b       	or	r24, r25
    261e:	8c 93       	st	X, r24
    2620:	a0 8d       	ldd	r26, Z+24	; 0x18
    2622:	b1 8d       	ldd	r27, Z+25	; 0x19
    2624:	82 a1       	ldd	r24, Z+34	; 0x22
    2626:	9c 91       	ld	r25, X
    2628:	41 ff       	sbrs	r20, 1
    262a:	02 c0       	rjmp	.+4      	; 0x2630 <_ZN4UTFT12LCD_Writ_BusEcch+0x196>
    262c:	89 2b       	or	r24, r25
    262e:	02 c0       	rjmp	.+4      	; 0x2634 <_ZN4UTFT12LCD_Writ_BusEcch+0x19a>
    2630:	80 95       	com	r24
    2632:	89 23       	and	r24, r25
    2634:	8c 93       	st	X, r24
    2636:	a2 8d       	ldd	r26, Z+26	; 0x1a
    2638:	b3 8d       	ldd	r27, Z+27	; 0x1b
    263a:	9c 91       	ld	r25, X
    263c:	83 a1       	ldd	r24, Z+35	; 0x23
    263e:	80 95       	com	r24
    2640:	89 23       	and	r24, r25
    2642:	8c 93       	st	X, r24
    2644:	a2 8d       	ldd	r26, Z+26	; 0x1a
    2646:	b3 8d       	ldd	r27, Z+27	; 0x1b
    2648:	9c 91       	ld	r25, X
    264a:	83 a1       	ldd	r24, Z+35	; 0x23
    264c:	89 2b       	or	r24, r25
    264e:	8c 93       	st	X, r24
    2650:	a0 8d       	ldd	r26, Z+24	; 0x18
    2652:	b1 8d       	ldd	r27, Z+25	; 0x19
    2654:	82 a1       	ldd	r24, Z+34	; 0x22
    2656:	9c 91       	ld	r25, X
    2658:	40 ff       	sbrs	r20, 0
    265a:	02 c0       	rjmp	.+4      	; 0x2660 <_ZN4UTFT12LCD_Writ_BusEcch+0x1c6>
    265c:	89 2b       	or	r24, r25
    265e:	02 c0       	rjmp	.+4      	; 0x2664 <_ZN4UTFT12LCD_Writ_BusEcch+0x1ca>
    2660:	80 95       	com	r24
    2662:	89 23       	and	r24, r25
    2664:	8c 93       	st	X, r24
    2666:	a2 8d       	ldd	r26, Z+26	; 0x1a
    2668:	b3 8d       	ldd	r27, Z+27	; 0x1b
    266a:	9c 91       	ld	r25, X
    266c:	83 a1       	ldd	r24, Z+35	; 0x23
    266e:	80 95       	com	r24
    2670:	89 23       	and	r24, r25
    2672:	8c 93       	st	X, r24
    2674:	a2 8d       	ldd	r26, Z+26	; 0x1a
    2676:	b3 8d       	ldd	r27, Z+27	; 0x1b
    2678:	9c 91       	ld	r25, X
    267a:	83 a1       	ldd	r24, Z+35	; 0x23
    267c:	a2 c0       	rjmp	.+324    	; 0x27c2 <_ZN4UTFT12LCD_Writ_BusEcch+0x328>
    267e:	62 b9       	out	0x02, r22	; 2
    2680:	a2 89       	ldd	r26, Z+18	; 0x12
    2682:	b3 89       	ldd	r27, Z+19	; 0x13
    2684:	9c 91       	ld	r25, X
    2686:	87 8d       	ldd	r24, Z+31	; 0x1f
    2688:	80 95       	com	r24
    268a:	89 23       	and	r24, r25
    268c:	8c 93       	st	X, r24
    268e:	a2 89       	ldd	r26, Z+18	; 0x12
    2690:	b3 89       	ldd	r27, Z+19	; 0x13
    2692:	9c 91       	ld	r25, X
    2694:	87 8d       	ldd	r24, Z+31	; 0x1f
    2696:	89 2b       	or	r24, r25
    2698:	8c 93       	st	X, r24
    269a:	42 b9       	out	0x02, r20	; 2
    269c:	02 c0       	rjmp	.+4      	; 0x26a2 <_ZN4UTFT12LCD_Writ_BusEcch+0x208>
    269e:	62 b9       	out	0x02, r22	; 2
    26a0:	48 b9       	out	0x08, r20	; 8
    26a2:	a2 89       	ldd	r26, Z+18	; 0x12
    26a4:	b3 89       	ldd	r27, Z+19	; 0x13
    26a6:	9c 91       	ld	r25, X
    26a8:	87 8d       	ldd	r24, Z+31	; 0x1f
    26aa:	80 95       	com	r24
    26ac:	89 23       	and	r24, r25
    26ae:	8c 93       	st	X, r24
    26b0:	a2 89       	ldd	r26, Z+18	; 0x12
    26b2:	b3 89       	ldd	r27, Z+19	; 0x13
    26b4:	9c 91       	ld	r25, X
    26b6:	87 8d       	ldd	r24, Z+31	; 0x1f
    26b8:	84 c0       	rjmp	.+264    	; 0x27c2 <_ZN4UTFT12LCD_Writ_BusEcch+0x328>
    26ba:	a5 98       	cbi	0x14, 5	; 20
    26bc:	94 b3       	in	r25, 0x14	; 20
    26be:	86 2f       	mov	r24, r22
    26c0:	80 71       	andi	r24, 0x10	; 16
    26c2:	88 0f       	add	r24, r24
    26c4:	89 2b       	or	r24, r25
    26c6:	84 bb       	out	0x14, r24	; 20
    26c8:	80 91 02 01 	lds	r24, 0x0102	; 0x800102 <__TEXT_REGION_LENGTH__+0x700102>
    26cc:	87 7e       	andi	r24, 0xE7	; 231
    26ce:	80 93 02 01 	sts	0x0102, r24	; 0x800102 <__TEXT_REGION_LENGTH__+0x700102>
    26d2:	90 91 02 01 	lds	r25, 0x0102	; 0x800102 <__TEXT_REGION_LENGTH__+0x700102>
    26d6:	86 2f       	mov	r24, r22
    26d8:	80 7c       	andi	r24, 0xC0	; 192
    26da:	86 95       	lsr	r24
    26dc:	86 95       	lsr	r24
    26de:	86 95       	lsr	r24
    26e0:	89 2b       	or	r24, r25
    26e2:	80 93 02 01 	sts	0x0102, r24	; 0x800102 <__TEXT_REGION_LENGTH__+0x700102>
    26e6:	8e b1       	in	r24, 0x0e	; 14
    26e8:	84 7c       	andi	r24, 0xC4	; 196
    26ea:	8e b9       	out	0x0e, r24	; 14
    26ec:	9e b1       	in	r25, 0x0e	; 14
    26ee:	26 2f       	mov	r18, r22
    26f0:	2c 70       	andi	r18, 0x0C	; 12
    26f2:	22 0f       	add	r18, r18
    26f4:	22 0f       	add	r18, r18
    26f6:	86 2f       	mov	r24, r22
    26f8:	83 70       	andi	r24, 0x03	; 3
    26fa:	28 0f       	add	r18, r24
    26fc:	86 2f       	mov	r24, r22
    26fe:	80 72       	andi	r24, 0x20	; 32
    2700:	68 2f       	mov	r22, r24
    2702:	70 e0       	ldi	r23, 0x00	; 0
    2704:	75 95       	asr	r23
    2706:	67 95       	ror	r22
    2708:	75 95       	asr	r23
    270a:	67 95       	ror	r22
    270c:	62 0f       	add	r22, r18
    270e:	69 2b       	or	r22, r25
    2710:	6e b9       	out	0x0e, r22	; 14
    2712:	a4 8d       	ldd	r26, Z+28	; 0x1c
    2714:	b5 8d       	ldd	r27, Z+29	; 0x1d
    2716:	9c 91       	ld	r25, X
    2718:	84 a1       	ldd	r24, Z+36	; 0x24
    271a:	80 95       	com	r24
    271c:	89 23       	and	r24, r25
    271e:	8c 93       	st	X, r24
    2720:	a4 8d       	ldd	r26, Z+28	; 0x1c
    2722:	b5 8d       	ldd	r27, Z+29	; 0x1d
    2724:	9c 91       	ld	r25, X
    2726:	84 a1       	ldd	r24, Z+36	; 0x24
    2728:	89 2b       	or	r24, r25
    272a:	8c 93       	st	X, r24
    272c:	a4 8d       	ldd	r26, Z+28	; 0x1c
    272e:	b5 8d       	ldd	r27, Z+29	; 0x1d
    2730:	9c 91       	ld	r25, X
    2732:	84 a1       	ldd	r24, Z+36	; 0x24
    2734:	80 95       	com	r24
    2736:	89 23       	and	r24, r25
    2738:	8c 93       	st	X, r24
    273a:	a4 89       	ldd	r26, Z+20	; 0x14
    273c:	b5 89       	ldd	r27, Z+21	; 0x15
    273e:	9c 91       	ld	r25, X
    2740:	80 a1       	ldd	r24, Z+32	; 0x20
    2742:	80 95       	com	r24
    2744:	89 23       	and	r24, r25
    2746:	8c 93       	st	X, r24
    2748:	a5 98       	cbi	0x14, 5	; 20
    274a:	94 b3       	in	r25, 0x14	; 20
    274c:	84 2f       	mov	r24, r20
    274e:	80 71       	andi	r24, 0x10	; 16
    2750:	88 0f       	add	r24, r24
    2752:	89 2b       	or	r24, r25
    2754:	84 bb       	out	0x14, r24	; 20
    2756:	80 91 02 01 	lds	r24, 0x0102	; 0x800102 <__TEXT_REGION_LENGTH__+0x700102>
    275a:	87 7e       	andi	r24, 0xE7	; 231
    275c:	80 93 02 01 	sts	0x0102, r24	; 0x800102 <__TEXT_REGION_LENGTH__+0x700102>
    2760:	90 91 02 01 	lds	r25, 0x0102	; 0x800102 <__TEXT_REGION_LENGTH__+0x700102>
    2764:	84 2f       	mov	r24, r20
    2766:	80 7c       	andi	r24, 0xC0	; 192
    2768:	86 95       	lsr	r24
    276a:	86 95       	lsr	r24
    276c:	86 95       	lsr	r24
    276e:	89 2b       	or	r24, r25
    2770:	80 93 02 01 	sts	0x0102, r24	; 0x800102 <__TEXT_REGION_LENGTH__+0x700102>
    2774:	8e b1       	in	r24, 0x0e	; 14
    2776:	84 7c       	andi	r24, 0xC4	; 196
    2778:	8e b9       	out	0x0e, r24	; 14
    277a:	9e b1       	in	r25, 0x0e	; 14
    277c:	24 2f       	mov	r18, r20
    277e:	2c 70       	andi	r18, 0x0C	; 12
    2780:	22 0f       	add	r18, r18
    2782:	22 0f       	add	r18, r18
    2784:	84 2f       	mov	r24, r20
    2786:	83 70       	andi	r24, 0x03	; 3
    2788:	28 0f       	add	r18, r24
    278a:	84 2f       	mov	r24, r20
    278c:	80 72       	andi	r24, 0x20	; 32
    278e:	48 2f       	mov	r20, r24
    2790:	50 e0       	ldi	r21, 0x00	; 0
    2792:	55 95       	asr	r21
    2794:	47 95       	ror	r20
    2796:	55 95       	asr	r21
    2798:	47 95       	ror	r20
    279a:	42 0f       	add	r20, r18
    279c:	49 2b       	or	r20, r25
    279e:	4e b9       	out	0x0e, r20	; 14
    27a0:	a2 89       	ldd	r26, Z+18	; 0x12
    27a2:	b3 89       	ldd	r27, Z+19	; 0x13
    27a4:	9c 91       	ld	r25, X
    27a6:	87 8d       	ldd	r24, Z+31	; 0x1f
    27a8:	80 95       	com	r24
    27aa:	89 23       	and	r24, r25
    27ac:	8c 93       	st	X, r24
    27ae:	a2 89       	ldd	r26, Z+18	; 0x12
    27b0:	b3 89       	ldd	r27, Z+19	; 0x13
    27b2:	9c 91       	ld	r25, X
    27b4:	87 8d       	ldd	r24, Z+31	; 0x1f
    27b6:	89 2b       	or	r24, r25
    27b8:	8c 93       	st	X, r24
    27ba:	a4 89       	ldd	r26, Z+20	; 0x14
    27bc:	b5 89       	ldd	r27, Z+21	; 0x15
    27be:	9c 91       	ld	r25, X
    27c0:	80 a1       	ldd	r24, Z+32	; 0x20
    27c2:	89 2b       	or	r24, r25
    27c4:	8c 93       	st	X, r24
    27c6:	08 95       	ret

000027c8 <_ZN4UTFT24_set_direction_registersEh>:
    27c8:	61 31       	cpi	r22, 0x11	; 17
    27ca:	31 f0       	breq	.+12     	; 0x27d8 <_ZN4UTFT24_set_direction_registersEh+0x10>
    27cc:	8f ef       	ldi	r24, 0xFF	; 255
    27ce:	81 b9       	out	0x01, r24	; 1
    27d0:	60 31       	cpi	r22, 0x10	; 16
    27d2:	49 f4       	brne	.+18     	; 0x27e6 <_ZN4UTFT24_set_direction_registersEh+0x1e>
    27d4:	87 b9       	out	0x07, r24	; 7
    27d6:	08 95       	ret
    27d8:	88 e1       	ldi	r24, 0x18	; 24
    27da:	80 93 01 01 	sts	0x0101, r24	; 0x800101 <__TEXT_REGION_LENGTH__+0x700101>
    27de:	80 e2       	ldi	r24, 0x20	; 32
    27e0:	83 bb       	out	0x13, r24	; 19
    27e2:	8b e3       	ldi	r24, 0x3B	; 59
    27e4:	8d b9       	out	0x0d, r24	; 13
    27e6:	08 95       	ret

000027e8 <_ZN4UTFT13_fast_fill_16Eiil>:
    27e8:	8f 92       	push	r8
    27ea:	9f 92       	push	r9
    27ec:	af 92       	push	r10
    27ee:	bf 92       	push	r11
    27f0:	cf 92       	push	r12
    27f2:	df 92       	push	r13
    27f4:	ef 92       	push	r14
    27f6:	ff 92       	push	r15
    27f8:	0f 93       	push	r16
    27fa:	1f 93       	push	r17
    27fc:	cf 93       	push	r28
    27fe:	df 93       	push	r29
    2800:	ec 01       	movw	r28, r24
    2802:	68 01       	movw	r12, r16
    2804:	79 01       	movw	r14, r18
    2806:	62 b9       	out	0x02, r22	; 2
    2808:	48 b9       	out	0x08, r20	; 8
    280a:	c9 01       	movw	r24, r18
    280c:	b8 01       	movw	r22, r16
    280e:	20 e1       	ldi	r18, 0x10	; 16
    2810:	30 e0       	ldi	r19, 0x00	; 0
    2812:	40 e0       	ldi	r20, 0x00	; 0
    2814:	50 e0       	ldi	r21, 0x00	; 0
    2816:	0e 94 7b 38 	call	0x70f6	; 0x70f6 <__divmodsi4>
    281a:	49 01       	movw	r8, r18
    281c:	5a 01       	movw	r10, r20
    281e:	80 e0       	ldi	r24, 0x00	; 0
    2820:	90 e0       	ldi	r25, 0x00	; 0
    2822:	dc 01       	movw	r26, r24
    2824:	88 15       	cp	r24, r8
    2826:	99 05       	cpc	r25, r9
    2828:	aa 05       	cpc	r26, r10
    282a:	bb 05       	cpc	r27, r11
    282c:	0c f0       	brlt	.+2      	; 0x2830 <_ZN4UTFT13_fast_fill_16Eiil+0x48>
    282e:	d4 c0       	rjmp	.+424    	; 0x29d8 <_ZN4UTFT13_fast_fill_16Eiil+0x1f0>
    2830:	ea 89       	ldd	r30, Y+18	; 0x12
    2832:	fb 89       	ldd	r31, Y+19	; 0x13
    2834:	30 81       	ld	r19, Z
    2836:	2f 8d       	ldd	r18, Y+31	; 0x1f
    2838:	20 95       	com	r18
    283a:	23 23       	and	r18, r19
    283c:	20 83       	st	Z, r18
    283e:	ea 89       	ldd	r30, Y+18	; 0x12
    2840:	fb 89       	ldd	r31, Y+19	; 0x13
    2842:	30 81       	ld	r19, Z
    2844:	2f 8d       	ldd	r18, Y+31	; 0x1f
    2846:	23 2b       	or	r18, r19
    2848:	20 83       	st	Z, r18
    284a:	ea 89       	ldd	r30, Y+18	; 0x12
    284c:	fb 89       	ldd	r31, Y+19	; 0x13
    284e:	30 81       	ld	r19, Z
    2850:	2f 8d       	ldd	r18, Y+31	; 0x1f
    2852:	20 95       	com	r18
    2854:	23 23       	and	r18, r19
    2856:	20 83       	st	Z, r18
    2858:	ea 89       	ldd	r30, Y+18	; 0x12
    285a:	fb 89       	ldd	r31, Y+19	; 0x13
    285c:	30 81       	ld	r19, Z
    285e:	2f 8d       	ldd	r18, Y+31	; 0x1f
    2860:	23 2b       	or	r18, r19
    2862:	20 83       	st	Z, r18
    2864:	ea 89       	ldd	r30, Y+18	; 0x12
    2866:	fb 89       	ldd	r31, Y+19	; 0x13
    2868:	30 81       	ld	r19, Z
    286a:	2f 8d       	ldd	r18, Y+31	; 0x1f
    286c:	20 95       	com	r18
    286e:	23 23       	and	r18, r19
    2870:	20 83       	st	Z, r18
    2872:	ea 89       	ldd	r30, Y+18	; 0x12
    2874:	fb 89       	ldd	r31, Y+19	; 0x13
    2876:	30 81       	ld	r19, Z
    2878:	2f 8d       	ldd	r18, Y+31	; 0x1f
    287a:	23 2b       	or	r18, r19
    287c:	20 83       	st	Z, r18
    287e:	ea 89       	ldd	r30, Y+18	; 0x12
    2880:	fb 89       	ldd	r31, Y+19	; 0x13
    2882:	30 81       	ld	r19, Z
    2884:	2f 8d       	ldd	r18, Y+31	; 0x1f
    2886:	20 95       	com	r18
    2888:	23 23       	and	r18, r19
    288a:	20 83       	st	Z, r18
    288c:	ea 89       	ldd	r30, Y+18	; 0x12
    288e:	fb 89       	ldd	r31, Y+19	; 0x13
    2890:	30 81       	ld	r19, Z
    2892:	2f 8d       	ldd	r18, Y+31	; 0x1f
    2894:	23 2b       	or	r18, r19
    2896:	20 83       	st	Z, r18
    2898:	ea 89       	ldd	r30, Y+18	; 0x12
    289a:	fb 89       	ldd	r31, Y+19	; 0x13
    289c:	30 81       	ld	r19, Z
    289e:	2f 8d       	ldd	r18, Y+31	; 0x1f
    28a0:	20 95       	com	r18
    28a2:	23 23       	and	r18, r19
    28a4:	20 83       	st	Z, r18
    28a6:	ea 89       	ldd	r30, Y+18	; 0x12
    28a8:	fb 89       	ldd	r31, Y+19	; 0x13
    28aa:	30 81       	ld	r19, Z
    28ac:	2f 8d       	ldd	r18, Y+31	; 0x1f
    28ae:	23 2b       	or	r18, r19
    28b0:	20 83       	st	Z, r18
    28b2:	ea 89       	ldd	r30, Y+18	; 0x12
    28b4:	fb 89       	ldd	r31, Y+19	; 0x13
    28b6:	30 81       	ld	r19, Z
    28b8:	2f 8d       	ldd	r18, Y+31	; 0x1f
    28ba:	20 95       	com	r18
    28bc:	23 23       	and	r18, r19
    28be:	20 83       	st	Z, r18
    28c0:	ea 89       	ldd	r30, Y+18	; 0x12
    28c2:	fb 89       	ldd	r31, Y+19	; 0x13
    28c4:	30 81       	ld	r19, Z
    28c6:	2f 8d       	ldd	r18, Y+31	; 0x1f
    28c8:	23 2b       	or	r18, r19
    28ca:	20 83       	st	Z, r18
    28cc:	ea 89       	ldd	r30, Y+18	; 0x12
    28ce:	fb 89       	ldd	r31, Y+19	; 0x13
    28d0:	30 81       	ld	r19, Z
    28d2:	2f 8d       	ldd	r18, Y+31	; 0x1f
    28d4:	20 95       	com	r18
    28d6:	23 23       	and	r18, r19
    28d8:	20 83       	st	Z, r18
    28da:	ea 89       	ldd	r30, Y+18	; 0x12
    28dc:	fb 89       	ldd	r31, Y+19	; 0x13
    28de:	30 81       	ld	r19, Z
    28e0:	2f 8d       	ldd	r18, Y+31	; 0x1f
    28e2:	23 2b       	or	r18, r19
    28e4:	20 83       	st	Z, r18
    28e6:	ea 89       	ldd	r30, Y+18	; 0x12
    28e8:	fb 89       	ldd	r31, Y+19	; 0x13
    28ea:	30 81       	ld	r19, Z
    28ec:	2f 8d       	ldd	r18, Y+31	; 0x1f
    28ee:	20 95       	com	r18
    28f0:	23 23       	and	r18, r19
    28f2:	20 83       	st	Z, r18
    28f4:	ea 89       	ldd	r30, Y+18	; 0x12
    28f6:	fb 89       	ldd	r31, Y+19	; 0x13
    28f8:	30 81       	ld	r19, Z
    28fa:	2f 8d       	ldd	r18, Y+31	; 0x1f
    28fc:	23 2b       	or	r18, r19
    28fe:	20 83       	st	Z, r18
    2900:	ea 89       	ldd	r30, Y+18	; 0x12
    2902:	fb 89       	ldd	r31, Y+19	; 0x13
    2904:	30 81       	ld	r19, Z
    2906:	2f 8d       	ldd	r18, Y+31	; 0x1f
    2908:	20 95       	com	r18
    290a:	23 23       	and	r18, r19
    290c:	20 83       	st	Z, r18
    290e:	ea 89       	ldd	r30, Y+18	; 0x12
    2910:	fb 89       	ldd	r31, Y+19	; 0x13
    2912:	30 81       	ld	r19, Z
    2914:	2f 8d       	ldd	r18, Y+31	; 0x1f
    2916:	23 2b       	or	r18, r19
    2918:	20 83       	st	Z, r18
    291a:	ea 89       	ldd	r30, Y+18	; 0x12
    291c:	fb 89       	ldd	r31, Y+19	; 0x13
    291e:	30 81       	ld	r19, Z
    2920:	2f 8d       	ldd	r18, Y+31	; 0x1f
    2922:	20 95       	com	r18
    2924:	23 23       	and	r18, r19
    2926:	20 83       	st	Z, r18
    2928:	ea 89       	ldd	r30, Y+18	; 0x12
    292a:	fb 89       	ldd	r31, Y+19	; 0x13
    292c:	30 81       	ld	r19, Z
    292e:	2f 8d       	ldd	r18, Y+31	; 0x1f
    2930:	23 2b       	or	r18, r19
    2932:	20 83       	st	Z, r18
    2934:	ea 89       	ldd	r30, Y+18	; 0x12
    2936:	fb 89       	ldd	r31, Y+19	; 0x13
    2938:	30 81       	ld	r19, Z
    293a:	2f 8d       	ldd	r18, Y+31	; 0x1f
    293c:	20 95       	com	r18
    293e:	23 23       	and	r18, r19
    2940:	20 83       	st	Z, r18
    2942:	ea 89       	ldd	r30, Y+18	; 0x12
    2944:	fb 89       	ldd	r31, Y+19	; 0x13
    2946:	30 81       	ld	r19, Z
    2948:	2f 8d       	ldd	r18, Y+31	; 0x1f
    294a:	23 2b       	or	r18, r19
    294c:	20 83       	st	Z, r18
    294e:	ea 89       	ldd	r30, Y+18	; 0x12
    2950:	fb 89       	ldd	r31, Y+19	; 0x13
    2952:	30 81       	ld	r19, Z
    2954:	2f 8d       	ldd	r18, Y+31	; 0x1f
    2956:	20 95       	com	r18
    2958:	23 23       	and	r18, r19
    295a:	20 83       	st	Z, r18
    295c:	ea 89       	ldd	r30, Y+18	; 0x12
    295e:	fb 89       	ldd	r31, Y+19	; 0x13
    2960:	30 81       	ld	r19, Z
    2962:	2f 8d       	ldd	r18, Y+31	; 0x1f
    2964:	23 2b       	or	r18, r19
    2966:	20 83       	st	Z, r18
    2968:	ea 89       	ldd	r30, Y+18	; 0x12
    296a:	fb 89       	ldd	r31, Y+19	; 0x13
    296c:	30 81       	ld	r19, Z
    296e:	2f 8d       	ldd	r18, Y+31	; 0x1f
    2970:	20 95       	com	r18
    2972:	23 23       	and	r18, r19
    2974:	20 83       	st	Z, r18
    2976:	ea 89       	ldd	r30, Y+18	; 0x12
    2978:	fb 89       	ldd	r31, Y+19	; 0x13
    297a:	30 81       	ld	r19, Z
    297c:	2f 8d       	ldd	r18, Y+31	; 0x1f
    297e:	23 2b       	or	r18, r19
    2980:	20 83       	st	Z, r18
    2982:	ea 89       	ldd	r30, Y+18	; 0x12
    2984:	fb 89       	ldd	r31, Y+19	; 0x13
    2986:	30 81       	ld	r19, Z
    2988:	2f 8d       	ldd	r18, Y+31	; 0x1f
    298a:	20 95       	com	r18
    298c:	23 23       	and	r18, r19
    298e:	20 83       	st	Z, r18
    2990:	ea 89       	ldd	r30, Y+18	; 0x12
    2992:	fb 89       	ldd	r31, Y+19	; 0x13
    2994:	30 81       	ld	r19, Z
    2996:	2f 8d       	ldd	r18, Y+31	; 0x1f
    2998:	23 2b       	or	r18, r19
    299a:	20 83       	st	Z, r18
    299c:	ea 89       	ldd	r30, Y+18	; 0x12
    299e:	fb 89       	ldd	r31, Y+19	; 0x13
    29a0:	30 81       	ld	r19, Z
    29a2:	2f 8d       	ldd	r18, Y+31	; 0x1f
    29a4:	20 95       	com	r18
    29a6:	23 23       	and	r18, r19
    29a8:	20 83       	st	Z, r18
    29aa:	ea 89       	ldd	r30, Y+18	; 0x12
    29ac:	fb 89       	ldd	r31, Y+19	; 0x13
    29ae:	30 81       	ld	r19, Z
    29b0:	2f 8d       	ldd	r18, Y+31	; 0x1f
    29b2:	23 2b       	or	r18, r19
    29b4:	20 83       	st	Z, r18
    29b6:	ea 89       	ldd	r30, Y+18	; 0x12
    29b8:	fb 89       	ldd	r31, Y+19	; 0x13
    29ba:	40 81       	ld	r20, Z
    29bc:	3f 8d       	ldd	r19, Y+31	; 0x1f
    29be:	30 95       	com	r19
    29c0:	34 23       	and	r19, r20
    29c2:	30 83       	st	Z, r19
    29c4:	ea 89       	ldd	r30, Y+18	; 0x12
    29c6:	fb 89       	ldd	r31, Y+19	; 0x13
    29c8:	20 81       	ld	r18, Z
    29ca:	3f 8d       	ldd	r19, Y+31	; 0x1f
    29cc:	32 2b       	or	r19, r18
    29ce:	30 83       	st	Z, r19
    29d0:	01 96       	adiw	r24, 0x01	; 1
    29d2:	a1 1d       	adc	r26, r1
    29d4:	b1 1d       	adc	r27, r1
    29d6:	26 cf       	rjmp	.-436    	; 0x2824 <_ZN4UTFT13_fast_fill_16Eiil+0x3c>
    29d8:	d7 01       	movw	r26, r14
    29da:	c6 01       	movw	r24, r12
    29dc:	8f 70       	andi	r24, 0x0F	; 15
    29de:	99 27       	eor	r25, r25
    29e0:	aa 27       	eor	r26, r26
    29e2:	bb 27       	eor	r27, r27
    29e4:	89 2b       	or	r24, r25
    29e6:	8a 2b       	or	r24, r26
    29e8:	8b 2b       	or	r24, r27
    29ea:	19 f1       	breq	.+70     	; 0x2a32 <_ZN4UTFT13_fast_fill_16Eiil+0x24a>
    29ec:	c7 01       	movw	r24, r14
    29ee:	b6 01       	movw	r22, r12
    29f0:	20 e1       	ldi	r18, 0x10	; 16
    29f2:	30 e0       	ldi	r19, 0x00	; 0
    29f4:	40 e0       	ldi	r20, 0x00	; 0
    29f6:	50 e0       	ldi	r21, 0x00	; 0
    29f8:	0e 94 7b 38 	call	0x70f6	; 0x70f6 <__divmodsi4>
    29fc:	c1 2c       	mov	r12, r1
    29fe:	d1 2c       	mov	r13, r1
    2a00:	76 01       	movw	r14, r12
    2a02:	6c 15       	cp	r22, r12
    2a04:	7d 05       	cpc	r23, r13
    2a06:	8e 05       	cpc	r24, r14
    2a08:	9f 05       	cpc	r25, r15
    2a0a:	9c f0       	brlt	.+38     	; 0x2a32 <_ZN4UTFT13_fast_fill_16Eiil+0x24a>
    2a0c:	ea 89       	ldd	r30, Y+18	; 0x12
    2a0e:	fb 89       	ldd	r31, Y+19	; 0x13
    2a10:	30 81       	ld	r19, Z
    2a12:	2f 8d       	ldd	r18, Y+31	; 0x1f
    2a14:	20 95       	com	r18
    2a16:	23 23       	and	r18, r19
    2a18:	20 83       	st	Z, r18
    2a1a:	ea 89       	ldd	r30, Y+18	; 0x12
    2a1c:	fb 89       	ldd	r31, Y+19	; 0x13
    2a1e:	30 81       	ld	r19, Z
    2a20:	2f 8d       	ldd	r18, Y+31	; 0x1f
    2a22:	23 2b       	or	r18, r19
    2a24:	20 83       	st	Z, r18
    2a26:	2f ef       	ldi	r18, 0xFF	; 255
    2a28:	c2 1a       	sub	r12, r18
    2a2a:	d2 0a       	sbc	r13, r18
    2a2c:	e2 0a       	sbc	r14, r18
    2a2e:	f2 0a       	sbc	r15, r18
    2a30:	e8 cf       	rjmp	.-48     	; 0x2a02 <_ZN4UTFT13_fast_fill_16Eiil+0x21a>
    2a32:	df 91       	pop	r29
    2a34:	cf 91       	pop	r28
    2a36:	1f 91       	pop	r17
    2a38:	0f 91       	pop	r16
    2a3a:	ff 90       	pop	r15
    2a3c:	ef 90       	pop	r14
    2a3e:	df 90       	pop	r13
    2a40:	cf 90       	pop	r12
    2a42:	bf 90       	pop	r11
    2a44:	af 90       	pop	r10
    2a46:	9f 90       	pop	r9
    2a48:	8f 90       	pop	r8
    2a4a:	08 95       	ret

00002a4c <_ZN4UTFT12_fast_fill_8Eil>:
    2a4c:	8f 92       	push	r8
    2a4e:	9f 92       	push	r9
    2a50:	af 92       	push	r10
    2a52:	bf 92       	push	r11
    2a54:	cf 92       	push	r12
    2a56:	df 92       	push	r13
    2a58:	ef 92       	push	r14
    2a5a:	ff 92       	push	r15
    2a5c:	cf 93       	push	r28
    2a5e:	df 93       	push	r29
    2a60:	ec 01       	movw	r28, r24
    2a62:	69 01       	movw	r12, r18
    2a64:	7a 01       	movw	r14, r20
    2a66:	62 b9       	out	0x02, r22	; 2
    2a68:	ca 01       	movw	r24, r20
    2a6a:	b9 01       	movw	r22, r18
    2a6c:	20 e1       	ldi	r18, 0x10	; 16
    2a6e:	30 e0       	ldi	r19, 0x00	; 0
    2a70:	40 e0       	ldi	r20, 0x00	; 0
    2a72:	50 e0       	ldi	r21, 0x00	; 0
    2a74:	0e 94 7b 38 	call	0x70f6	; 0x70f6 <__divmodsi4>
    2a78:	49 01       	movw	r8, r18
    2a7a:	5a 01       	movw	r10, r20
    2a7c:	80 e0       	ldi	r24, 0x00	; 0
    2a7e:	90 e0       	ldi	r25, 0x00	; 0
    2a80:	dc 01       	movw	r26, r24
    2a82:	88 15       	cp	r24, r8
    2a84:	99 05       	cpc	r25, r9
    2a86:	aa 05       	cpc	r26, r10
    2a88:	bb 05       	cpc	r27, r11
    2a8a:	0c f0       	brlt	.+2      	; 0x2a8e <_ZN4UTFT12_fast_fill_8Eil+0x42>
    2a8c:	a4 c1       	rjmp	.+840    	; 0x2dd6 <_ZN4UTFT12_fast_fill_8Eil+0x38a>
    2a8e:	ea 89       	ldd	r30, Y+18	; 0x12
    2a90:	fb 89       	ldd	r31, Y+19	; 0x13
    2a92:	30 81       	ld	r19, Z
    2a94:	2f 8d       	ldd	r18, Y+31	; 0x1f
    2a96:	20 95       	com	r18
    2a98:	23 23       	and	r18, r19
    2a9a:	20 83       	st	Z, r18
    2a9c:	ea 89       	ldd	r30, Y+18	; 0x12
    2a9e:	fb 89       	ldd	r31, Y+19	; 0x13
    2aa0:	30 81       	ld	r19, Z
    2aa2:	2f 8d       	ldd	r18, Y+31	; 0x1f
    2aa4:	23 2b       	or	r18, r19
    2aa6:	20 83       	st	Z, r18
    2aa8:	ea 89       	ldd	r30, Y+18	; 0x12
    2aaa:	fb 89       	ldd	r31, Y+19	; 0x13
    2aac:	30 81       	ld	r19, Z
    2aae:	2f 8d       	ldd	r18, Y+31	; 0x1f
    2ab0:	20 95       	com	r18
    2ab2:	23 23       	and	r18, r19
    2ab4:	20 83       	st	Z, r18
    2ab6:	ea 89       	ldd	r30, Y+18	; 0x12
    2ab8:	fb 89       	ldd	r31, Y+19	; 0x13
    2aba:	30 81       	ld	r19, Z
    2abc:	2f 8d       	ldd	r18, Y+31	; 0x1f
    2abe:	23 2b       	or	r18, r19
    2ac0:	20 83       	st	Z, r18
    2ac2:	ea 89       	ldd	r30, Y+18	; 0x12
    2ac4:	fb 89       	ldd	r31, Y+19	; 0x13
    2ac6:	30 81       	ld	r19, Z
    2ac8:	2f 8d       	ldd	r18, Y+31	; 0x1f
    2aca:	20 95       	com	r18
    2acc:	23 23       	and	r18, r19
    2ace:	20 83       	st	Z, r18
    2ad0:	ea 89       	ldd	r30, Y+18	; 0x12
    2ad2:	fb 89       	ldd	r31, Y+19	; 0x13
    2ad4:	30 81       	ld	r19, Z
    2ad6:	2f 8d       	ldd	r18, Y+31	; 0x1f
    2ad8:	23 2b       	or	r18, r19
    2ada:	20 83       	st	Z, r18
    2adc:	ea 89       	ldd	r30, Y+18	; 0x12
    2ade:	fb 89       	ldd	r31, Y+19	; 0x13
    2ae0:	30 81       	ld	r19, Z
    2ae2:	2f 8d       	ldd	r18, Y+31	; 0x1f
    2ae4:	20 95       	com	r18
    2ae6:	23 23       	and	r18, r19
    2ae8:	20 83       	st	Z, r18
    2aea:	ea 89       	ldd	r30, Y+18	; 0x12
    2aec:	fb 89       	ldd	r31, Y+19	; 0x13
    2aee:	30 81       	ld	r19, Z
    2af0:	2f 8d       	ldd	r18, Y+31	; 0x1f
    2af2:	23 2b       	or	r18, r19
    2af4:	20 83       	st	Z, r18
    2af6:	ea 89       	ldd	r30, Y+18	; 0x12
    2af8:	fb 89       	ldd	r31, Y+19	; 0x13
    2afa:	30 81       	ld	r19, Z
    2afc:	2f 8d       	ldd	r18, Y+31	; 0x1f
    2afe:	20 95       	com	r18
    2b00:	23 23       	and	r18, r19
    2b02:	20 83       	st	Z, r18
    2b04:	ea 89       	ldd	r30, Y+18	; 0x12
    2b06:	fb 89       	ldd	r31, Y+19	; 0x13
    2b08:	30 81       	ld	r19, Z
    2b0a:	2f 8d       	ldd	r18, Y+31	; 0x1f
    2b0c:	23 2b       	or	r18, r19
    2b0e:	20 83       	st	Z, r18
    2b10:	ea 89       	ldd	r30, Y+18	; 0x12
    2b12:	fb 89       	ldd	r31, Y+19	; 0x13
    2b14:	30 81       	ld	r19, Z
    2b16:	2f 8d       	ldd	r18, Y+31	; 0x1f
    2b18:	20 95       	com	r18
    2b1a:	23 23       	and	r18, r19
    2b1c:	20 83       	st	Z, r18
    2b1e:	ea 89       	ldd	r30, Y+18	; 0x12
    2b20:	fb 89       	ldd	r31, Y+19	; 0x13
    2b22:	30 81       	ld	r19, Z
    2b24:	2f 8d       	ldd	r18, Y+31	; 0x1f
    2b26:	23 2b       	or	r18, r19
    2b28:	20 83       	st	Z, r18
    2b2a:	ea 89       	ldd	r30, Y+18	; 0x12
    2b2c:	fb 89       	ldd	r31, Y+19	; 0x13
    2b2e:	30 81       	ld	r19, Z
    2b30:	2f 8d       	ldd	r18, Y+31	; 0x1f
    2b32:	20 95       	com	r18
    2b34:	23 23       	and	r18, r19
    2b36:	20 83       	st	Z, r18
    2b38:	ea 89       	ldd	r30, Y+18	; 0x12
    2b3a:	fb 89       	ldd	r31, Y+19	; 0x13
    2b3c:	30 81       	ld	r19, Z
    2b3e:	2f 8d       	ldd	r18, Y+31	; 0x1f
    2b40:	23 2b       	or	r18, r19
    2b42:	20 83       	st	Z, r18
    2b44:	ea 89       	ldd	r30, Y+18	; 0x12
    2b46:	fb 89       	ldd	r31, Y+19	; 0x13
    2b48:	30 81       	ld	r19, Z
    2b4a:	2f 8d       	ldd	r18, Y+31	; 0x1f
    2b4c:	20 95       	com	r18
    2b4e:	23 23       	and	r18, r19
    2b50:	20 83       	st	Z, r18
    2b52:	ea 89       	ldd	r30, Y+18	; 0x12
    2b54:	fb 89       	ldd	r31, Y+19	; 0x13
    2b56:	30 81       	ld	r19, Z
    2b58:	2f 8d       	ldd	r18, Y+31	; 0x1f
    2b5a:	23 2b       	or	r18, r19
    2b5c:	20 83       	st	Z, r18
    2b5e:	ea 89       	ldd	r30, Y+18	; 0x12
    2b60:	fb 89       	ldd	r31, Y+19	; 0x13
    2b62:	30 81       	ld	r19, Z
    2b64:	2f 8d       	ldd	r18, Y+31	; 0x1f
    2b66:	20 95       	com	r18
    2b68:	23 23       	and	r18, r19
    2b6a:	20 83       	st	Z, r18
    2b6c:	ea 89       	ldd	r30, Y+18	; 0x12
    2b6e:	fb 89       	ldd	r31, Y+19	; 0x13
    2b70:	30 81       	ld	r19, Z
    2b72:	2f 8d       	ldd	r18, Y+31	; 0x1f
    2b74:	23 2b       	or	r18, r19
    2b76:	20 83       	st	Z, r18
    2b78:	ea 89       	ldd	r30, Y+18	; 0x12
    2b7a:	fb 89       	ldd	r31, Y+19	; 0x13
    2b7c:	30 81       	ld	r19, Z
    2b7e:	2f 8d       	ldd	r18, Y+31	; 0x1f
    2b80:	20 95       	com	r18
    2b82:	23 23       	and	r18, r19
    2b84:	20 83       	st	Z, r18
    2b86:	ea 89       	ldd	r30, Y+18	; 0x12
    2b88:	fb 89       	ldd	r31, Y+19	; 0x13
    2b8a:	30 81       	ld	r19, Z
    2b8c:	2f 8d       	ldd	r18, Y+31	; 0x1f
    2b8e:	23 2b       	or	r18, r19
    2b90:	20 83       	st	Z, r18
    2b92:	ea 89       	ldd	r30, Y+18	; 0x12
    2b94:	fb 89       	ldd	r31, Y+19	; 0x13
    2b96:	30 81       	ld	r19, Z
    2b98:	2f 8d       	ldd	r18, Y+31	; 0x1f
    2b9a:	20 95       	com	r18
    2b9c:	23 23       	and	r18, r19
    2b9e:	20 83       	st	Z, r18
    2ba0:	ea 89       	ldd	r30, Y+18	; 0x12
    2ba2:	fb 89       	ldd	r31, Y+19	; 0x13
    2ba4:	30 81       	ld	r19, Z
    2ba6:	2f 8d       	ldd	r18, Y+31	; 0x1f
    2ba8:	23 2b       	or	r18, r19
    2baa:	20 83       	st	Z, r18
    2bac:	ea 89       	ldd	r30, Y+18	; 0x12
    2bae:	fb 89       	ldd	r31, Y+19	; 0x13
    2bb0:	30 81       	ld	r19, Z
    2bb2:	2f 8d       	ldd	r18, Y+31	; 0x1f
    2bb4:	20 95       	com	r18
    2bb6:	23 23       	and	r18, r19
    2bb8:	20 83       	st	Z, r18
    2bba:	ea 89       	ldd	r30, Y+18	; 0x12
    2bbc:	fb 89       	ldd	r31, Y+19	; 0x13
    2bbe:	30 81       	ld	r19, Z
    2bc0:	2f 8d       	ldd	r18, Y+31	; 0x1f
    2bc2:	23 2b       	or	r18, r19
    2bc4:	20 83       	st	Z, r18
    2bc6:	ea 89       	ldd	r30, Y+18	; 0x12
    2bc8:	fb 89       	ldd	r31, Y+19	; 0x13
    2bca:	30 81       	ld	r19, Z
    2bcc:	2f 8d       	ldd	r18, Y+31	; 0x1f
    2bce:	20 95       	com	r18
    2bd0:	23 23       	and	r18, r19
    2bd2:	20 83       	st	Z, r18
    2bd4:	ea 89       	ldd	r30, Y+18	; 0x12
    2bd6:	fb 89       	ldd	r31, Y+19	; 0x13
    2bd8:	30 81       	ld	r19, Z
    2bda:	2f 8d       	ldd	r18, Y+31	; 0x1f
    2bdc:	23 2b       	or	r18, r19
    2bde:	20 83       	st	Z, r18
    2be0:	ea 89       	ldd	r30, Y+18	; 0x12
    2be2:	fb 89       	ldd	r31, Y+19	; 0x13
    2be4:	30 81       	ld	r19, Z
    2be6:	2f 8d       	ldd	r18, Y+31	; 0x1f
    2be8:	20 95       	com	r18
    2bea:	23 23       	and	r18, r19
    2bec:	20 83       	st	Z, r18
    2bee:	ea 89       	ldd	r30, Y+18	; 0x12
    2bf0:	fb 89       	ldd	r31, Y+19	; 0x13
    2bf2:	30 81       	ld	r19, Z
    2bf4:	2f 8d       	ldd	r18, Y+31	; 0x1f
    2bf6:	23 2b       	or	r18, r19
    2bf8:	20 83       	st	Z, r18
    2bfa:	ea 89       	ldd	r30, Y+18	; 0x12
    2bfc:	fb 89       	ldd	r31, Y+19	; 0x13
    2bfe:	30 81       	ld	r19, Z
    2c00:	2f 8d       	ldd	r18, Y+31	; 0x1f
    2c02:	20 95       	com	r18
    2c04:	23 23       	and	r18, r19
    2c06:	20 83       	st	Z, r18
    2c08:	ea 89       	ldd	r30, Y+18	; 0x12
    2c0a:	fb 89       	ldd	r31, Y+19	; 0x13
    2c0c:	30 81       	ld	r19, Z
    2c0e:	2f 8d       	ldd	r18, Y+31	; 0x1f
    2c10:	23 2b       	or	r18, r19
    2c12:	20 83       	st	Z, r18
    2c14:	ea 89       	ldd	r30, Y+18	; 0x12
    2c16:	fb 89       	ldd	r31, Y+19	; 0x13
    2c18:	30 81       	ld	r19, Z
    2c1a:	2f 8d       	ldd	r18, Y+31	; 0x1f
    2c1c:	20 95       	com	r18
    2c1e:	23 23       	and	r18, r19
    2c20:	20 83       	st	Z, r18
    2c22:	ea 89       	ldd	r30, Y+18	; 0x12
    2c24:	fb 89       	ldd	r31, Y+19	; 0x13
    2c26:	30 81       	ld	r19, Z
    2c28:	2f 8d       	ldd	r18, Y+31	; 0x1f
    2c2a:	23 2b       	or	r18, r19
    2c2c:	20 83       	st	Z, r18
    2c2e:	ea 89       	ldd	r30, Y+18	; 0x12
    2c30:	fb 89       	ldd	r31, Y+19	; 0x13
    2c32:	30 81       	ld	r19, Z
    2c34:	2f 8d       	ldd	r18, Y+31	; 0x1f
    2c36:	20 95       	com	r18
    2c38:	23 23       	and	r18, r19
    2c3a:	20 83       	st	Z, r18
    2c3c:	ea 89       	ldd	r30, Y+18	; 0x12
    2c3e:	fb 89       	ldd	r31, Y+19	; 0x13
    2c40:	30 81       	ld	r19, Z
    2c42:	2f 8d       	ldd	r18, Y+31	; 0x1f
    2c44:	23 2b       	or	r18, r19
    2c46:	20 83       	st	Z, r18
    2c48:	ea 89       	ldd	r30, Y+18	; 0x12
    2c4a:	fb 89       	ldd	r31, Y+19	; 0x13
    2c4c:	30 81       	ld	r19, Z
    2c4e:	2f 8d       	ldd	r18, Y+31	; 0x1f
    2c50:	20 95       	com	r18
    2c52:	23 23       	and	r18, r19
    2c54:	20 83       	st	Z, r18
    2c56:	ea 89       	ldd	r30, Y+18	; 0x12
    2c58:	fb 89       	ldd	r31, Y+19	; 0x13
    2c5a:	30 81       	ld	r19, Z
    2c5c:	2f 8d       	ldd	r18, Y+31	; 0x1f
    2c5e:	23 2b       	or	r18, r19
    2c60:	20 83       	st	Z, r18
    2c62:	ea 89       	ldd	r30, Y+18	; 0x12
    2c64:	fb 89       	ldd	r31, Y+19	; 0x13
    2c66:	30 81       	ld	r19, Z
    2c68:	2f 8d       	ldd	r18, Y+31	; 0x1f
    2c6a:	20 95       	com	r18
    2c6c:	23 23       	and	r18, r19
    2c6e:	20 83       	st	Z, r18
    2c70:	ea 89       	ldd	r30, Y+18	; 0x12
    2c72:	fb 89       	ldd	r31, Y+19	; 0x13
    2c74:	30 81       	ld	r19, Z
    2c76:	2f 8d       	ldd	r18, Y+31	; 0x1f
    2c78:	23 2b       	or	r18, r19
    2c7a:	20 83       	st	Z, r18
    2c7c:	ea 89       	ldd	r30, Y+18	; 0x12
    2c7e:	fb 89       	ldd	r31, Y+19	; 0x13
    2c80:	30 81       	ld	r19, Z
    2c82:	2f 8d       	ldd	r18, Y+31	; 0x1f
    2c84:	20 95       	com	r18
    2c86:	23 23       	and	r18, r19
    2c88:	20 83       	st	Z, r18
    2c8a:	ea 89       	ldd	r30, Y+18	; 0x12
    2c8c:	fb 89       	ldd	r31, Y+19	; 0x13
    2c8e:	30 81       	ld	r19, Z
    2c90:	2f 8d       	ldd	r18, Y+31	; 0x1f
    2c92:	23 2b       	or	r18, r19
    2c94:	20 83       	st	Z, r18
    2c96:	ea 89       	ldd	r30, Y+18	; 0x12
    2c98:	fb 89       	ldd	r31, Y+19	; 0x13
    2c9a:	30 81       	ld	r19, Z
    2c9c:	2f 8d       	ldd	r18, Y+31	; 0x1f
    2c9e:	20 95       	com	r18
    2ca0:	23 23       	and	r18, r19
    2ca2:	20 83       	st	Z, r18
    2ca4:	ea 89       	ldd	r30, Y+18	; 0x12
    2ca6:	fb 89       	ldd	r31, Y+19	; 0x13
    2ca8:	30 81       	ld	r19, Z
    2caa:	2f 8d       	ldd	r18, Y+31	; 0x1f
    2cac:	23 2b       	or	r18, r19
    2cae:	20 83       	st	Z, r18
    2cb0:	ea 89       	ldd	r30, Y+18	; 0x12
    2cb2:	fb 89       	ldd	r31, Y+19	; 0x13
    2cb4:	30 81       	ld	r19, Z
    2cb6:	2f 8d       	ldd	r18, Y+31	; 0x1f
    2cb8:	20 95       	com	r18
    2cba:	23 23       	and	r18, r19
    2cbc:	20 83       	st	Z, r18
    2cbe:	ea 89       	ldd	r30, Y+18	; 0x12
    2cc0:	fb 89       	ldd	r31, Y+19	; 0x13
    2cc2:	30 81       	ld	r19, Z
    2cc4:	2f 8d       	ldd	r18, Y+31	; 0x1f
    2cc6:	23 2b       	or	r18, r19
    2cc8:	20 83       	st	Z, r18
    2cca:	ea 89       	ldd	r30, Y+18	; 0x12
    2ccc:	fb 89       	ldd	r31, Y+19	; 0x13
    2cce:	30 81       	ld	r19, Z
    2cd0:	2f 8d       	ldd	r18, Y+31	; 0x1f
    2cd2:	20 95       	com	r18
    2cd4:	23 23       	and	r18, r19
    2cd6:	20 83       	st	Z, r18
    2cd8:	ea 89       	ldd	r30, Y+18	; 0x12
    2cda:	fb 89       	ldd	r31, Y+19	; 0x13
    2cdc:	30 81       	ld	r19, Z
    2cde:	2f 8d       	ldd	r18, Y+31	; 0x1f
    2ce0:	23 2b       	or	r18, r19
    2ce2:	20 83       	st	Z, r18
    2ce4:	ea 89       	ldd	r30, Y+18	; 0x12
    2ce6:	fb 89       	ldd	r31, Y+19	; 0x13
    2ce8:	30 81       	ld	r19, Z
    2cea:	2f 8d       	ldd	r18, Y+31	; 0x1f
    2cec:	20 95       	com	r18
    2cee:	23 23       	and	r18, r19
    2cf0:	20 83       	st	Z, r18
    2cf2:	ea 89       	ldd	r30, Y+18	; 0x12
    2cf4:	fb 89       	ldd	r31, Y+19	; 0x13
    2cf6:	30 81       	ld	r19, Z
    2cf8:	2f 8d       	ldd	r18, Y+31	; 0x1f
    2cfa:	23 2b       	or	r18, r19
    2cfc:	20 83       	st	Z, r18
    2cfe:	ea 89       	ldd	r30, Y+18	; 0x12
    2d00:	fb 89       	ldd	r31, Y+19	; 0x13
    2d02:	30 81       	ld	r19, Z
    2d04:	2f 8d       	ldd	r18, Y+31	; 0x1f
    2d06:	20 95       	com	r18
    2d08:	23 23       	and	r18, r19
    2d0a:	20 83       	st	Z, r18
    2d0c:	ea 89       	ldd	r30, Y+18	; 0x12
    2d0e:	fb 89       	ldd	r31, Y+19	; 0x13
    2d10:	30 81       	ld	r19, Z
    2d12:	2f 8d       	ldd	r18, Y+31	; 0x1f
    2d14:	23 2b       	or	r18, r19
    2d16:	20 83       	st	Z, r18
    2d18:	ea 89       	ldd	r30, Y+18	; 0x12
    2d1a:	fb 89       	ldd	r31, Y+19	; 0x13
    2d1c:	30 81       	ld	r19, Z
    2d1e:	2f 8d       	ldd	r18, Y+31	; 0x1f
    2d20:	20 95       	com	r18
    2d22:	23 23       	and	r18, r19
    2d24:	20 83       	st	Z, r18
    2d26:	ea 89       	ldd	r30, Y+18	; 0x12
    2d28:	fb 89       	ldd	r31, Y+19	; 0x13
    2d2a:	30 81       	ld	r19, Z
    2d2c:	2f 8d       	ldd	r18, Y+31	; 0x1f
    2d2e:	23 2b       	or	r18, r19
    2d30:	20 83       	st	Z, r18
    2d32:	ea 89       	ldd	r30, Y+18	; 0x12
    2d34:	fb 89       	ldd	r31, Y+19	; 0x13
    2d36:	30 81       	ld	r19, Z
    2d38:	2f 8d       	ldd	r18, Y+31	; 0x1f
    2d3a:	20 95       	com	r18
    2d3c:	23 23       	and	r18, r19
    2d3e:	20 83       	st	Z, r18
    2d40:	ea 89       	ldd	r30, Y+18	; 0x12
    2d42:	fb 89       	ldd	r31, Y+19	; 0x13
    2d44:	30 81       	ld	r19, Z
    2d46:	2f 8d       	ldd	r18, Y+31	; 0x1f
    2d48:	23 2b       	or	r18, r19
    2d4a:	20 83       	st	Z, r18
    2d4c:	ea 89       	ldd	r30, Y+18	; 0x12
    2d4e:	fb 89       	ldd	r31, Y+19	; 0x13
    2d50:	30 81       	ld	r19, Z
    2d52:	2f 8d       	ldd	r18, Y+31	; 0x1f
    2d54:	20 95       	com	r18
    2d56:	23 23       	and	r18, r19
    2d58:	20 83       	st	Z, r18
    2d5a:	ea 89       	ldd	r30, Y+18	; 0x12
    2d5c:	fb 89       	ldd	r31, Y+19	; 0x13
    2d5e:	30 81       	ld	r19, Z
    2d60:	2f 8d       	ldd	r18, Y+31	; 0x1f
    2d62:	23 2b       	or	r18, r19
    2d64:	20 83       	st	Z, r18
    2d66:	ea 89       	ldd	r30, Y+18	; 0x12
    2d68:	fb 89       	ldd	r31, Y+19	; 0x13
    2d6a:	30 81       	ld	r19, Z
    2d6c:	2f 8d       	ldd	r18, Y+31	; 0x1f
    2d6e:	20 95       	com	r18
    2d70:	23 23       	and	r18, r19
    2d72:	20 83       	st	Z, r18
    2d74:	ea 89       	ldd	r30, Y+18	; 0x12
    2d76:	fb 89       	ldd	r31, Y+19	; 0x13
    2d78:	30 81       	ld	r19, Z
    2d7a:	2f 8d       	ldd	r18, Y+31	; 0x1f
    2d7c:	23 2b       	or	r18, r19
    2d7e:	20 83       	st	Z, r18
    2d80:	ea 89       	ldd	r30, Y+18	; 0x12
    2d82:	fb 89       	ldd	r31, Y+19	; 0x13
    2d84:	30 81       	ld	r19, Z
    2d86:	2f 8d       	ldd	r18, Y+31	; 0x1f
    2d88:	20 95       	com	r18
    2d8a:	23 23       	and	r18, r19
    2d8c:	20 83       	st	Z, r18
    2d8e:	ea 89       	ldd	r30, Y+18	; 0x12
    2d90:	fb 89       	ldd	r31, Y+19	; 0x13
    2d92:	30 81       	ld	r19, Z
    2d94:	2f 8d       	ldd	r18, Y+31	; 0x1f
    2d96:	23 2b       	or	r18, r19
    2d98:	20 83       	st	Z, r18
    2d9a:	ea 89       	ldd	r30, Y+18	; 0x12
    2d9c:	fb 89       	ldd	r31, Y+19	; 0x13
    2d9e:	30 81       	ld	r19, Z
    2da0:	2f 8d       	ldd	r18, Y+31	; 0x1f
    2da2:	20 95       	com	r18
    2da4:	23 23       	and	r18, r19
    2da6:	20 83       	st	Z, r18
    2da8:	ea 89       	ldd	r30, Y+18	; 0x12
    2daa:	fb 89       	ldd	r31, Y+19	; 0x13
    2dac:	30 81       	ld	r19, Z
    2dae:	2f 8d       	ldd	r18, Y+31	; 0x1f
    2db0:	23 2b       	or	r18, r19
    2db2:	20 83       	st	Z, r18
    2db4:	ea 89       	ldd	r30, Y+18	; 0x12
    2db6:	fb 89       	ldd	r31, Y+19	; 0x13
    2db8:	40 81       	ld	r20, Z
    2dba:	3f 8d       	ldd	r19, Y+31	; 0x1f
    2dbc:	30 95       	com	r19
    2dbe:	34 23       	and	r19, r20
    2dc0:	30 83       	st	Z, r19
    2dc2:	ea 89       	ldd	r30, Y+18	; 0x12
    2dc4:	fb 89       	ldd	r31, Y+19	; 0x13
    2dc6:	20 81       	ld	r18, Z
    2dc8:	3f 8d       	ldd	r19, Y+31	; 0x1f
    2dca:	32 2b       	or	r19, r18
    2dcc:	30 83       	st	Z, r19
    2dce:	01 96       	adiw	r24, 0x01	; 1
    2dd0:	a1 1d       	adc	r26, r1
    2dd2:	b1 1d       	adc	r27, r1
    2dd4:	56 ce       	rjmp	.-852    	; 0x2a82 <_ZN4UTFT12_fast_fill_8Eil+0x36>
    2dd6:	d7 01       	movw	r26, r14
    2dd8:	c6 01       	movw	r24, r12
    2dda:	8f 70       	andi	r24, 0x0F	; 15
    2ddc:	99 27       	eor	r25, r25
    2dde:	aa 27       	eor	r26, r26
    2de0:	bb 27       	eor	r27, r27
    2de2:	89 2b       	or	r24, r25
    2de4:	8a 2b       	or	r24, r26
    2de6:	8b 2b       	or	r24, r27
    2de8:	81 f1       	breq	.+96     	; 0x2e4a <_ZN4UTFT12_fast_fill_8Eil+0x3fe>
    2dea:	c7 01       	movw	r24, r14
    2dec:	b6 01       	movw	r22, r12
    2dee:	20 e1       	ldi	r18, 0x10	; 16
    2df0:	30 e0       	ldi	r19, 0x00	; 0
    2df2:	40 e0       	ldi	r20, 0x00	; 0
    2df4:	50 e0       	ldi	r21, 0x00	; 0
    2df6:	0e 94 7b 38 	call	0x70f6	; 0x70f6 <__divmodsi4>
    2dfa:	c1 2c       	mov	r12, r1
    2dfc:	d1 2c       	mov	r13, r1
    2dfe:	76 01       	movw	r14, r12
    2e00:	6c 15       	cp	r22, r12
    2e02:	7d 05       	cpc	r23, r13
    2e04:	8e 05       	cpc	r24, r14
    2e06:	9f 05       	cpc	r25, r15
    2e08:	04 f1       	brlt	.+64     	; 0x2e4a <_ZN4UTFT12_fast_fill_8Eil+0x3fe>
    2e0a:	ea 89       	ldd	r30, Y+18	; 0x12
    2e0c:	fb 89       	ldd	r31, Y+19	; 0x13
    2e0e:	30 81       	ld	r19, Z
    2e10:	2f 8d       	ldd	r18, Y+31	; 0x1f
    2e12:	20 95       	com	r18
    2e14:	23 23       	and	r18, r19
    2e16:	20 83       	st	Z, r18
    2e18:	ea 89       	ldd	r30, Y+18	; 0x12
    2e1a:	fb 89       	ldd	r31, Y+19	; 0x13
    2e1c:	30 81       	ld	r19, Z
    2e1e:	2f 8d       	ldd	r18, Y+31	; 0x1f
    2e20:	23 2b       	or	r18, r19
    2e22:	20 83       	st	Z, r18
    2e24:	ea 89       	ldd	r30, Y+18	; 0x12
    2e26:	fb 89       	ldd	r31, Y+19	; 0x13
    2e28:	30 81       	ld	r19, Z
    2e2a:	2f 8d       	ldd	r18, Y+31	; 0x1f
    2e2c:	20 95       	com	r18
    2e2e:	23 23       	and	r18, r19
    2e30:	20 83       	st	Z, r18
    2e32:	ea 89       	ldd	r30, Y+18	; 0x12
    2e34:	fb 89       	ldd	r31, Y+19	; 0x13
    2e36:	30 81       	ld	r19, Z
    2e38:	2f 8d       	ldd	r18, Y+31	; 0x1f
    2e3a:	23 2b       	or	r18, r19
    2e3c:	20 83       	st	Z, r18
    2e3e:	2f ef       	ldi	r18, 0xFF	; 255
    2e40:	c2 1a       	sub	r12, r18
    2e42:	d2 0a       	sbc	r13, r18
    2e44:	e2 0a       	sbc	r14, r18
    2e46:	f2 0a       	sbc	r15, r18
    2e48:	db cf       	rjmp	.-74     	; 0x2e00 <_ZN4UTFT12_fast_fill_8Eil+0x3b4>
    2e4a:	df 91       	pop	r29
    2e4c:	cf 91       	pop	r28
    2e4e:	ff 90       	pop	r15
    2e50:	ef 90       	pop	r14
    2e52:	df 90       	pop	r13
    2e54:	cf 90       	pop	r12
    2e56:	bf 90       	pop	r11
    2e58:	af 90       	pop	r10
    2e5a:	9f 90       	pop	r9
    2e5c:	8f 90       	pop	r8
    2e5e:	08 95       	ret

00002e60 <_ZN4UTFTC1Ev>:
    2e60:	08 95       	ret

00002e62 <_ZN4UTFTC1Ehiiiii>:
    2e62:	4f 92       	push	r4
    2e64:	5f 92       	push	r5
    2e66:	6f 92       	push	r6
    2e68:	7f 92       	push	r7
    2e6a:	8f 92       	push	r8
    2e6c:	9f 92       	push	r9
    2e6e:	af 92       	push	r10
    2e70:	bf 92       	push	r11
    2e72:	cf 92       	push	r12
    2e74:	df 92       	push	r13
    2e76:	ef 92       	push	r14
    2e78:	ff 92       	push	r15
    2e7a:	0f 93       	push	r16
    2e7c:	1f 93       	push	r17
    2e7e:	cf 93       	push	r28
    2e80:	df 93       	push	r29
    2e82:	cd b7       	in	r28, 0x3d	; 61
    2e84:	de b7       	in	r29, 0x3e	; 62
    2e86:	c0 5a       	subi	r28, 0xA0	; 160
    2e88:	d1 09       	sbc	r29, r1
    2e8a:	0f b6       	in	r0, 0x3f	; 63
    2e8c:	f8 94       	cli
    2e8e:	de bf       	out	0x3e, r29	; 62
    2e90:	0f be       	out	0x3f, r0	; 63
    2e92:	cd bf       	out	0x3d, r28	; 61
    2e94:	70 e4       	ldi	r23, 0x40	; 64
    2e96:	e6 e1       	ldi	r30, 0x16	; 22
    2e98:	f2 e0       	ldi	r31, 0x02	; 2
    2e9a:	de 01       	movw	r26, r28
    2e9c:	af 5b       	subi	r26, 0xBF	; 191
    2e9e:	bf 4f       	sbci	r27, 0xFF	; 255
    2ea0:	01 90       	ld	r0, Z+
    2ea2:	0d 92       	st	X+, r0
    2ea4:	7a 95       	dec	r23
    2ea6:	e1 f7       	brne	.-8      	; 0x2ea0 <_ZN4UTFTC1Ehiiiii+0x3e>
    2ea8:	70 e4       	ldi	r23, 0x40	; 64
    2eaa:	e6 e5       	ldi	r30, 0x56	; 86
    2eac:	f2 e0       	ldi	r31, 0x02	; 2
    2eae:	de 01       	movw	r26, r28
    2eb0:	11 96       	adiw	r26, 0x01	; 1
    2eb2:	01 90       	ld	r0, Z+
    2eb4:	0d 92       	st	X+, r0
    2eb6:	7a 95       	dec	r23
    2eb8:	e1 f7       	brne	.-8      	; 0x2eb2 <_ZN4UTFTC1Ehiiiii+0x50>
    2eba:	70 e2       	ldi	r23, 0x20	; 32
    2ebc:	e6 e9       	ldi	r30, 0x96	; 150
    2ebe:	f2 e0       	ldi	r31, 0x02	; 2
    2ec0:	de 01       	movw	r26, r28
    2ec2:	af 57       	subi	r26, 0x7F	; 127
    2ec4:	bf 4f       	sbci	r27, 0xFF	; 255
    2ec6:	01 90       	ld	r0, Z+
    2ec8:	0d 92       	st	X+, r0
    2eca:	7a 95       	dec	r23
    2ecc:	e1 f7       	brne	.-8      	; 0x2ec6 <_ZN4UTFTC1Ehiiiii+0x64>
    2ece:	e6 2f       	mov	r30, r22
    2ed0:	f0 e0       	ldi	r31, 0x00	; 0
    2ed2:	5f 01       	movw	r10, r30
    2ed4:	aa 0c       	add	r10, r10
    2ed6:	bb 1c       	adc	r11, r11
    2ed8:	a1 e4       	ldi	r26, 0x41	; 65
    2eda:	b0 e0       	ldi	r27, 0x00	; 0
    2edc:	ac 0f       	add	r26, r28
    2ede:	bd 1f       	adc	r27, r29
    2ee0:	aa 0d       	add	r26, r10
    2ee2:	bb 1d       	adc	r27, r11
    2ee4:	0d 90       	ld	r0, X+
    2ee6:	bc 91       	ld	r27, X
    2ee8:	a0 2d       	mov	r26, r0
    2eea:	2d 01       	movw	r4, r26
    2eec:	61 2c       	mov	r6, r1
    2eee:	71 2c       	mov	r7, r1
    2ef0:	dc 01       	movw	r26, r24
    2ef2:	15 96       	adiw	r26, 0x05	; 5
    2ef4:	4d 92       	st	X+, r4
    2ef6:	5d 92       	st	X+, r5
    2ef8:	6d 92       	st	X+, r6
    2efa:	7c 92       	st	X, r7
    2efc:	18 97       	sbiw	r26, 0x08	; 8
    2efe:	a1 e0       	ldi	r26, 0x01	; 1
    2f00:	b0 e0       	ldi	r27, 0x00	; 0
    2f02:	ac 0f       	add	r26, r28
    2f04:	bd 1f       	adc	r27, r29
    2f06:	aa 0d       	add	r26, r10
    2f08:	bb 1d       	adc	r27, r11
    2f0a:	0d 90       	ld	r0, X+
    2f0c:	bc 91       	ld	r27, X
    2f0e:	a0 2d       	mov	r26, r0
    2f10:	4d 01       	movw	r8, r26
    2f12:	a1 2c       	mov	r10, r1
    2f14:	b1 2c       	mov	r11, r1
    2f16:	dc 01       	movw	r26, r24
    2f18:	19 96       	adiw	r26, 0x09	; 9
    2f1a:	8d 92       	st	X+, r8
    2f1c:	9d 92       	st	X+, r9
    2f1e:	ad 92       	st	X+, r10
    2f20:	bc 92       	st	X, r11
    2f22:	1c 97       	sbiw	r26, 0x0c	; 12
    2f24:	a1 e8       	ldi	r26, 0x81	; 129
    2f26:	b0 e0       	ldi	r27, 0x00	; 0
    2f28:	ac 0f       	add	r26, r28
    2f2a:	bd 1f       	adc	r27, r29
    2f2c:	ea 0f       	add	r30, r26
    2f2e:	fb 1f       	adc	r31, r27
    2f30:	70 81       	ld	r23, Z
    2f32:	fc 01       	movw	r30, r24
    2f34:	76 87       	std	Z+14, r23	; 0x0e
    2f36:	65 87       	std	Z+13, r22	; 0x0d
    2f38:	45 a3       	std	Z+37, r20	; 0x25
    2f3a:	26 a3       	std	Z+38, r18	; 0x26
    2f3c:	07 a3       	std	Z+39, r16	; 0x27
    2f3e:	e0 a6       	std	Z+40, r14	; 0x28
    2f40:	c1 a6       	std	Z+41, r12	; 0x29
    2f42:	74 30       	cpi	r23, 0x04	; 4
    2f44:	19 f4       	brne	.+6      	; 0x2f4c <_ZN4UTFTC1Ehiiiii+0xea>
    2f46:	61 e0       	ldi	r22, 0x01	; 1
    2f48:	66 87       	std	Z+14, r22	; 0x0e
    2f4a:	77 87       	std	Z+15, r23	; 0x0f
    2f4c:	dc 01       	movw	r26, r24
    2f4e:	1e 96       	adiw	r26, 0x0e	; 14
    2f50:	6c 91       	ld	r22, X
    2f52:	1e 97       	sbiw	r26, 0x0e	; 14
    2f54:	65 30       	cpi	r22, 0x05	; 5
    2f56:	31 f4       	brne	.+12     	; 0x2f64 <_ZN4UTFTC1Ehiiiii+0x102>
    2f58:	71 e0       	ldi	r23, 0x01	; 1
    2f5a:	1e 96       	adiw	r26, 0x0e	; 14
    2f5c:	7c 93       	st	X, r23
    2f5e:	1e 97       	sbiw	r26, 0x0e	; 14
    2f60:	1f 96       	adiw	r26, 0x0f	; 15
    2f62:	6c 93       	st	X, r22
    2f64:	fc 01       	movw	r30, r24
    2f66:	66 85       	ldd	r22, Z+14	; 0x0e
    2f68:	61 30       	cpi	r22, 0x01	; 1
    2f6a:	09 f4       	brne	.+2      	; 0x2f6e <_ZN4UTFTC1Ehiiiii+0x10c>
    2f6c:	98 c0       	rjmp	.+304    	; 0x309e <_ZN4UTFTC1Ehiiiii+0x23c>
    2f6e:	49 01       	movw	r8, r18
    2f70:	3a 01       	movw	r6, r20
    2f72:	5c 01       	movw	r10, r24
    2f74:	29 dc       	rcall	.-1966   	; 0x27c8 <_ZN4UTFT24_set_direction_registersEh>
    2f76:	f3 01       	movw	r30, r6
    2f78:	ea 58       	subi	r30, 0x8A	; 138
    2f7a:	fd 4e       	sbci	r31, 0xED	; 237
    2f7c:	e4 91       	lpm	r30, Z
    2f7e:	f0 e0       	ldi	r31, 0x00	; 0
    2f80:	ee 0f       	add	r30, r30
    2f82:	ff 1f       	adc	r31, r31
    2f84:	ea 52       	subi	r30, 0x2A	; 42
    2f86:	fd 4e       	sbci	r31, 0xED	; 237
    2f88:	25 91       	lpm	r18, Z+
    2f8a:	34 91       	lpm	r19, Z
    2f8c:	d5 01       	movw	r26, r10
    2f8e:	51 96       	adiw	r26, 0x11	; 17
    2f90:	3c 93       	st	X, r19
    2f92:	2e 93       	st	-X, r18
    2f94:	50 97       	sbiw	r26, 0x10	; 16
    2f96:	f3 01       	movw	r30, r6
    2f98:	e0 5d       	subi	r30, 0xD0	; 208
    2f9a:	fd 4e       	sbci	r31, 0xED	; 237
    2f9c:	e4 91       	lpm	r30, Z
    2f9e:	5e 96       	adiw	r26, 0x1e	; 30
    2fa0:	ec 93       	st	X, r30
    2fa2:	5e 97       	sbiw	r26, 0x1e	; 30
    2fa4:	f4 01       	movw	r30, r8
    2fa6:	ea 58       	subi	r30, 0x8A	; 138
    2fa8:	fd 4e       	sbci	r31, 0xED	; 237
    2faa:	e4 91       	lpm	r30, Z
    2fac:	f0 e0       	ldi	r31, 0x00	; 0
    2fae:	ee 0f       	add	r30, r30
    2fb0:	ff 1f       	adc	r31, r31
    2fb2:	ea 52       	subi	r30, 0x2A	; 42
    2fb4:	fd 4e       	sbci	r31, 0xED	; 237
    2fb6:	25 91       	lpm	r18, Z+
    2fb8:	34 91       	lpm	r19, Z
    2fba:	f5 01       	movw	r30, r10
    2fbc:	33 8b       	std	Z+19, r19	; 0x13
    2fbe:	22 8b       	std	Z+18, r18	; 0x12
    2fc0:	f4 01       	movw	r30, r8
    2fc2:	e0 5d       	subi	r30, 0xD0	; 208
    2fc4:	fd 4e       	sbci	r31, 0xED	; 237
    2fc6:	e4 91       	lpm	r30, Z
    2fc8:	5f 96       	adiw	r26, 0x1f	; 31
    2fca:	ec 93       	st	X, r30
    2fcc:	5f 97       	sbiw	r26, 0x1f	; 31
    2fce:	c8 01       	movw	r24, r16
    2fd0:	f8 01       	movw	r30, r16
    2fd2:	ea 58       	subi	r30, 0x8A	; 138
    2fd4:	fd 4e       	sbci	r31, 0xED	; 237
    2fd6:	e4 91       	lpm	r30, Z
    2fd8:	f0 e0       	ldi	r31, 0x00	; 0
    2fda:	ee 0f       	add	r30, r30
    2fdc:	ff 1f       	adc	r31, r31
    2fde:	ea 52       	subi	r30, 0x2A	; 42
    2fe0:	fd 4e       	sbci	r31, 0xED	; 237
    2fe2:	25 91       	lpm	r18, Z+
    2fe4:	34 91       	lpm	r19, Z
    2fe6:	f5 01       	movw	r30, r10
    2fe8:	35 8b       	std	Z+21, r19	; 0x15
    2fea:	24 8b       	std	Z+20, r18	; 0x14
    2fec:	fc 01       	movw	r30, r24
    2fee:	e0 5d       	subi	r30, 0xD0	; 208
    2ff0:	fd 4e       	sbci	r31, 0xED	; 237
    2ff2:	e4 91       	lpm	r30, Z
    2ff4:	90 96       	adiw	r26, 0x20	; 32
    2ff6:	ec 93       	st	X, r30
    2ff8:	90 97       	sbiw	r26, 0x20	; 32
    2ffa:	f7 01       	movw	r30, r14
    2ffc:	ea 58       	subi	r30, 0x8A	; 138
    2ffe:	fd 4e       	sbci	r31, 0xED	; 237
    3000:	e4 91       	lpm	r30, Z
    3002:	f0 e0       	ldi	r31, 0x00	; 0
    3004:	ee 0f       	add	r30, r30
    3006:	ff 1f       	adc	r31, r31
    3008:	ea 52       	subi	r30, 0x2A	; 42
    300a:	fd 4e       	sbci	r31, 0xED	; 237
    300c:	85 91       	lpm	r24, Z+
    300e:	94 91       	lpm	r25, Z
    3010:	f5 01       	movw	r30, r10
    3012:	97 8b       	std	Z+23, r25	; 0x17
    3014:	86 8b       	std	Z+22, r24	; 0x16
    3016:	f7 01       	movw	r30, r14
    3018:	e0 5d       	subi	r30, 0xD0	; 208
    301a:	fd 4e       	sbci	r31, 0xED	; 237
    301c:	e4 90       	lpm	r14, Z
    301e:	91 96       	adiw	r26, 0x21	; 33
    3020:	ec 92       	st	X, r14
    3022:	91 97       	sbiw	r26, 0x21	; 33
    3024:	1e 96       	adiw	r26, 0x0e	; 14
    3026:	8c 91       	ld	r24, X
    3028:	81 31       	cpi	r24, 0x11	; 17
    302a:	09 f0       	breq	.+2      	; 0x302e <_ZN4UTFTC1Ehiiiii+0x1cc>
    302c:	ad c0       	rjmp	.+346    	; 0x3188 <_ZN4UTFTC1Ehiiiii+0x326>
    302e:	f6 01       	movw	r30, r12
    3030:	ea 58       	subi	r30, 0x8A	; 138
    3032:	fd 4e       	sbci	r31, 0xED	; 237
    3034:	e4 91       	lpm	r30, Z
    3036:	f0 e0       	ldi	r31, 0x00	; 0
    3038:	ee 0f       	add	r30, r30
    303a:	ff 1f       	adc	r31, r31
    303c:	ea 52       	subi	r30, 0x2A	; 42
    303e:	fd 4e       	sbci	r31, 0xED	; 237
    3040:	a5 91       	lpm	r26, Z+
    3042:	b4 91       	lpm	r27, Z
    3044:	f5 01       	movw	r30, r10
    3046:	b5 8f       	std	Z+29, r27	; 0x1d
    3048:	a4 8f       	std	Z+28, r26	; 0x1c
    304a:	f6 01       	movw	r30, r12
    304c:	e0 5d       	subi	r30, 0xD0	; 208
    304e:	fd 4e       	sbci	r31, 0xED	; 237
    3050:	94 91       	lpm	r25, Z
    3052:	f5 01       	movw	r30, r10
    3054:	94 a3       	std	Z+36, r25	; 0x24
    3056:	8c 91       	ld	r24, X
    3058:	e9 2f       	mov	r30, r25
    305a:	e0 95       	com	r30
    305c:	e8 23       	and	r30, r24
    305e:	ec 93       	st	X, r30
    3060:	61 e0       	ldi	r22, 0x01	; 1
    3062:	88 e0       	ldi	r24, 0x08	; 8
    3064:	0e 94 3c 37 	call	0x6e78	; 0x6e78 <pinMode>
    3068:	60 e0       	ldi	r22, 0x00	; 0
    306a:	88 e0       	ldi	r24, 0x08	; 8
    306c:	c0 56       	subi	r28, 0x60	; 96
    306e:	df 4f       	sbci	r29, 0xFF	; 255
    3070:	0f b6       	in	r0, 0x3f	; 63
    3072:	f8 94       	cli
    3074:	de bf       	out	0x3e, r29	; 62
    3076:	0f be       	out	0x3f, r0	; 63
    3078:	cd bf       	out	0x3d, r28	; 61
    307a:	df 91       	pop	r29
    307c:	cf 91       	pop	r28
    307e:	1f 91       	pop	r17
    3080:	0f 91       	pop	r16
    3082:	ff 90       	pop	r15
    3084:	ef 90       	pop	r14
    3086:	df 90       	pop	r13
    3088:	cf 90       	pop	r12
    308a:	bf 90       	pop	r11
    308c:	af 90       	pop	r10
    308e:	9f 90       	pop	r9
    3090:	8f 90       	pop	r8
    3092:	7f 90       	pop	r7
    3094:	6f 90       	pop	r6
    3096:	5f 90       	pop	r5
    3098:	4f 90       	pop	r4
    309a:	0c 94 78 37 	jmp	0x6ef0	; 0x6ef0 <digitalWrite>
    309e:	ba 01       	movw	r22, r20
    30a0:	fa 01       	movw	r30, r20
    30a2:	ea 58       	subi	r30, 0x8A	; 138
    30a4:	fd 4e       	sbci	r31, 0xED	; 237
    30a6:	e4 91       	lpm	r30, Z
    30a8:	f0 e0       	ldi	r31, 0x00	; 0
    30aa:	ee 0f       	add	r30, r30
    30ac:	ff 1f       	adc	r31, r31
    30ae:	ea 52       	subi	r30, 0x2A	; 42
    30b0:	fd 4e       	sbci	r31, 0xED	; 237
    30b2:	45 91       	lpm	r20, Z+
    30b4:	54 91       	lpm	r21, Z
    30b6:	dc 01       	movw	r26, r24
    30b8:	59 96       	adiw	r26, 0x19	; 25
    30ba:	5c 93       	st	X, r21
    30bc:	4e 93       	st	-X, r20
    30be:	58 97       	sbiw	r26, 0x18	; 24
    30c0:	fb 01       	movw	r30, r22
    30c2:	e0 5d       	subi	r30, 0xD0	; 208
    30c4:	fd 4e       	sbci	r31, 0xED	; 237
    30c6:	e4 91       	lpm	r30, Z
    30c8:	92 96       	adiw	r26, 0x22	; 34
    30ca:	ec 93       	st	X, r30
    30cc:	92 97       	sbiw	r26, 0x22	; 34
    30ce:	a9 01       	movw	r20, r18
    30d0:	f9 01       	movw	r30, r18
    30d2:	ea 58       	subi	r30, 0x8A	; 138
    30d4:	fd 4e       	sbci	r31, 0xED	; 237
    30d6:	e4 91       	lpm	r30, Z
    30d8:	f0 e0       	ldi	r31, 0x00	; 0
    30da:	ee 0f       	add	r30, r30
    30dc:	ff 1f       	adc	r31, r31
    30de:	ea 52       	subi	r30, 0x2A	; 42
    30e0:	fd 4e       	sbci	r31, 0xED	; 237
    30e2:	25 91       	lpm	r18, Z+
    30e4:	34 91       	lpm	r19, Z
    30e6:	fc 01       	movw	r30, r24
    30e8:	33 8f       	std	Z+27, r19	; 0x1b
    30ea:	22 8f       	std	Z+26, r18	; 0x1a
    30ec:	fa 01       	movw	r30, r20
    30ee:	e0 5d       	subi	r30, 0xD0	; 208
    30f0:	fd 4e       	sbci	r31, 0xED	; 237
    30f2:	e4 91       	lpm	r30, Z
    30f4:	93 96       	adiw	r26, 0x23	; 35
    30f6:	ec 93       	st	X, r30
    30f8:	93 97       	sbiw	r26, 0x23	; 35
    30fa:	f8 01       	movw	r30, r16
    30fc:	ea 58       	subi	r30, 0x8A	; 138
    30fe:	fd 4e       	sbci	r31, 0xED	; 237
    3100:	e4 91       	lpm	r30, Z
    3102:	f0 e0       	ldi	r31, 0x00	; 0
    3104:	ee 0f       	add	r30, r30
    3106:	ff 1f       	adc	r31, r31
    3108:	ea 52       	subi	r30, 0x2A	; 42
    310a:	fd 4e       	sbci	r31, 0xED	; 237
    310c:	45 91       	lpm	r20, Z+
    310e:	54 91       	lpm	r21, Z
    3110:	fc 01       	movw	r30, r24
    3112:	55 8b       	std	Z+21, r21	; 0x15
    3114:	44 8b       	std	Z+20, r20	; 0x14
    3116:	f8 01       	movw	r30, r16
    3118:	e0 5d       	subi	r30, 0xD0	; 208
    311a:	fd 4e       	sbci	r31, 0xED	; 237
    311c:	e4 91       	lpm	r30, Z
    311e:	90 96       	adiw	r26, 0x20	; 32
    3120:	ec 93       	st	X, r30
    3122:	bf ef       	ldi	r27, 0xFF	; 255
    3124:	eb 16       	cp	r14, r27
    3126:	f1 04       	cpc	r15, r1
    3128:	a9 f0       	breq	.+42     	; 0x3154 <_ZN4UTFTC1Ehiiiii+0x2f2>
    312a:	f7 01       	movw	r30, r14
    312c:	ea 58       	subi	r30, 0x8A	; 138
    312e:	fd 4e       	sbci	r31, 0xED	; 237
    3130:	e4 91       	lpm	r30, Z
    3132:	f0 e0       	ldi	r31, 0x00	; 0
    3134:	ee 0f       	add	r30, r30
    3136:	ff 1f       	adc	r31, r31
    3138:	ea 52       	subi	r30, 0x2A	; 42
    313a:	fd 4e       	sbci	r31, 0xED	; 237
    313c:	25 91       	lpm	r18, Z+
    313e:	34 91       	lpm	r19, Z
    3140:	fc 01       	movw	r30, r24
    3142:	37 8b       	std	Z+23, r19	; 0x17
    3144:	26 8b       	std	Z+22, r18	; 0x16
    3146:	f7 01       	movw	r30, r14
    3148:	e0 5d       	subi	r30, 0xD0	; 208
    314a:	fd 4e       	sbci	r31, 0xED	; 237
    314c:	e4 90       	lpm	r14, Z
    314e:	dc 01       	movw	r26, r24
    3150:	91 96       	adiw	r26, 0x21	; 33
    3152:	ec 92       	st	X, r14
    3154:	fc 01       	movw	r30, r24
    3156:	27 85       	ldd	r18, Z+15	; 0x0f
    3158:	24 30       	cpi	r18, 0x04	; 4
    315a:	b1 f0       	breq	.+44     	; 0x3188 <_ZN4UTFTC1Ehiiiii+0x326>
    315c:	f6 01       	movw	r30, r12
    315e:	ea 58       	subi	r30, 0x8A	; 138
    3160:	fd 4e       	sbci	r31, 0xED	; 237
    3162:	e4 91       	lpm	r30, Z
    3164:	f0 e0       	ldi	r31, 0x00	; 0
    3166:	ee 0f       	add	r30, r30
    3168:	ff 1f       	adc	r31, r31
    316a:	ea 52       	subi	r30, 0x2A	; 42
    316c:	fd 4e       	sbci	r31, 0xED	; 237
    316e:	45 91       	lpm	r20, Z+
    3170:	54 91       	lpm	r21, Z
    3172:	dc 01       	movw	r26, r24
    3174:	51 96       	adiw	r26, 0x11	; 17
    3176:	5c 93       	st	X, r21
    3178:	4e 93       	st	-X, r20
    317a:	50 97       	sbiw	r26, 0x10	; 16
    317c:	f6 01       	movw	r30, r12
    317e:	e0 5d       	subi	r30, 0xD0	; 208
    3180:	fd 4e       	sbci	r31, 0xED	; 237
    3182:	e4 91       	lpm	r30, Z
    3184:	5e 96       	adiw	r26, 0x1e	; 30
    3186:	ec 93       	st	X, r30
    3188:	c0 56       	subi	r28, 0x60	; 96
    318a:	df 4f       	sbci	r29, 0xFF	; 255
    318c:	0f b6       	in	r0, 0x3f	; 63
    318e:	f8 94       	cli
    3190:	de bf       	out	0x3e, r29	; 62
    3192:	0f be       	out	0x3f, r0	; 63
    3194:	cd bf       	out	0x3d, r28	; 61
    3196:	df 91       	pop	r29
    3198:	cf 91       	pop	r28
    319a:	1f 91       	pop	r17
    319c:	0f 91       	pop	r16
    319e:	ff 90       	pop	r15
    31a0:	ef 90       	pop	r14
    31a2:	df 90       	pop	r13
    31a4:	cf 90       	pop	r12
    31a6:	bf 90       	pop	r11
    31a8:	af 90       	pop	r10
    31aa:	9f 90       	pop	r9
    31ac:	8f 90       	pop	r8
    31ae:	7f 90       	pop	r7
    31b0:	6f 90       	pop	r6
    31b2:	5f 90       	pop	r5
    31b4:	4f 90       	pop	r4
    31b6:	08 95       	ret

000031b8 <_ZN4UTFT13LCD_Write_COMEc>:
    31b8:	46 2f       	mov	r20, r22
    31ba:	dc 01       	movw	r26, r24
    31bc:	1e 96       	adiw	r26, 0x0e	; 14
    31be:	2c 91       	ld	r18, X
    31c0:	1e 97       	sbiw	r26, 0x0e	; 14
    31c2:	21 30       	cpi	r18, 0x01	; 1
    31c4:	71 f0       	breq	.+28     	; 0x31e2 <_ZN4UTFT13LCD_Write_COMEc+0x2a>
    31c6:	50 96       	adiw	r26, 0x10	; 16
    31c8:	ed 91       	ld	r30, X+
    31ca:	fc 91       	ld	r31, X
    31cc:	51 97       	sbiw	r26, 0x11	; 17
    31ce:	30 81       	ld	r19, Z
    31d0:	5e 96       	adiw	r26, 0x1e	; 30
    31d2:	2c 91       	ld	r18, X
    31d4:	5e 97       	sbiw	r26, 0x1e	; 30
    31d6:	20 95       	com	r18
    31d8:	23 23       	and	r18, r19
    31da:	20 83       	st	Z, r18
    31dc:	1e 96       	adiw	r26, 0x0e	; 14
    31de:	2c 91       	ld	r18, X
    31e0:	01 c0       	rjmp	.+2      	; 0x31e4 <_ZN4UTFT13LCD_Write_COMEc+0x2c>
    31e2:	21 e0       	ldi	r18, 0x01	; 1
    31e4:	60 e0       	ldi	r22, 0x00	; 0
    31e6:	59 c9       	rjmp	.-3406   	; 0x249a <_ZN4UTFT12LCD_Writ_BusEcch>

000031e8 <_ZN4UTFT14LCD_Write_DATAEcc>:
    31e8:	1f 93       	push	r17
    31ea:	cf 93       	push	r28
    31ec:	df 93       	push	r29
    31ee:	dc 01       	movw	r26, r24
    31f0:	1e 96       	adiw	r26, 0x0e	; 14
    31f2:	2c 91       	ld	r18, X
    31f4:	1e 97       	sbiw	r26, 0x0e	; 14
    31f6:	21 30       	cpi	r18, 0x01	; 1
    31f8:	69 f0       	breq	.+26     	; 0x3214 <_ZN4UTFT14LCD_Write_DATAEcc+0x2c>
    31fa:	50 96       	adiw	r26, 0x10	; 16
    31fc:	ed 91       	ld	r30, X+
    31fe:	fc 91       	ld	r31, X
    3200:	51 97       	sbiw	r26, 0x11	; 17
    3202:	30 81       	ld	r19, Z
    3204:	5e 96       	adiw	r26, 0x1e	; 30
    3206:	2c 91       	ld	r18, X
    3208:	5e 97       	sbiw	r26, 0x1e	; 30
    320a:	23 2b       	or	r18, r19
    320c:	20 83       	st	Z, r18
    320e:	1e 96       	adiw	r26, 0x0e	; 14
    3210:	2c 91       	ld	r18, X
    3212:	0a c0       	rjmp	.+20     	; 0x3228 <_ZN4UTFT14LCD_Write_DATAEcc+0x40>
    3214:	14 2f       	mov	r17, r20
    3216:	46 2f       	mov	r20, r22
    3218:	ec 01       	movw	r28, r24
    321a:	21 e0       	ldi	r18, 0x01	; 1
    321c:	61 e0       	ldi	r22, 0x01	; 1
    321e:	3d d9       	rcall	.-3462   	; 0x249a <_ZN4UTFT12LCD_Writ_BusEcch>
    3220:	2e 85       	ldd	r18, Y+14	; 0x0e
    3222:	41 2f       	mov	r20, r17
    3224:	61 e0       	ldi	r22, 0x01	; 1
    3226:	ce 01       	movw	r24, r28
    3228:	df 91       	pop	r29
    322a:	cf 91       	pop	r28
    322c:	1f 91       	pop	r17
    322e:	35 c9       	rjmp	.-3478   	; 0x249a <_ZN4UTFT12LCD_Writ_BusEcch>

00003230 <_ZN4UTFT14LCD_Write_DATAEc>:
    3230:	46 2f       	mov	r20, r22
    3232:	dc 01       	movw	r26, r24
    3234:	1e 96       	adiw	r26, 0x0e	; 14
    3236:	2c 91       	ld	r18, X
    3238:	1e 97       	sbiw	r26, 0x0e	; 14
    323a:	21 30       	cpi	r18, 0x01	; 1
    323c:	71 f0       	breq	.+28     	; 0x325a <_ZN4UTFT14LCD_Write_DATAEc+0x2a>
    323e:	50 96       	adiw	r26, 0x10	; 16
    3240:	ed 91       	ld	r30, X+
    3242:	fc 91       	ld	r31, X
    3244:	51 97       	sbiw	r26, 0x11	; 17
    3246:	30 81       	ld	r19, Z
    3248:	5e 96       	adiw	r26, 0x1e	; 30
    324a:	2c 91       	ld	r18, X
    324c:	5e 97       	sbiw	r26, 0x1e	; 30
    324e:	23 2b       	or	r18, r19
    3250:	20 83       	st	Z, r18
    3252:	1e 96       	adiw	r26, 0x0e	; 14
    3254:	2c 91       	ld	r18, X
    3256:	60 e0       	ldi	r22, 0x00	; 0
    3258:	02 c0       	rjmp	.+4      	; 0x325e <_ZN4UTFT14LCD_Write_DATAEc+0x2e>
    325a:	21 e0       	ldi	r18, 0x01	; 1
    325c:	61 e0       	ldi	r22, 0x01	; 1
    325e:	1d c9       	rjmp	.-3526   	; 0x249a <_ZN4UTFT12LCD_Writ_BusEcch>

00003260 <_ZN4UTFT18LCD_Write_COM_DATAEci>:
    3260:	0f 93       	push	r16
    3262:	1f 93       	push	r17
    3264:	cf 93       	push	r28
    3266:	df 93       	push	r29
    3268:	ec 01       	movw	r28, r24
    326a:	8a 01       	movw	r16, r20
    326c:	a5 df       	rcall	.-182    	; 0x31b8 <_ZN4UTFT13LCD_Write_COMEc>
    326e:	40 2f       	mov	r20, r16
    3270:	61 2f       	mov	r22, r17
    3272:	ce 01       	movw	r24, r28
    3274:	df 91       	pop	r29
    3276:	cf 91       	pop	r28
    3278:	1f 91       	pop	r17
    327a:	0f 91       	pop	r16
    327c:	b5 cf       	rjmp	.-150    	; 0x31e8 <_ZN4UTFT14LCD_Write_DATAEcc>

0000327e <_ZN4UTFT5setXYEjjjj>:
    327e:	af 92       	push	r10
    3280:	bf 92       	push	r11
    3282:	cf 92       	push	r12
    3284:	df 92       	push	r13
    3286:	ef 92       	push	r14
    3288:	ff 92       	push	r15
    328a:	0f 93       	push	r16
    328c:	1f 93       	push	r17
    328e:	cf 93       	push	r28
    3290:	df 93       	push	r29
    3292:	ec 01       	movw	r28, r24
    3294:	6b 01       	movw	r12, r22
    3296:	b4 2e       	mov	r11, r20
    3298:	a5 2e       	mov	r10, r21
    329a:	79 01       	movw	r14, r18
    329c:	8c 81       	ldd	r24, Y+4	; 0x04
    329e:	81 30       	cpi	r24, 0x01	; 1
    32a0:	69 f4       	brne	.+26     	; 0x32bc <_ZN4UTFT5setXYEjjjj+0x3e>
    32a2:	89 85       	ldd	r24, Y+9	; 0x09
    32a4:	9a 85       	ldd	r25, Y+10	; 0x0a
    32a6:	9c 01       	movw	r18, r24
    32a8:	26 1b       	sub	r18, r22
    32aa:	37 0b       	sbc	r19, r23
    32ac:	8e 19       	sub	r24, r14
    32ae:	9f 09       	sbc	r25, r15
    32b0:	78 01       	movw	r14, r16
    32b2:	89 01       	movw	r16, r18
    32b4:	c4 2e       	mov	r12, r20
    32b6:	d5 2e       	mov	r13, r21
    32b8:	b8 2e       	mov	r11, r24
    32ba:	a9 2e       	mov	r10, r25
    32bc:	ed 85       	ldd	r30, Y+13	; 0x0d
    32be:	8e 2f       	mov	r24, r30
    32c0:	90 e0       	ldi	r25, 0x00	; 0
    32c2:	fc 01       	movw	r30, r24
    32c4:	32 97       	sbiw	r30, 0x02	; 2
    32c6:	ee 31       	cpi	r30, 0x1E	; 30
    32c8:	f1 05       	cpc	r31, r1
    32ca:	08 f0       	brcs	.+2      	; 0x32ce <_ZN4UTFT5setXYEjjjj+0x50>
    32cc:	0e c1       	rjmp	.+540    	; 0x34ea <_ZN4UTFT5setXYEjjjj+0x26c>
    32ce:	88 27       	eor	r24, r24
    32d0:	ee 58       	subi	r30, 0x8E	; 142
    32d2:	ff 4f       	sbci	r31, 0xFF	; 255
    32d4:	8f 4f       	sbci	r24, 0xFF	; 255
    32d6:	0c 94 97 38 	jmp	0x712e	; 0x712e <__tablejump2__>
    32da:	4d 2d       	mov	r20, r13
    32dc:	50 e0       	ldi	r21, 0x00	; 0
    32de:	62 e0       	ldi	r22, 0x02	; 2
    32e0:	ce 01       	movw	r24, r28
    32e2:	be df       	rcall	.-132    	; 0x3260 <_ZN4UTFT18LCD_Write_COM_DATAEci>
    32e4:	a6 01       	movw	r20, r12
    32e6:	63 e0       	ldi	r22, 0x03	; 3
    32e8:	ce 01       	movw	r24, r28
    32ea:	ba df       	rcall	.-140    	; 0x3260 <_ZN4UTFT18LCD_Write_COM_DATAEci>
    32ec:	4f 2d       	mov	r20, r15
    32ee:	50 e0       	ldi	r21, 0x00	; 0
    32f0:	64 e0       	ldi	r22, 0x04	; 4
    32f2:	ce 01       	movw	r24, r28
    32f4:	b5 df       	rcall	.-150    	; 0x3260 <_ZN4UTFT18LCD_Write_COM_DATAEci>
    32f6:	a7 01       	movw	r20, r14
    32f8:	65 e0       	ldi	r22, 0x05	; 5
    32fa:	ce 01       	movw	r24, r28
    32fc:	b1 df       	rcall	.-158    	; 0x3260 <_ZN4UTFT18LCD_Write_COM_DATAEci>
    32fe:	4a 2d       	mov	r20, r10
    3300:	50 e0       	ldi	r21, 0x00	; 0
    3302:	66 e0       	ldi	r22, 0x06	; 6
    3304:	ce 01       	movw	r24, r28
    3306:	ac df       	rcall	.-168    	; 0x3260 <_ZN4UTFT18LCD_Write_COM_DATAEci>
    3308:	4b 2d       	mov	r20, r11
    330a:	5a 2d       	mov	r21, r10
    330c:	67 e0       	ldi	r22, 0x07	; 7
    330e:	ce 01       	movw	r24, r28
    3310:	a7 df       	rcall	.-178    	; 0x3260 <_ZN4UTFT18LCD_Write_COM_DATAEci>
    3312:	41 2f       	mov	r20, r17
    3314:	50 e0       	ldi	r21, 0x00	; 0
    3316:	52 c0       	rjmp	.+164    	; 0x33bc <_ZN4UTFT5setXYEjjjj+0x13e>
    3318:	5e 2d       	mov	r21, r14
    331a:	44 27       	eor	r20, r20
    331c:	4c 0d       	add	r20, r12
    331e:	5d 1d       	adc	r21, r13
    3320:	64 e4       	ldi	r22, 0x44	; 68
    3322:	ce 01       	movw	r24, r28
    3324:	9d df       	rcall	.-198    	; 0x3260 <_ZN4UTFT18LCD_Write_COM_DATAEci>
    3326:	4b 2d       	mov	r20, r11
    3328:	5a 2d       	mov	r21, r10
    332a:	65 e4       	ldi	r22, 0x45	; 69
    332c:	ce 01       	movw	r24, r28
    332e:	98 df       	rcall	.-208    	; 0x3260 <_ZN4UTFT18LCD_Write_COM_DATAEci>
    3330:	a8 01       	movw	r20, r16
    3332:	66 e4       	ldi	r22, 0x46	; 70
    3334:	ce 01       	movw	r24, r28
    3336:	94 df       	rcall	.-216    	; 0x3260 <_ZN4UTFT18LCD_Write_COM_DATAEci>
    3338:	a6 01       	movw	r20, r12
    333a:	6e e4       	ldi	r22, 0x4E	; 78
    333c:	ce 01       	movw	r24, r28
    333e:	90 df       	rcall	.-224    	; 0x3260 <_ZN4UTFT18LCD_Write_COM_DATAEci>
    3340:	4b 2d       	mov	r20, r11
    3342:	5a 2d       	mov	r21, r10
    3344:	6f e4       	ldi	r22, 0x4F	; 79
    3346:	ce 01       	movw	r24, r28
    3348:	8b df       	rcall	.-234    	; 0x3260 <_ZN4UTFT18LCD_Write_COM_DATAEci>
    334a:	62 e2       	ldi	r22, 0x22	; 34
    334c:	c2 c0       	rjmp	.+388    	; 0x34d2 <_ZN4UTFT5setXYEjjjj+0x254>
    334e:	a6 01       	movw	r20, r12
    3350:	60 e2       	ldi	r22, 0x20	; 32
    3352:	ce 01       	movw	r24, r28
    3354:	85 df       	rcall	.-246    	; 0x3260 <_ZN4UTFT18LCD_Write_COM_DATAEci>
    3356:	4b 2d       	mov	r20, r11
    3358:	5a 2d       	mov	r21, r10
    335a:	61 e2       	ldi	r22, 0x21	; 33
    335c:	ce 01       	movw	r24, r28
    335e:	80 df       	rcall	.-256    	; 0x3260 <_ZN4UTFT18LCD_Write_COM_DATAEci>
    3360:	a6 01       	movw	r20, r12
    3362:	60 e5       	ldi	r22, 0x50	; 80
    3364:	ce 01       	movw	r24, r28
    3366:	7c df       	rcall	.-264    	; 0x3260 <_ZN4UTFT18LCD_Write_COM_DATAEci>
    3368:	4b 2d       	mov	r20, r11
    336a:	5a 2d       	mov	r21, r10
    336c:	62 e5       	ldi	r22, 0x52	; 82
    336e:	ce 01       	movw	r24, r28
    3370:	77 df       	rcall	.-274    	; 0x3260 <_ZN4UTFT18LCD_Write_COM_DATAEci>
    3372:	a7 01       	movw	r20, r14
    3374:	61 e5       	ldi	r22, 0x51	; 81
    3376:	ce 01       	movw	r24, r28
    3378:	73 df       	rcall	.-282    	; 0x3260 <_ZN4UTFT18LCD_Write_COM_DATAEci>
    337a:	a8 01       	movw	r20, r16
    337c:	63 e5       	ldi	r22, 0x53	; 83
    337e:	e3 cf       	rjmp	.-58     	; 0x3346 <_ZN4UTFT5setXYEjjjj+0xc8>
    3380:	40 e0       	ldi	r20, 0x00	; 0
    3382:	50 e0       	ldi	r21, 0x00	; 0
    3384:	62 e0       	ldi	r22, 0x02	; 2
    3386:	ce 01       	movw	r24, r28
    3388:	6b df       	rcall	.-298    	; 0x3260 <_ZN4UTFT18LCD_Write_COM_DATAEci>
    338a:	a6 01       	movw	r20, r12
    338c:	63 e0       	ldi	r22, 0x03	; 3
    338e:	ce 01       	movw	r24, r28
    3390:	67 df       	rcall	.-306    	; 0x3260 <_ZN4UTFT18LCD_Write_COM_DATAEci>
    3392:	40 e0       	ldi	r20, 0x00	; 0
    3394:	50 e0       	ldi	r21, 0x00	; 0
    3396:	64 e0       	ldi	r22, 0x04	; 4
    3398:	ce 01       	movw	r24, r28
    339a:	62 df       	rcall	.-316    	; 0x3260 <_ZN4UTFT18LCD_Write_COM_DATAEci>
    339c:	a7 01       	movw	r20, r14
    339e:	65 e0       	ldi	r22, 0x05	; 5
    33a0:	ce 01       	movw	r24, r28
    33a2:	5e df       	rcall	.-324    	; 0x3260 <_ZN4UTFT18LCD_Write_COM_DATAEci>
    33a4:	40 e0       	ldi	r20, 0x00	; 0
    33a6:	50 e0       	ldi	r21, 0x00	; 0
    33a8:	66 e0       	ldi	r22, 0x06	; 6
    33aa:	ce 01       	movw	r24, r28
    33ac:	59 df       	rcall	.-334    	; 0x3260 <_ZN4UTFT18LCD_Write_COM_DATAEci>
    33ae:	4b 2d       	mov	r20, r11
    33b0:	5a 2d       	mov	r21, r10
    33b2:	67 e0       	ldi	r22, 0x07	; 7
    33b4:	ce 01       	movw	r24, r28
    33b6:	54 df       	rcall	.-344    	; 0x3260 <_ZN4UTFT18LCD_Write_COM_DATAEci>
    33b8:	40 e0       	ldi	r20, 0x00	; 0
    33ba:	50 e0       	ldi	r21, 0x00	; 0
    33bc:	68 e0       	ldi	r22, 0x08	; 8
    33be:	ce 01       	movw	r24, r28
    33c0:	4f df       	rcall	.-354    	; 0x3260 <_ZN4UTFT18LCD_Write_COM_DATAEci>
    33c2:	a8 01       	movw	r20, r16
    33c4:	69 e0       	ldi	r22, 0x09	; 9
    33c6:	bf cf       	rjmp	.-130    	; 0x3346 <_ZN4UTFT5setXYEjjjj+0xc8>
    33c8:	6a e2       	ldi	r22, 0x2A	; 42
    33ca:	ce 01       	movw	r24, r28
    33cc:	f5 de       	rcall	.-534    	; 0x31b8 <_ZN4UTFT13LCD_Write_COMEc>
    33ce:	6c 2d       	mov	r22, r12
    33d0:	ce 01       	movw	r24, r28
    33d2:	2e df       	rcall	.-420    	; 0x3230 <_ZN4UTFT14LCD_Write_DATAEc>
    33d4:	6e 2d       	mov	r22, r14
    33d6:	ce 01       	movw	r24, r28
    33d8:	2b df       	rcall	.-426    	; 0x3230 <_ZN4UTFT14LCD_Write_DATAEc>
    33da:	6b e2       	ldi	r22, 0x2B	; 43
    33dc:	ce 01       	movw	r24, r28
    33de:	ec de       	rcall	.-552    	; 0x31b8 <_ZN4UTFT13LCD_Write_COMEc>
    33e0:	6b 2d       	mov	r22, r11
    33e2:	71 c0       	rjmp	.+226    	; 0x34c6 <_ZN4UTFT5setXYEjjjj+0x248>
    33e4:	6a e2       	ldi	r22, 0x2A	; 42
    33e6:	ce 01       	movw	r24, r28
    33e8:	e7 de       	rcall	.-562    	; 0x31b8 <_ZN4UTFT13LCD_Write_COMEc>
    33ea:	6a 2d       	mov	r22, r10
    33ec:	ce 01       	movw	r24, r28
    33ee:	20 df       	rcall	.-448    	; 0x3230 <_ZN4UTFT14LCD_Write_DATAEc>
    33f0:	6b 2d       	mov	r22, r11
    33f2:	ce 01       	movw	r24, r28
    33f4:	1d df       	rcall	.-454    	; 0x3230 <_ZN4UTFT14LCD_Write_DATAEc>
    33f6:	61 2f       	mov	r22, r17
    33f8:	ce 01       	movw	r24, r28
    33fa:	1a df       	rcall	.-460    	; 0x3230 <_ZN4UTFT14LCD_Write_DATAEc>
    33fc:	60 2f       	mov	r22, r16
    33fe:	ce 01       	movw	r24, r28
    3400:	17 df       	rcall	.-466    	; 0x3230 <_ZN4UTFT14LCD_Write_DATAEc>
    3402:	6b e2       	ldi	r22, 0x2B	; 43
    3404:	ce 01       	movw	r24, r28
    3406:	d8 de       	rcall	.-592    	; 0x31b8 <_ZN4UTFT13LCD_Write_COMEc>
    3408:	6d 2d       	mov	r22, r13
    340a:	ce 01       	movw	r24, r28
    340c:	11 df       	rcall	.-478    	; 0x3230 <_ZN4UTFT14LCD_Write_DATAEc>
    340e:	6c 2d       	mov	r22, r12
    3410:	ce 01       	movw	r24, r28
    3412:	0e df       	rcall	.-484    	; 0x3230 <_ZN4UTFT14LCD_Write_DATAEc>
    3414:	6f 2d       	mov	r22, r15
    3416:	ce 01       	movw	r24, r28
    3418:	0b df       	rcall	.-490    	; 0x3230 <_ZN4UTFT14LCD_Write_DATAEc>
    341a:	6e 2d       	mov	r22, r14
    341c:	57 c0       	rjmp	.+174    	; 0x34cc <_ZN4UTFT5setXYEjjjj+0x24e>
    341e:	5e 2d       	mov	r21, r14
    3420:	44 27       	eor	r20, r20
    3422:	4c 29       	or	r20, r12
    3424:	5d 29       	or	r21, r13
    3426:	66 e4       	ldi	r22, 0x46	; 70
    3428:	ce 01       	movw	r24, r28
    342a:	1a df       	rcall	.-460    	; 0x3260 <_ZN4UTFT18LCD_Write_COM_DATAEci>
    342c:	a8 01       	movw	r20, r16
    342e:	67 e4       	ldi	r22, 0x47	; 71
    3430:	ce 01       	movw	r24, r28
    3432:	16 df       	rcall	.-468    	; 0x3260 <_ZN4UTFT18LCD_Write_COM_DATAEci>
    3434:	4b 2d       	mov	r20, r11
    3436:	5a 2d       	mov	r21, r10
    3438:	68 e4       	ldi	r22, 0x48	; 72
    343a:	0f c0       	rjmp	.+30     	; 0x345a <_ZN4UTFT5setXYEjjjj+0x1dc>
    343c:	a7 01       	movw	r20, r14
    343e:	66 e3       	ldi	r22, 0x36	; 54
    3440:	ce 01       	movw	r24, r28
    3442:	0e df       	rcall	.-484    	; 0x3260 <_ZN4UTFT18LCD_Write_COM_DATAEci>
    3444:	a6 01       	movw	r20, r12
    3446:	67 e3       	ldi	r22, 0x37	; 55
    3448:	ce 01       	movw	r24, r28
    344a:	0a df       	rcall	.-492    	; 0x3260 <_ZN4UTFT18LCD_Write_COM_DATAEci>
    344c:	a8 01       	movw	r20, r16
    344e:	68 e3       	ldi	r22, 0x38	; 56
    3450:	ce 01       	movw	r24, r28
    3452:	06 df       	rcall	.-500    	; 0x3260 <_ZN4UTFT18LCD_Write_COM_DATAEci>
    3454:	4b 2d       	mov	r20, r11
    3456:	5a 2d       	mov	r21, r10
    3458:	69 e3       	ldi	r22, 0x39	; 57
    345a:	ce 01       	movw	r24, r28
    345c:	01 df       	rcall	.-510    	; 0x3260 <_ZN4UTFT18LCD_Write_COM_DATAEci>
    345e:	a6 01       	movw	r20, r12
    3460:	60 e2       	ldi	r22, 0x20	; 32
    3462:	ce 01       	movw	r24, r28
    3464:	fd de       	rcall	.-518    	; 0x3260 <_ZN4UTFT18LCD_Write_COM_DATAEci>
    3466:	4b 2d       	mov	r20, r11
    3468:	5a 2d       	mov	r21, r10
    346a:	61 e2       	ldi	r22, 0x21	; 33
    346c:	6c cf       	rjmp	.-296    	; 0x3346 <_ZN4UTFT5setXYEjjjj+0xc8>
    346e:	4b 2d       	mov	r20, r11
    3470:	5a 2d       	mov	r21, r10
    3472:	62 e0       	ldi	r22, 0x02	; 2
    3474:	ce 01       	movw	r24, r28
    3476:	f4 de       	rcall	.-536    	; 0x3260 <_ZN4UTFT18LCD_Write_COM_DATAEci>
    3478:	a6 01       	movw	r20, r12
    347a:	63 e0       	ldi	r22, 0x03	; 3
    347c:	ce 01       	movw	r24, r28
    347e:	f0 de       	rcall	.-544    	; 0x3260 <_ZN4UTFT18LCD_Write_COM_DATAEci>
    3480:	a8 01       	movw	r20, r16
    3482:	66 e0       	ldi	r22, 0x06	; 6
    3484:	ce 01       	movw	r24, r28
    3486:	ec de       	rcall	.-552    	; 0x3260 <_ZN4UTFT18LCD_Write_COM_DATAEci>
    3488:	a7 01       	movw	r20, r14
    348a:	67 e0       	ldi	r22, 0x07	; 7
    348c:	ce 01       	movw	r24, r28
    348e:	e8 de       	rcall	.-560    	; 0x3260 <_ZN4UTFT18LCD_Write_COM_DATAEci>
    3490:	6f e0       	ldi	r22, 0x0F	; 15
    3492:	1f c0       	rjmp	.+62     	; 0x34d2 <_ZN4UTFT5setXYEjjjj+0x254>
    3494:	6a e2       	ldi	r22, 0x2A	; 42
    3496:	ce 01       	movw	r24, r28
    3498:	8f de       	rcall	.-738    	; 0x31b8 <_ZN4UTFT13LCD_Write_COMEc>
    349a:	6d 2d       	mov	r22, r13
    349c:	ce 01       	movw	r24, r28
    349e:	c8 de       	rcall	.-624    	; 0x3230 <_ZN4UTFT14LCD_Write_DATAEc>
    34a0:	6c 2d       	mov	r22, r12
    34a2:	ce 01       	movw	r24, r28
    34a4:	c5 de       	rcall	.-630    	; 0x3230 <_ZN4UTFT14LCD_Write_DATAEc>
    34a6:	6f 2d       	mov	r22, r15
    34a8:	ce 01       	movw	r24, r28
    34aa:	c2 de       	rcall	.-636    	; 0x3230 <_ZN4UTFT14LCD_Write_DATAEc>
    34ac:	6e 2d       	mov	r22, r14
    34ae:	ce 01       	movw	r24, r28
    34b0:	bf de       	rcall	.-642    	; 0x3230 <_ZN4UTFT14LCD_Write_DATAEc>
    34b2:	6b e2       	ldi	r22, 0x2B	; 43
    34b4:	ce 01       	movw	r24, r28
    34b6:	80 de       	rcall	.-768    	; 0x31b8 <_ZN4UTFT13LCD_Write_COMEc>
    34b8:	6a 2d       	mov	r22, r10
    34ba:	ce 01       	movw	r24, r28
    34bc:	b9 de       	rcall	.-654    	; 0x3230 <_ZN4UTFT14LCD_Write_DATAEc>
    34be:	6b 2d       	mov	r22, r11
    34c0:	ce 01       	movw	r24, r28
    34c2:	b6 de       	rcall	.-660    	; 0x3230 <_ZN4UTFT14LCD_Write_DATAEc>
    34c4:	61 2f       	mov	r22, r17
    34c6:	ce 01       	movw	r24, r28
    34c8:	b3 de       	rcall	.-666    	; 0x3230 <_ZN4UTFT14LCD_Write_DATAEc>
    34ca:	60 2f       	mov	r22, r16
    34cc:	ce 01       	movw	r24, r28
    34ce:	b0 de       	rcall	.-672    	; 0x3230 <_ZN4UTFT14LCD_Write_DATAEc>
    34d0:	6c e2       	ldi	r22, 0x2C	; 44
    34d2:	ce 01       	movw	r24, r28
    34d4:	df 91       	pop	r29
    34d6:	cf 91       	pop	r28
    34d8:	1f 91       	pop	r17
    34da:	0f 91       	pop	r16
    34dc:	ff 90       	pop	r15
    34de:	ef 90       	pop	r14
    34e0:	df 90       	pop	r13
    34e2:	cf 90       	pop	r12
    34e4:	bf 90       	pop	r11
    34e6:	af 90       	pop	r10
    34e8:	67 ce       	rjmp	.-818    	; 0x31b8 <_ZN4UTFT13LCD_Write_COMEc>
    34ea:	df 91       	pop	r29
    34ec:	cf 91       	pop	r28
    34ee:	1f 91       	pop	r17
    34f0:	0f 91       	pop	r16
    34f2:	ff 90       	pop	r15
    34f4:	ef 90       	pop	r14
    34f6:	df 90       	pop	r13
    34f8:	cf 90       	pop	r12
    34fa:	bf 90       	pop	r11
    34fc:	af 90       	pop	r10
    34fe:	08 95       	ret

00003500 <_ZN4UTFT7InitLCDEh>:
    3500:	0f 93       	push	r16
    3502:	1f 93       	push	r17
    3504:	cf 93       	push	r28
    3506:	df 93       	push	r29
    3508:	ec 01       	movw	r28, r24
    350a:	6c 83       	std	Y+4, r22	; 0x04
    350c:	61 e0       	ldi	r22, 0x01	; 1
    350e:	8d a1       	ldd	r24, Y+37	; 0x25
    3510:	0e 94 3c 37 	call	0x6e78	; 0x6e78 <pinMode>
    3514:	61 e0       	ldi	r22, 0x01	; 1
    3516:	8e a1       	ldd	r24, Y+38	; 0x26
    3518:	0e 94 3c 37 	call	0x6e78	; 0x6e78 <pinMode>
    351c:	61 e0       	ldi	r22, 0x01	; 1
    351e:	8f a1       	ldd	r24, Y+39	; 0x27
    3520:	0e 94 3c 37 	call	0x6e78	; 0x6e78 <pinMode>
    3524:	88 a5       	ldd	r24, Y+40	; 0x28
    3526:	8f 3f       	cpi	r24, 0xFF	; 255
    3528:	19 f0       	breq	.+6      	; 0x3530 <_ZN4UTFT7InitLCDEh+0x30>
    352a:	61 e0       	ldi	r22, 0x01	; 1
    352c:	0e 94 3c 37 	call	0x6e78	; 0x6e78 <pinMode>
    3530:	8e 85       	ldd	r24, Y+14	; 0x0e
    3532:	81 31       	cpi	r24, 0x11	; 17
    3534:	29 f0       	breq	.+10     	; 0x3540 <_ZN4UTFT7InitLCDEh+0x40>
    3536:	81 30       	cpi	r24, 0x01	; 1
    3538:	39 f4       	brne	.+14     	; 0x3548 <_ZN4UTFT7InitLCDEh+0x48>
    353a:	8f 85       	ldd	r24, Y+15	; 0x0f
    353c:	85 30       	cpi	r24, 0x05	; 5
    353e:	21 f4       	brne	.+8      	; 0x3548 <_ZN4UTFT7InitLCDEh+0x48>
    3540:	61 e0       	ldi	r22, 0x01	; 1
    3542:	89 a5       	ldd	r24, Y+41	; 0x29
    3544:	0e 94 3c 37 	call	0x6e78	; 0x6e78 <pinMode>
    3548:	6e 85       	ldd	r22, Y+14	; 0x0e
    354a:	61 30       	cpi	r22, 0x01	; 1
    354c:	11 f0       	breq	.+4      	; 0x3552 <_ZN4UTFT7InitLCDEh+0x52>
    354e:	ce 01       	movw	r24, r28
    3550:	3b d9       	rcall	.-3466   	; 0x27c8 <_ZN4UTFT24_set_direction_registersEh>
    3552:	ee 89       	ldd	r30, Y+22	; 0x16
    3554:	ff 89       	ldd	r31, Y+23	; 0x17
    3556:	90 81       	ld	r25, Z
    3558:	89 a1       	ldd	r24, Y+33	; 0x21
    355a:	89 2b       	or	r24, r25
    355c:	80 83       	st	Z, r24
    355e:	65 e0       	ldi	r22, 0x05	; 5
    3560:	70 e0       	ldi	r23, 0x00	; 0
    3562:	80 e0       	ldi	r24, 0x00	; 0
    3564:	90 e0       	ldi	r25, 0x00	; 0
    3566:	0e 94 41 36 	call	0x6c82	; 0x6c82 <delay>
    356a:	ee 89       	ldd	r30, Y+22	; 0x16
    356c:	ff 89       	ldd	r31, Y+23	; 0x17
    356e:	90 81       	ld	r25, Z
    3570:	89 a1       	ldd	r24, Y+33	; 0x21
    3572:	80 95       	com	r24
    3574:	89 23       	and	r24, r25
    3576:	80 83       	st	Z, r24
    3578:	6f e0       	ldi	r22, 0x0F	; 15
    357a:	70 e0       	ldi	r23, 0x00	; 0
    357c:	80 e0       	ldi	r24, 0x00	; 0
    357e:	90 e0       	ldi	r25, 0x00	; 0
    3580:	0e 94 41 36 	call	0x6c82	; 0x6c82 <delay>
    3584:	ee 89       	ldd	r30, Y+22	; 0x16
    3586:	ff 89       	ldd	r31, Y+23	; 0x17
    3588:	90 81       	ld	r25, Z
    358a:	89 a1       	ldd	r24, Y+33	; 0x21
    358c:	89 2b       	or	r24, r25
    358e:	80 83       	st	Z, r24
    3590:	6f e0       	ldi	r22, 0x0F	; 15
    3592:	70 e0       	ldi	r23, 0x00	; 0
    3594:	80 e0       	ldi	r24, 0x00	; 0
    3596:	90 e0       	ldi	r25, 0x00	; 0
    3598:	0e 94 41 36 	call	0x6c82	; 0x6c82 <delay>
    359c:	ec 89       	ldd	r30, Y+20	; 0x14
    359e:	fd 89       	ldd	r31, Y+21	; 0x15
    35a0:	90 81       	ld	r25, Z
    35a2:	88 a1       	ldd	r24, Y+32	; 0x20
    35a4:	80 95       	com	r24
    35a6:	89 23       	and	r24, r25
    35a8:	80 83       	st	Z, r24
    35aa:	ed 85       	ldd	r30, Y+13	; 0x0d
    35ac:	8e 2f       	mov	r24, r30
    35ae:	90 e0       	ldi	r25, 0x00	; 0
    35b0:	fc 01       	movw	r30, r24
    35b2:	32 97       	sbiw	r30, 0x02	; 2
    35b4:	ee 31       	cpi	r30, 0x1E	; 30
    35b6:	f1 05       	cpc	r31, r1
    35b8:	10 f0       	brcs	.+4      	; 0x35be <_ZN4UTFT7InitLCDEh+0xbe>
    35ba:	0c 94 53 2d 	jmp	0x5aa6	; 0x5aa6 <_ZN4UTFT7InitLCDEh+0x25a6>
    35be:	88 27       	eor	r24, r24
    35c0:	e0 57       	subi	r30, 0x70	; 112
    35c2:	ff 4f       	sbci	r31, 0xFF	; 255
    35c4:	8f 4f       	sbci	r24, 0xFF	; 255
    35c6:	0c 94 97 38 	jmp	0x712e	; 0x712e <__tablejump2__>
    35ca:	41 e0       	ldi	r20, 0x01	; 1
    35cc:	50 e0       	ldi	r21, 0x00	; 0
    35ce:	60 e0       	ldi	r22, 0x00	; 0
    35d0:	ce 01       	movw	r24, r28
    35d2:	46 de       	rcall	.-884    	; 0x3260 <_ZN4UTFT18LCD_Write_COM_DATAEci>
    35d4:	44 ea       	ldi	r20, 0xA4	; 164
    35d6:	58 ea       	ldi	r21, 0xA8	; 168
    35d8:	63 e0       	ldi	r22, 0x03	; 3
    35da:	ce 01       	movw	r24, r28
    35dc:	41 de       	rcall	.-894    	; 0x3260 <_ZN4UTFT18LCD_Write_COM_DATAEci>
    35de:	40 e0       	ldi	r20, 0x00	; 0
    35e0:	50 e0       	ldi	r21, 0x00	; 0
    35e2:	6c e0       	ldi	r22, 0x0C	; 12
    35e4:	ce 01       	movw	r24, r28
    35e6:	3c de       	rcall	.-904    	; 0x3260 <_ZN4UTFT18LCD_Write_COM_DATAEci>
    35e8:	4c e0       	ldi	r20, 0x0C	; 12
    35ea:	58 e0       	ldi	r21, 0x08	; 8
    35ec:	6d e0       	ldi	r22, 0x0D	; 13
    35ee:	ce 01       	movw	r24, r28
    35f0:	37 de       	rcall	.-914    	; 0x3260 <_ZN4UTFT18LCD_Write_COM_DATAEci>
    35f2:	40 e0       	ldi	r20, 0x00	; 0
    35f4:	5b e2       	ldi	r21, 0x2B	; 43
    35f6:	6e e0       	ldi	r22, 0x0E	; 14
    35f8:	ce 01       	movw	r24, r28
    35fa:	32 de       	rcall	.-924    	; 0x3260 <_ZN4UTFT18LCD_Write_COM_DATAEci>
    35fc:	47 eb       	ldi	r20, 0xB7	; 183
    35fe:	50 e0       	ldi	r21, 0x00	; 0
    3600:	6e e1       	ldi	r22, 0x1E	; 30
    3602:	ce 01       	movw	r24, r28
    3604:	2d de       	rcall	.-934    	; 0x3260 <_ZN4UTFT18LCD_Write_COM_DATAEci>
    3606:	4f e3       	ldi	r20, 0x3F	; 63
    3608:	5b e2       	ldi	r21, 0x2B	; 43
    360a:	61 e0       	ldi	r22, 0x01	; 1
    360c:	ce 01       	movw	r24, r28
    360e:	28 de       	rcall	.-944    	; 0x3260 <_ZN4UTFT18LCD_Write_COM_DATAEci>
    3610:	40 e0       	ldi	r20, 0x00	; 0
    3612:	56 e0       	ldi	r21, 0x06	; 6
    3614:	62 e0       	ldi	r22, 0x02	; 2
    3616:	ce 01       	movw	r24, r28
    3618:	23 de       	rcall	.-954    	; 0x3260 <_ZN4UTFT18LCD_Write_COM_DATAEci>
    361a:	40 e0       	ldi	r20, 0x00	; 0
    361c:	50 e0       	ldi	r21, 0x00	; 0
    361e:	60 e1       	ldi	r22, 0x10	; 16
    3620:	ce 01       	movw	r24, r28
    3622:	1e de       	rcall	.-964    	; 0x3260 <_ZN4UTFT18LCD_Write_COM_DATAEci>
    3624:	40 e7       	ldi	r20, 0x70	; 112
    3626:	50 e6       	ldi	r21, 0x60	; 96
    3628:	61 e1       	ldi	r22, 0x11	; 17
    362a:	ce 01       	movw	r24, r28
    362c:	19 de       	rcall	.-974    	; 0x3260 <_ZN4UTFT18LCD_Write_COM_DATAEci>
    362e:	40 e0       	ldi	r20, 0x00	; 0
    3630:	50 e0       	ldi	r21, 0x00	; 0
    3632:	65 e0       	ldi	r22, 0x05	; 5
    3634:	ce 01       	movw	r24, r28
    3636:	14 de       	rcall	.-984    	; 0x3260 <_ZN4UTFT18LCD_Write_COM_DATAEci>
    3638:	40 e0       	ldi	r20, 0x00	; 0
    363a:	50 e0       	ldi	r21, 0x00	; 0
    363c:	66 e0       	ldi	r22, 0x06	; 6
    363e:	ce 01       	movw	r24, r28
    3640:	0f de       	rcall	.-994    	; 0x3260 <_ZN4UTFT18LCD_Write_COM_DATAEci>
    3642:	4c e1       	ldi	r20, 0x1C	; 28
    3644:	5f ee       	ldi	r21, 0xEF	; 239
    3646:	66 e1       	ldi	r22, 0x16	; 22
    3648:	ce 01       	movw	r24, r28
    364a:	0a de       	rcall	.-1004   	; 0x3260 <_ZN4UTFT18LCD_Write_COM_DATAEci>
    364c:	43 e0       	ldi	r20, 0x03	; 3
    364e:	50 e0       	ldi	r21, 0x00	; 0
    3650:	67 e1       	ldi	r22, 0x17	; 23
    3652:	ce 01       	movw	r24, r28
    3654:	05 de       	rcall	.-1014   	; 0x3260 <_ZN4UTFT18LCD_Write_COM_DATAEci>
    3656:	43 e3       	ldi	r20, 0x33	; 51
    3658:	52 e0       	ldi	r21, 0x02	; 2
    365a:	67 e0       	ldi	r22, 0x07	; 7
    365c:	ce 01       	movw	r24, r28
    365e:	00 de       	rcall	.-1024   	; 0x3260 <_ZN4UTFT18LCD_Write_COM_DATAEci>
    3660:	40 e0       	ldi	r20, 0x00	; 0
    3662:	50 e0       	ldi	r21, 0x00	; 0
    3664:	6b e0       	ldi	r22, 0x0B	; 11
    3666:	ce 01       	movw	r24, r28
    3668:	fb dd       	rcall	.-1034   	; 0x3260 <_ZN4UTFT18LCD_Write_COM_DATAEci>
    366a:	40 e0       	ldi	r20, 0x00	; 0
    366c:	50 e0       	ldi	r21, 0x00	; 0
    366e:	6f e0       	ldi	r22, 0x0F	; 15
    3670:	ce 01       	movw	r24, r28
    3672:	f6 dd       	rcall	.-1044   	; 0x3260 <_ZN4UTFT18LCD_Write_COM_DATAEci>
    3674:	40 e0       	ldi	r20, 0x00	; 0
    3676:	50 e0       	ldi	r21, 0x00	; 0
    3678:	61 e4       	ldi	r22, 0x41	; 65
    367a:	ce 01       	movw	r24, r28
    367c:	f1 dd       	rcall	.-1054   	; 0x3260 <_ZN4UTFT18LCD_Write_COM_DATAEci>
    367e:	40 e0       	ldi	r20, 0x00	; 0
    3680:	50 e0       	ldi	r21, 0x00	; 0
    3682:	62 e4       	ldi	r22, 0x42	; 66
    3684:	ce 01       	movw	r24, r28
    3686:	ec dd       	rcall	.-1064   	; 0x3260 <_ZN4UTFT18LCD_Write_COM_DATAEci>
    3688:	40 e0       	ldi	r20, 0x00	; 0
    368a:	50 e0       	ldi	r21, 0x00	; 0
    368c:	68 e4       	ldi	r22, 0x48	; 72
    368e:	ce 01       	movw	r24, r28
    3690:	e7 dd       	rcall	.-1074   	; 0x3260 <_ZN4UTFT18LCD_Write_COM_DATAEci>
    3692:	4f e3       	ldi	r20, 0x3F	; 63
    3694:	51 e0       	ldi	r21, 0x01	; 1
    3696:	69 e4       	ldi	r22, 0x49	; 73
    3698:	ce 01       	movw	r24, r28
    369a:	e2 dd       	rcall	.-1084   	; 0x3260 <_ZN4UTFT18LCD_Write_COM_DATAEci>
    369c:	40 e0       	ldi	r20, 0x00	; 0
    369e:	50 e0       	ldi	r21, 0x00	; 0
    36a0:	6a e4       	ldi	r22, 0x4A	; 74
    36a2:	ce 01       	movw	r24, r28
    36a4:	dd dd       	rcall	.-1094   	; 0x3260 <_ZN4UTFT18LCD_Write_COM_DATAEci>
    36a6:	40 e0       	ldi	r20, 0x00	; 0
    36a8:	50 e0       	ldi	r21, 0x00	; 0
    36aa:	6b e4       	ldi	r22, 0x4B	; 75
    36ac:	ce 01       	movw	r24, r28
    36ae:	d8 dd       	rcall	.-1104   	; 0x3260 <_ZN4UTFT18LCD_Write_COM_DATAEci>
    36b0:	40 e0       	ldi	r20, 0x00	; 0
    36b2:	5f ee       	ldi	r21, 0xEF	; 239
    36b4:	64 e4       	ldi	r22, 0x44	; 68
    36b6:	ce 01       	movw	r24, r28
    36b8:	d3 dd       	rcall	.-1114   	; 0x3260 <_ZN4UTFT18LCD_Write_COM_DATAEci>
    36ba:	40 e0       	ldi	r20, 0x00	; 0
    36bc:	50 e0       	ldi	r21, 0x00	; 0
    36be:	65 e4       	ldi	r22, 0x45	; 69
    36c0:	ce 01       	movw	r24, r28
    36c2:	ce dd       	rcall	.-1124   	; 0x3260 <_ZN4UTFT18LCD_Write_COM_DATAEci>
    36c4:	4f e3       	ldi	r20, 0x3F	; 63
    36c6:	51 e0       	ldi	r21, 0x01	; 1
    36c8:	66 e4       	ldi	r22, 0x46	; 70
    36ca:	ce 01       	movw	r24, r28
    36cc:	c9 dd       	rcall	.-1134   	; 0x3260 <_ZN4UTFT18LCD_Write_COM_DATAEci>
    36ce:	47 e0       	ldi	r20, 0x07	; 7
    36d0:	57 e0       	ldi	r21, 0x07	; 7
    36d2:	60 e3       	ldi	r22, 0x30	; 48
    36d4:	ce 01       	movw	r24, r28
    36d6:	c4 dd       	rcall	.-1144   	; 0x3260 <_ZN4UTFT18LCD_Write_COM_DATAEci>
    36d8:	44 e0       	ldi	r20, 0x04	; 4
    36da:	52 e0       	ldi	r21, 0x02	; 2
    36dc:	61 e3       	ldi	r22, 0x31	; 49
    36de:	ce 01       	movw	r24, r28
    36e0:	bf dd       	rcall	.-1154   	; 0x3260 <_ZN4UTFT18LCD_Write_COM_DATAEci>
    36e2:	44 e0       	ldi	r20, 0x04	; 4
    36e4:	52 e0       	ldi	r21, 0x02	; 2
    36e6:	62 e3       	ldi	r22, 0x32	; 50
    36e8:	ce 01       	movw	r24, r28
    36ea:	ba dd       	rcall	.-1164   	; 0x3260 <_ZN4UTFT18LCD_Write_COM_DATAEci>
    36ec:	42 e0       	ldi	r20, 0x02	; 2
    36ee:	55 e0       	ldi	r21, 0x05	; 5
    36f0:	63 e3       	ldi	r22, 0x33	; 51
    36f2:	ce 01       	movw	r24, r28
    36f4:	b5 dd       	rcall	.-1174   	; 0x3260 <_ZN4UTFT18LCD_Write_COM_DATAEci>
    36f6:	47 e0       	ldi	r20, 0x07	; 7
    36f8:	55 e0       	ldi	r21, 0x05	; 5
    36fa:	64 e3       	ldi	r22, 0x34	; 52
    36fc:	ce 01       	movw	r24, r28
    36fe:	b0 dd       	rcall	.-1184   	; 0x3260 <_ZN4UTFT18LCD_Write_COM_DATAEci>
    3700:	44 e0       	ldi	r20, 0x04	; 4
    3702:	52 e0       	ldi	r21, 0x02	; 2
    3704:	65 e3       	ldi	r22, 0x35	; 53
    3706:	ce 01       	movw	r24, r28
    3708:	ab dd       	rcall	.-1194   	; 0x3260 <_ZN4UTFT18LCD_Write_COM_DATAEci>
    370a:	44 e0       	ldi	r20, 0x04	; 4
    370c:	52 e0       	ldi	r21, 0x02	; 2
    370e:	66 e3       	ldi	r22, 0x36	; 54
    3710:	ce 01       	movw	r24, r28
    3712:	a6 dd       	rcall	.-1204   	; 0x3260 <_ZN4UTFT18LCD_Write_COM_DATAEci>
    3714:	42 e0       	ldi	r20, 0x02	; 2
    3716:	55 e0       	ldi	r21, 0x05	; 5
    3718:	67 e3       	ldi	r22, 0x37	; 55
    371a:	ce 01       	movw	r24, r28
    371c:	a1 dd       	rcall	.-1214   	; 0x3260 <_ZN4UTFT18LCD_Write_COM_DATAEci>
    371e:	42 e0       	ldi	r20, 0x02	; 2
    3720:	53 e0       	ldi	r21, 0x03	; 3
    3722:	6a e3       	ldi	r22, 0x3A	; 58
    3724:	ce 01       	movw	r24, r28
    3726:	9c dd       	rcall	.-1224   	; 0x3260 <_ZN4UTFT18LCD_Write_COM_DATAEci>
    3728:	42 e0       	ldi	r20, 0x02	; 2
    372a:	53 e0       	ldi	r21, 0x03	; 3
    372c:	6b e3       	ldi	r22, 0x3B	; 59
    372e:	ce 01       	movw	r24, r28
    3730:	97 dd       	rcall	.-1234   	; 0x3260 <_ZN4UTFT18LCD_Write_COM_DATAEci>
    3732:	40 e0       	ldi	r20, 0x00	; 0
    3734:	50 e0       	ldi	r21, 0x00	; 0
    3736:	63 e2       	ldi	r22, 0x23	; 35
    3738:	ce 01       	movw	r24, r28
    373a:	92 dd       	rcall	.-1244   	; 0x3260 <_ZN4UTFT18LCD_Write_COM_DATAEci>
    373c:	40 e0       	ldi	r20, 0x00	; 0
    373e:	50 e0       	ldi	r21, 0x00	; 0
    3740:	64 e2       	ldi	r22, 0x24	; 36
    3742:	ce 01       	movw	r24, r28
    3744:	8d dd       	rcall	.-1254   	; 0x3260 <_ZN4UTFT18LCD_Write_COM_DATAEci>
    3746:	40 e0       	ldi	r20, 0x00	; 0
    3748:	50 e8       	ldi	r21, 0x80	; 128
    374a:	65 e2       	ldi	r22, 0x25	; 37
    374c:	ce 01       	movw	r24, r28
    374e:	88 dd       	rcall	.-1264   	; 0x3260 <_ZN4UTFT18LCD_Write_COM_DATAEci>
    3750:	40 e0       	ldi	r20, 0x00	; 0
    3752:	50 e0       	ldi	r21, 0x00	; 0
    3754:	6f e4       	ldi	r22, 0x4F	; 79
    3756:	ce 01       	movw	r24, r28
    3758:	83 dd       	rcall	.-1274   	; 0x3260 <_ZN4UTFT18LCD_Write_COM_DATAEci>
    375a:	40 e0       	ldi	r20, 0x00	; 0
    375c:	50 e0       	ldi	r21, 0x00	; 0
    375e:	6e e4       	ldi	r22, 0x4E	; 78
    3760:	0c 94 eb 26 	jmp	0x4dd6	; 0x4dd6 <_ZN4UTFT7InitLCDEh+0x18d6>
    3764:	40 ef       	ldi	r20, 0xF0	; 240
    3766:	58 e7       	ldi	r21, 0x78	; 120
    3768:	65 ee       	ldi	r22, 0xE5	; 229
    376a:	ce 01       	movw	r24, r28
    376c:	79 dd       	rcall	.-1294   	; 0x3260 <_ZN4UTFT18LCD_Write_COM_DATAEci>
    376e:	40 e0       	ldi	r20, 0x00	; 0
    3770:	51 e0       	ldi	r21, 0x01	; 1
    3772:	61 e0       	ldi	r22, 0x01	; 1
    3774:	ce 01       	movw	r24, r28
    3776:	74 dd       	rcall	.-1304   	; 0x3260 <_ZN4UTFT18LCD_Write_COM_DATAEci>
    3778:	40 e0       	ldi	r20, 0x00	; 0
    377a:	52 e0       	ldi	r21, 0x02	; 2
    377c:	62 e0       	ldi	r22, 0x02	; 2
    377e:	ce 01       	movw	r24, r28
    3780:	6f dd       	rcall	.-1314   	; 0x3260 <_ZN4UTFT18LCD_Write_COM_DATAEci>
    3782:	40 e3       	ldi	r20, 0x30	; 48
    3784:	50 e1       	ldi	r21, 0x10	; 16
    3786:	63 e0       	ldi	r22, 0x03	; 3
    3788:	ce 01       	movw	r24, r28
    378a:	6a dd       	rcall	.-1324   	; 0x3260 <_ZN4UTFT18LCD_Write_COM_DATAEci>
    378c:	40 e0       	ldi	r20, 0x00	; 0
    378e:	50 e0       	ldi	r21, 0x00	; 0
    3790:	64 e0       	ldi	r22, 0x04	; 4
    3792:	ce 01       	movw	r24, r28
    3794:	65 dd       	rcall	.-1334   	; 0x3260 <_ZN4UTFT18LCD_Write_COM_DATAEci>
    3796:	47 e0       	ldi	r20, 0x07	; 7
    3798:	52 e0       	ldi	r21, 0x02	; 2
    379a:	68 e0       	ldi	r22, 0x08	; 8
    379c:	ce 01       	movw	r24, r28
    379e:	60 dd       	rcall	.-1344   	; 0x3260 <_ZN4UTFT18LCD_Write_COM_DATAEci>
    37a0:	40 e0       	ldi	r20, 0x00	; 0
    37a2:	50 e0       	ldi	r21, 0x00	; 0
    37a4:	69 e0       	ldi	r22, 0x09	; 9
    37a6:	ce 01       	movw	r24, r28
    37a8:	5b dd       	rcall	.-1354   	; 0x3260 <_ZN4UTFT18LCD_Write_COM_DATAEci>
    37aa:	40 e0       	ldi	r20, 0x00	; 0
    37ac:	50 e0       	ldi	r21, 0x00	; 0
    37ae:	6a e0       	ldi	r22, 0x0A	; 10
    37b0:	ce 01       	movw	r24, r28
    37b2:	56 dd       	rcall	.-1364   	; 0x3260 <_ZN4UTFT18LCD_Write_COM_DATAEci>
    37b4:	40 e0       	ldi	r20, 0x00	; 0
    37b6:	50 e0       	ldi	r21, 0x00	; 0
    37b8:	6c e0       	ldi	r22, 0x0C	; 12
    37ba:	ce 01       	movw	r24, r28
    37bc:	51 dd       	rcall	.-1374   	; 0x3260 <_ZN4UTFT18LCD_Write_COM_DATAEci>
    37be:	40 e0       	ldi	r20, 0x00	; 0
    37c0:	50 e0       	ldi	r21, 0x00	; 0
    37c2:	6d e0       	ldi	r22, 0x0D	; 13
    37c4:	ce 01       	movw	r24, r28
    37c6:	4c dd       	rcall	.-1384   	; 0x3260 <_ZN4UTFT18LCD_Write_COM_DATAEci>
    37c8:	40 e0       	ldi	r20, 0x00	; 0
    37ca:	50 e0       	ldi	r21, 0x00	; 0
    37cc:	6f e0       	ldi	r22, 0x0F	; 15
    37ce:	ce 01       	movw	r24, r28
    37d0:	47 dd       	rcall	.-1394   	; 0x3260 <_ZN4UTFT18LCD_Write_COM_DATAEci>
    37d2:	40 e0       	ldi	r20, 0x00	; 0
    37d4:	50 e0       	ldi	r21, 0x00	; 0
    37d6:	60 e1       	ldi	r22, 0x10	; 16
    37d8:	ce 01       	movw	r24, r28
    37da:	42 dd       	rcall	.-1404   	; 0x3260 <_ZN4UTFT18LCD_Write_COM_DATAEci>
    37dc:	47 e0       	ldi	r20, 0x07	; 7
    37de:	50 e0       	ldi	r21, 0x00	; 0
    37e0:	61 e1       	ldi	r22, 0x11	; 17
    37e2:	ce 01       	movw	r24, r28
    37e4:	3d dd       	rcall	.-1414   	; 0x3260 <_ZN4UTFT18LCD_Write_COM_DATAEci>
    37e6:	40 e0       	ldi	r20, 0x00	; 0
    37e8:	50 e0       	ldi	r21, 0x00	; 0
    37ea:	62 e1       	ldi	r22, 0x12	; 18
    37ec:	ce 01       	movw	r24, r28
    37ee:	38 dd       	rcall	.-1424   	; 0x3260 <_ZN4UTFT18LCD_Write_COM_DATAEci>
    37f0:	40 e0       	ldi	r20, 0x00	; 0
    37f2:	50 e0       	ldi	r21, 0x00	; 0
    37f4:	63 e1       	ldi	r22, 0x13	; 19
    37f6:	ce 01       	movw	r24, r28
    37f8:	33 dd       	rcall	.-1434   	; 0x3260 <_ZN4UTFT18LCD_Write_COM_DATAEci>
    37fa:	41 e0       	ldi	r20, 0x01	; 1
    37fc:	50 e0       	ldi	r21, 0x00	; 0
    37fe:	67 e0       	ldi	r22, 0x07	; 7
    3800:	ce 01       	movw	r24, r28
    3802:	2e dd       	rcall	.-1444   	; 0x3260 <_ZN4UTFT18LCD_Write_COM_DATAEci>
    3804:	68 ec       	ldi	r22, 0xC8	; 200
    3806:	70 e0       	ldi	r23, 0x00	; 0
    3808:	80 e0       	ldi	r24, 0x00	; 0
    380a:	90 e0       	ldi	r25, 0x00	; 0
    380c:	0e 94 41 36 	call	0x6c82	; 0x6c82 <delay>
    3810:	40 e9       	ldi	r20, 0x90	; 144
    3812:	56 e1       	ldi	r21, 0x16	; 22
    3814:	60 e1       	ldi	r22, 0x10	; 16
    3816:	ce 01       	movw	r24, r28
    3818:	23 dd       	rcall	.-1466   	; 0x3260 <_ZN4UTFT18LCD_Write_COM_DATAEci>
    381a:	47 e2       	ldi	r20, 0x27	; 39
    381c:	52 e0       	ldi	r21, 0x02	; 2
    381e:	61 e1       	ldi	r22, 0x11	; 17
    3820:	ce 01       	movw	r24, r28
    3822:	1e dd       	rcall	.-1476   	; 0x3260 <_ZN4UTFT18LCD_Write_COM_DATAEci>
    3824:	62 e3       	ldi	r22, 0x32	; 50
    3826:	70 e0       	ldi	r23, 0x00	; 0
    3828:	80 e0       	ldi	r24, 0x00	; 0
    382a:	90 e0       	ldi	r25, 0x00	; 0
    382c:	0e 94 41 36 	call	0x6c82	; 0x6c82 <delay>
    3830:	4d e0       	ldi	r20, 0x0D	; 13
    3832:	50 e0       	ldi	r21, 0x00	; 0
    3834:	62 e1       	ldi	r22, 0x12	; 18
    3836:	ce 01       	movw	r24, r28
    3838:	13 dd       	rcall	.-1498   	; 0x3260 <_ZN4UTFT18LCD_Write_COM_DATAEci>
    383a:	62 e3       	ldi	r22, 0x32	; 50
    383c:	70 e0       	ldi	r23, 0x00	; 0
    383e:	80 e0       	ldi	r24, 0x00	; 0
    3840:	90 e0       	ldi	r25, 0x00	; 0
    3842:	0e 94 41 36 	call	0x6c82	; 0x6c82 <delay>
    3846:	40 e0       	ldi	r20, 0x00	; 0
    3848:	52 e1       	ldi	r21, 0x12	; 18
    384a:	63 e1       	ldi	r22, 0x13	; 19
    384c:	ce 01       	movw	r24, r28
    384e:	08 dd       	rcall	.-1520   	; 0x3260 <_ZN4UTFT18LCD_Write_COM_DATAEci>
    3850:	4a e0       	ldi	r20, 0x0A	; 10
    3852:	50 e0       	ldi	r21, 0x00	; 0
    3854:	69 e2       	ldi	r22, 0x29	; 41
    3856:	ce 01       	movw	r24, r28
    3858:	03 dd       	rcall	.-1530   	; 0x3260 <_ZN4UTFT18LCD_Write_COM_DATAEci>
    385a:	4d e0       	ldi	r20, 0x0D	; 13
    385c:	50 e0       	ldi	r21, 0x00	; 0
    385e:	7d c0       	rjmp	.+250    	; 0x395a <_ZN4UTFT7InitLCDEh+0x45a>
    3860:	40 ef       	ldi	r20, 0xF0	; 240
    3862:	58 e7       	ldi	r21, 0x78	; 120
    3864:	65 ee       	ldi	r22, 0xE5	; 229
    3866:	ce 01       	movw	r24, r28
    3868:	fb dc       	rcall	.-1546   	; 0x3260 <_ZN4UTFT18LCD_Write_COM_DATAEci>
    386a:	40 e0       	ldi	r20, 0x00	; 0
    386c:	51 e0       	ldi	r21, 0x01	; 1
    386e:	61 e0       	ldi	r22, 0x01	; 1
    3870:	ce 01       	movw	r24, r28
    3872:	f6 dc       	rcall	.-1556   	; 0x3260 <_ZN4UTFT18LCD_Write_COM_DATAEci>
    3874:	40 e0       	ldi	r20, 0x00	; 0
    3876:	57 e0       	ldi	r21, 0x07	; 7
    3878:	62 e0       	ldi	r22, 0x02	; 2
    387a:	ce 01       	movw	r24, r28
    387c:	f1 dc       	rcall	.-1566   	; 0x3260 <_ZN4UTFT18LCD_Write_COM_DATAEci>
    387e:	40 e3       	ldi	r20, 0x30	; 48
    3880:	50 e1       	ldi	r21, 0x10	; 16
    3882:	63 e0       	ldi	r22, 0x03	; 3
    3884:	ce 01       	movw	r24, r28
    3886:	ec dc       	rcall	.-1576   	; 0x3260 <_ZN4UTFT18LCD_Write_COM_DATAEci>
    3888:	40 e0       	ldi	r20, 0x00	; 0
    388a:	50 e0       	ldi	r21, 0x00	; 0
    388c:	64 e0       	ldi	r22, 0x04	; 4
    388e:	ce 01       	movw	r24, r28
    3890:	e7 dc       	rcall	.-1586   	; 0x3260 <_ZN4UTFT18LCD_Write_COM_DATAEci>
    3892:	47 e0       	ldi	r20, 0x07	; 7
    3894:	52 e0       	ldi	r21, 0x02	; 2
    3896:	68 e0       	ldi	r22, 0x08	; 8
    3898:	ce 01       	movw	r24, r28
    389a:	e2 dc       	rcall	.-1596   	; 0x3260 <_ZN4UTFT18LCD_Write_COM_DATAEci>
    389c:	40 e0       	ldi	r20, 0x00	; 0
    389e:	50 e0       	ldi	r21, 0x00	; 0
    38a0:	69 e0       	ldi	r22, 0x09	; 9
    38a2:	ce 01       	movw	r24, r28
    38a4:	dd dc       	rcall	.-1606   	; 0x3260 <_ZN4UTFT18LCD_Write_COM_DATAEci>
    38a6:	40 e0       	ldi	r20, 0x00	; 0
    38a8:	50 e0       	ldi	r21, 0x00	; 0
    38aa:	6a e0       	ldi	r22, 0x0A	; 10
    38ac:	ce 01       	movw	r24, r28
    38ae:	d8 dc       	rcall	.-1616   	; 0x3260 <_ZN4UTFT18LCD_Write_COM_DATAEci>
    38b0:	40 e0       	ldi	r20, 0x00	; 0
    38b2:	50 e0       	ldi	r21, 0x00	; 0
    38b4:	6c e0       	ldi	r22, 0x0C	; 12
    38b6:	ce 01       	movw	r24, r28
    38b8:	d3 dc       	rcall	.-1626   	; 0x3260 <_ZN4UTFT18LCD_Write_COM_DATAEci>
    38ba:	40 e0       	ldi	r20, 0x00	; 0
    38bc:	50 e0       	ldi	r21, 0x00	; 0
    38be:	6d e0       	ldi	r22, 0x0D	; 13
    38c0:	ce 01       	movw	r24, r28
    38c2:	ce dc       	rcall	.-1636   	; 0x3260 <_ZN4UTFT18LCD_Write_COM_DATAEci>
    38c4:	40 e0       	ldi	r20, 0x00	; 0
    38c6:	50 e0       	ldi	r21, 0x00	; 0
    38c8:	6f e0       	ldi	r22, 0x0F	; 15
    38ca:	ce 01       	movw	r24, r28
    38cc:	c9 dc       	rcall	.-1646   	; 0x3260 <_ZN4UTFT18LCD_Write_COM_DATAEci>
    38ce:	40 e0       	ldi	r20, 0x00	; 0
    38d0:	50 e0       	ldi	r21, 0x00	; 0
    38d2:	60 e1       	ldi	r22, 0x10	; 16
    38d4:	ce 01       	movw	r24, r28
    38d6:	c4 dc       	rcall	.-1656   	; 0x3260 <_ZN4UTFT18LCD_Write_COM_DATAEci>
    38d8:	47 e0       	ldi	r20, 0x07	; 7
    38da:	50 e0       	ldi	r21, 0x00	; 0
    38dc:	61 e1       	ldi	r22, 0x11	; 17
    38de:	ce 01       	movw	r24, r28
    38e0:	bf dc       	rcall	.-1666   	; 0x3260 <_ZN4UTFT18LCD_Write_COM_DATAEci>
    38e2:	40 e0       	ldi	r20, 0x00	; 0
    38e4:	50 e0       	ldi	r21, 0x00	; 0
    38e6:	62 e1       	ldi	r22, 0x12	; 18
    38e8:	ce 01       	movw	r24, r28
    38ea:	ba dc       	rcall	.-1676   	; 0x3260 <_ZN4UTFT18LCD_Write_COM_DATAEci>
    38ec:	40 e0       	ldi	r20, 0x00	; 0
    38ee:	50 e0       	ldi	r21, 0x00	; 0
    38f0:	63 e1       	ldi	r22, 0x13	; 19
    38f2:	ce 01       	movw	r24, r28
    38f4:	b5 dc       	rcall	.-1686   	; 0x3260 <_ZN4UTFT18LCD_Write_COM_DATAEci>
    38f6:	41 e0       	ldi	r20, 0x01	; 1
    38f8:	50 e0       	ldi	r21, 0x00	; 0
    38fa:	67 e0       	ldi	r22, 0x07	; 7
    38fc:	ce 01       	movw	r24, r28
    38fe:	b0 dc       	rcall	.-1696   	; 0x3260 <_ZN4UTFT18LCD_Write_COM_DATAEci>
    3900:	68 ec       	ldi	r22, 0xC8	; 200
    3902:	70 e0       	ldi	r23, 0x00	; 0
    3904:	80 e0       	ldi	r24, 0x00	; 0
    3906:	90 e0       	ldi	r25, 0x00	; 0
    3908:	0e 94 41 36 	call	0x6c82	; 0x6c82 <delay>
    390c:	40 e9       	ldi	r20, 0x90	; 144
    390e:	55 e1       	ldi	r21, 0x15	; 21
    3910:	60 e1       	ldi	r22, 0x10	; 16
    3912:	ce 01       	movw	r24, r28
    3914:	a5 dc       	rcall	.-1718   	; 0x3260 <_ZN4UTFT18LCD_Write_COM_DATAEci>
    3916:	47 e2       	ldi	r20, 0x27	; 39
    3918:	52 e0       	ldi	r21, 0x02	; 2
    391a:	61 e1       	ldi	r22, 0x11	; 17
    391c:	ce 01       	movw	r24, r28
    391e:	a0 dc       	rcall	.-1728   	; 0x3260 <_ZN4UTFT18LCD_Write_COM_DATAEci>
    3920:	62 e3       	ldi	r22, 0x32	; 50
    3922:	70 e0       	ldi	r23, 0x00	; 0
    3924:	80 e0       	ldi	r24, 0x00	; 0
    3926:	90 e0       	ldi	r25, 0x00	; 0
    3928:	0e 94 41 36 	call	0x6c82	; 0x6c82 <delay>
    392c:	4c e9       	ldi	r20, 0x9C	; 156
    392e:	50 e0       	ldi	r21, 0x00	; 0
    3930:	62 e1       	ldi	r22, 0x12	; 18
    3932:	ce 01       	movw	r24, r28
    3934:	95 dc       	rcall	.-1750   	; 0x3260 <_ZN4UTFT18LCD_Write_COM_DATAEci>
    3936:	62 e3       	ldi	r22, 0x32	; 50
    3938:	70 e0       	ldi	r23, 0x00	; 0
    393a:	80 e0       	ldi	r24, 0x00	; 0
    393c:	90 e0       	ldi	r25, 0x00	; 0
    393e:	0e 94 41 36 	call	0x6c82	; 0x6c82 <delay>
    3942:	40 e0       	ldi	r20, 0x00	; 0
    3944:	59 e1       	ldi	r21, 0x19	; 25
    3946:	63 e1       	ldi	r22, 0x13	; 19
    3948:	ce 01       	movw	r24, r28
    394a:	8a dc       	rcall	.-1772   	; 0x3260 <_ZN4UTFT18LCD_Write_COM_DATAEci>
    394c:	43 e2       	ldi	r20, 0x23	; 35
    394e:	50 e0       	ldi	r21, 0x00	; 0
    3950:	69 e2       	ldi	r22, 0x29	; 41
    3952:	ce 01       	movw	r24, r28
    3954:	85 dc       	rcall	.-1782   	; 0x3260 <_ZN4UTFT18LCD_Write_COM_DATAEci>
    3956:	4e e0       	ldi	r20, 0x0E	; 14
    3958:	50 e0       	ldi	r21, 0x00	; 0
    395a:	6b e2       	ldi	r22, 0x2B	; 43
    395c:	ce 01       	movw	r24, r28
    395e:	80 dc       	rcall	.-1792   	; 0x3260 <_ZN4UTFT18LCD_Write_COM_DATAEci>
    3960:	62 e3       	ldi	r22, 0x32	; 50
    3962:	70 e0       	ldi	r23, 0x00	; 0
    3964:	80 e0       	ldi	r24, 0x00	; 0
    3966:	90 e0       	ldi	r25, 0x00	; 0
    3968:	0e 94 41 36 	call	0x6c82	; 0x6c82 <delay>
    396c:	40 e0       	ldi	r20, 0x00	; 0
    396e:	50 e0       	ldi	r21, 0x00	; 0
    3970:	60 e2       	ldi	r22, 0x20	; 32
    3972:	ce 01       	movw	r24, r28
    3974:	75 dc       	rcall	.-1814   	; 0x3260 <_ZN4UTFT18LCD_Write_COM_DATAEci>
    3976:	40 e0       	ldi	r20, 0x00	; 0
    3978:	50 e0       	ldi	r21, 0x00	; 0
    397a:	61 e2       	ldi	r22, 0x21	; 33
    397c:	ce 01       	movw	r24, r28
    397e:	70 dc       	rcall	.-1824   	; 0x3260 <_ZN4UTFT18LCD_Write_COM_DATAEci>
    3980:	40 e0       	ldi	r20, 0x00	; 0
    3982:	50 e0       	ldi	r21, 0x00	; 0
    3984:	60 e3       	ldi	r22, 0x30	; 48
    3986:	ce 01       	movw	r24, r28
    3988:	6b dc       	rcall	.-1834   	; 0x3260 <_ZN4UTFT18LCD_Write_COM_DATAEci>
    398a:	44 e0       	ldi	r20, 0x04	; 4
    398c:	54 e0       	ldi	r21, 0x04	; 4
    398e:	61 e3       	ldi	r22, 0x31	; 49
    3990:	ce 01       	movw	r24, r28
    3992:	66 dc       	rcall	.-1844   	; 0x3260 <_ZN4UTFT18LCD_Write_COM_DATAEci>
    3994:	43 e0       	ldi	r20, 0x03	; 3
    3996:	50 e0       	ldi	r21, 0x00	; 0
    3998:	62 e3       	ldi	r22, 0x32	; 50
    399a:	ce 01       	movw	r24, r28
    399c:	61 dc       	rcall	.-1854   	; 0x3260 <_ZN4UTFT18LCD_Write_COM_DATAEci>
    399e:	45 e0       	ldi	r20, 0x05	; 5
    39a0:	54 e0       	ldi	r21, 0x04	; 4
    39a2:	65 e3       	ldi	r22, 0x35	; 53
    39a4:	ce 01       	movw	r24, r28
    39a6:	5c dc       	rcall	.-1864   	; 0x3260 <_ZN4UTFT18LCD_Write_COM_DATAEci>
    39a8:	48 e0       	ldi	r20, 0x08	; 8
    39aa:	58 e0       	ldi	r21, 0x08	; 8
    39ac:	66 e3       	ldi	r22, 0x36	; 54
    39ae:	ce 01       	movw	r24, r28
    39b0:	57 dc       	rcall	.-1874   	; 0x3260 <_ZN4UTFT18LCD_Write_COM_DATAEci>
    39b2:	47 e0       	ldi	r20, 0x07	; 7
    39b4:	54 e0       	ldi	r21, 0x04	; 4
    39b6:	67 e3       	ldi	r22, 0x37	; 55
    39b8:	ce 01       	movw	r24, r28
    39ba:	52 dc       	rcall	.-1884   	; 0x3260 <_ZN4UTFT18LCD_Write_COM_DATAEci>
    39bc:	43 e0       	ldi	r20, 0x03	; 3
    39be:	53 e0       	ldi	r21, 0x03	; 3
    39c0:	68 e3       	ldi	r22, 0x38	; 56
    39c2:	ce 01       	movw	r24, r28
    39c4:	4d dc       	rcall	.-1894   	; 0x3260 <_ZN4UTFT18LCD_Write_COM_DATAEci>
    39c6:	47 e0       	ldi	r20, 0x07	; 7
    39c8:	57 e0       	ldi	r21, 0x07	; 7
    39ca:	69 e3       	ldi	r22, 0x39	; 57
    39cc:	ce 01       	movw	r24, r28
    39ce:	48 dc       	rcall	.-1904   	; 0x3260 <_ZN4UTFT18LCD_Write_COM_DATAEci>
    39d0:	44 e0       	ldi	r20, 0x04	; 4
    39d2:	55 e0       	ldi	r21, 0x05	; 5
    39d4:	6c e3       	ldi	r22, 0x3C	; 60
    39d6:	ce 01       	movw	r24, r28
    39d8:	43 dc       	rcall	.-1914   	; 0x3260 <_ZN4UTFT18LCD_Write_COM_DATAEci>
    39da:	48 e0       	ldi	r20, 0x08	; 8
    39dc:	58 e0       	ldi	r21, 0x08	; 8
    39de:	6d e3       	ldi	r22, 0x3D	; 61
    39e0:	ce 01       	movw	r24, r28
    39e2:	3e dc       	rcall	.-1924   	; 0x3260 <_ZN4UTFT18LCD_Write_COM_DATAEci>
    39e4:	40 e0       	ldi	r20, 0x00	; 0
    39e6:	50 e0       	ldi	r21, 0x00	; 0
    39e8:	60 e5       	ldi	r22, 0x50	; 80
    39ea:	ce 01       	movw	r24, r28
    39ec:	39 dc       	rcall	.-1934   	; 0x3260 <_ZN4UTFT18LCD_Write_COM_DATAEci>
    39ee:	4f ee       	ldi	r20, 0xEF	; 239
    39f0:	50 e0       	ldi	r21, 0x00	; 0
    39f2:	61 e5       	ldi	r22, 0x51	; 81
    39f4:	ce 01       	movw	r24, r28
    39f6:	34 dc       	rcall	.-1944   	; 0x3260 <_ZN4UTFT18LCD_Write_COM_DATAEci>
    39f8:	40 e0       	ldi	r20, 0x00	; 0
    39fa:	50 e0       	ldi	r21, 0x00	; 0
    39fc:	62 e5       	ldi	r22, 0x52	; 82
    39fe:	ce 01       	movw	r24, r28
    3a00:	2f dc       	rcall	.-1954   	; 0x3260 <_ZN4UTFT18LCD_Write_COM_DATAEci>
    3a02:	4f e3       	ldi	r20, 0x3F	; 63
    3a04:	51 e0       	ldi	r21, 0x01	; 1
    3a06:	63 e5       	ldi	r22, 0x53	; 83
    3a08:	ce 01       	movw	r24, r28
    3a0a:	2a dc       	rcall	.-1964   	; 0x3260 <_ZN4UTFT18LCD_Write_COM_DATAEci>
    3a0c:	40 e0       	ldi	r20, 0x00	; 0
    3a0e:	57 ea       	ldi	r21, 0xA7	; 167
    3a10:	60 e6       	ldi	r22, 0x60	; 96
    3a12:	ce 01       	movw	r24, r28
    3a14:	25 dc       	rcall	.-1974   	; 0x3260 <_ZN4UTFT18LCD_Write_COM_DATAEci>
    3a16:	41 e0       	ldi	r20, 0x01	; 1
    3a18:	50 e0       	ldi	r21, 0x00	; 0
    3a1a:	61 e6       	ldi	r22, 0x61	; 97
    3a1c:	ce 01       	movw	r24, r28
    3a1e:	20 dc       	rcall	.-1984   	; 0x3260 <_ZN4UTFT18LCD_Write_COM_DATAEci>
    3a20:	40 e0       	ldi	r20, 0x00	; 0
    3a22:	50 e0       	ldi	r21, 0x00	; 0
    3a24:	6a e6       	ldi	r22, 0x6A	; 106
    3a26:	ce 01       	movw	r24, r28
    3a28:	1b dc       	rcall	.-1994   	; 0x3260 <_ZN4UTFT18LCD_Write_COM_DATAEci>
    3a2a:	40 e0       	ldi	r20, 0x00	; 0
    3a2c:	50 e0       	ldi	r21, 0x00	; 0
    3a2e:	60 e8       	ldi	r22, 0x80	; 128
    3a30:	ce 01       	movw	r24, r28
    3a32:	16 dc       	rcall	.-2004   	; 0x3260 <_ZN4UTFT18LCD_Write_COM_DATAEci>
    3a34:	40 e0       	ldi	r20, 0x00	; 0
    3a36:	50 e0       	ldi	r21, 0x00	; 0
    3a38:	61 e8       	ldi	r22, 0x81	; 129
    3a3a:	ce 01       	movw	r24, r28
    3a3c:	11 dc       	rcall	.-2014   	; 0x3260 <_ZN4UTFT18LCD_Write_COM_DATAEci>
    3a3e:	40 e0       	ldi	r20, 0x00	; 0
    3a40:	50 e0       	ldi	r21, 0x00	; 0
    3a42:	62 e8       	ldi	r22, 0x82	; 130
    3a44:	ce 01       	movw	r24, r28
    3a46:	0c dc       	rcall	.-2024   	; 0x3260 <_ZN4UTFT18LCD_Write_COM_DATAEci>
    3a48:	40 e0       	ldi	r20, 0x00	; 0
    3a4a:	50 e0       	ldi	r21, 0x00	; 0
    3a4c:	63 e8       	ldi	r22, 0x83	; 131
    3a4e:	ce 01       	movw	r24, r28
    3a50:	07 dc       	rcall	.-2034   	; 0x3260 <_ZN4UTFT18LCD_Write_COM_DATAEci>
    3a52:	40 e0       	ldi	r20, 0x00	; 0
    3a54:	50 e0       	ldi	r21, 0x00	; 0
    3a56:	64 e8       	ldi	r22, 0x84	; 132
    3a58:	ce 01       	movw	r24, r28
    3a5a:	02 dc       	rcall	.-2044   	; 0x3260 <_ZN4UTFT18LCD_Write_COM_DATAEci>
    3a5c:	40 e0       	ldi	r20, 0x00	; 0
    3a5e:	50 e0       	ldi	r21, 0x00	; 0
    3a60:	65 e8       	ldi	r22, 0x85	; 133
    3a62:	ce 01       	movw	r24, r28
    3a64:	fd db       	rcall	.-2054   	; 0x3260 <_ZN4UTFT18LCD_Write_COM_DATAEci>
    3a66:	40 e1       	ldi	r20, 0x10	; 16
    3a68:	50 e0       	ldi	r21, 0x00	; 0
    3a6a:	60 e9       	ldi	r22, 0x90	; 144
    3a6c:	ce 01       	movw	r24, r28
    3a6e:	f8 db       	rcall	.-2064   	; 0x3260 <_ZN4UTFT18LCD_Write_COM_DATAEci>
    3a70:	40 e0       	ldi	r20, 0x00	; 0
    3a72:	50 e0       	ldi	r21, 0x00	; 0
    3a74:	62 e9       	ldi	r22, 0x92	; 146
    3a76:	ce 01       	movw	r24, r28
    3a78:	f3 db       	rcall	.-2074   	; 0x3260 <_ZN4UTFT18LCD_Write_COM_DATAEci>
    3a7a:	43 e3       	ldi	r20, 0x33	; 51
    3a7c:	51 e0       	ldi	r21, 0x01	; 1
    3a7e:	67 e0       	ldi	r22, 0x07	; 7
    3a80:	ce 01       	movw	r24, r28
    3a82:	ee db       	rcall	.-2084   	; 0x3260 <_ZN4UTFT18LCD_Write_COM_DATAEci>
    3a84:	0c 94 53 2d 	jmp	0x5aa6	; 0x5aa6 <_ZN4UTFT7InitLCDEh+0x25a6>
    3a88:	44 e8       	ldi	r20, 0x84	; 132
    3a8a:	50 e0       	ldi	r21, 0x00	; 0
    3a8c:	66 e2       	ldi	r22, 0x26	; 38
    3a8e:	ce 01       	movw	r24, r28
    3a90:	e7 db       	rcall	.-2098   	; 0x3260 <_ZN4UTFT18LCD_Write_COM_DATAEci>
    3a92:	68 e2       	ldi	r22, 0x28	; 40
    3a94:	70 e0       	ldi	r23, 0x00	; 0
    3a96:	80 e0       	ldi	r24, 0x00	; 0
    3a98:	90 e0       	ldi	r25, 0x00	; 0
    3a9a:	0e 94 41 36 	call	0x6c82	; 0x6c82 <delay>
    3a9e:	48 eb       	ldi	r20, 0xB8	; 184
    3aa0:	50 e0       	ldi	r21, 0x00	; 0
    3aa2:	66 e2       	ldi	r22, 0x26	; 38
    3aa4:	ce 01       	movw	r24, r28
    3aa6:	dc db       	rcall	.-2120   	; 0x3260 <_ZN4UTFT18LCD_Write_COM_DATAEci>
    3aa8:	68 e2       	ldi	r22, 0x28	; 40
    3aaa:	70 e0       	ldi	r23, 0x00	; 0
    3aac:	80 e0       	ldi	r24, 0x00	; 0
    3aae:	90 e0       	ldi	r25, 0x00	; 0
    3ab0:	0e 94 41 36 	call	0x6c82	; 0x6c82 <delay>
    3ab4:	4c eb       	ldi	r20, 0xBC	; 188
    3ab6:	50 e0       	ldi	r21, 0x00	; 0
    3ab8:	66 e2       	ldi	r22, 0x26	; 38
    3aba:	ce 01       	movw	r24, r28
    3abc:	d1 db       	rcall	.-2142   	; 0x3260 <_ZN4UTFT18LCD_Write_COM_DATAEci>
    3abe:	64 e1       	ldi	r22, 0x14	; 20
    3ac0:	70 e0       	ldi	r23, 0x00	; 0
    3ac2:	80 e0       	ldi	r24, 0x00	; 0
    3ac4:	90 e0       	ldi	r25, 0x00	; 0
    3ac6:	0e 94 41 36 	call	0x6c82	; 0x6c82 <delay>
    3aca:	40 e0       	ldi	r20, 0x00	; 0
    3acc:	50 e0       	ldi	r21, 0x00	; 0
    3ace:	60 e6       	ldi	r22, 0x60	; 96
    3ad0:	ce 01       	movw	r24, r28
    3ad2:	c6 db       	rcall	.-2164   	; 0x3260 <_ZN4UTFT18LCD_Write_COM_DATAEci>
    3ad4:	46 e0       	ldi	r20, 0x06	; 6
    3ad6:	50 e0       	ldi	r21, 0x00	; 0
    3ad8:	61 e6       	ldi	r22, 0x61	; 97
    3ada:	ce 01       	movw	r24, r28
    3adc:	c1 db       	rcall	.-2174   	; 0x3260 <_ZN4UTFT18LCD_Write_COM_DATAEci>
    3ade:	40 e0       	ldi	r20, 0x00	; 0
    3ae0:	50 e0       	ldi	r21, 0x00	; 0
    3ae2:	62 e6       	ldi	r22, 0x62	; 98
    3ae4:	ce 01       	movw	r24, r28
    3ae6:	bc db       	rcall	.-2184   	; 0x3260 <_ZN4UTFT18LCD_Write_COM_DATAEci>
    3ae8:	48 ec       	ldi	r20, 0xC8	; 200
    3aea:	50 e0       	ldi	r21, 0x00	; 0
    3aec:	63 e6       	ldi	r22, 0x63	; 99
    3aee:	ce 01       	movw	r24, r28
    3af0:	b7 db       	rcall	.-2194   	; 0x3260 <_ZN4UTFT18LCD_Write_COM_DATAEci>
    3af2:	64 e1       	ldi	r22, 0x14	; 20
    3af4:	70 e0       	ldi	r23, 0x00	; 0
    3af6:	80 e0       	ldi	r24, 0x00	; 0
    3af8:	90 e0       	ldi	r25, 0x00	; 0
    3afa:	0e 94 41 36 	call	0x6c82	; 0x6c82 <delay>
    3afe:	40 e7       	ldi	r20, 0x70	; 112
    3b00:	50 e0       	ldi	r21, 0x00	; 0
    3b02:	63 e7       	ldi	r22, 0x73	; 115
    3b04:	ce 01       	movw	r24, r28
    3b06:	ac db       	rcall	.-2216   	; 0x3260 <_ZN4UTFT18LCD_Write_COM_DATAEci>
    3b08:	40 e0       	ldi	r20, 0x00	; 0
    3b0a:	50 e0       	ldi	r21, 0x00	; 0
    3b0c:	60 e4       	ldi	r22, 0x40	; 64
    3b0e:	ce 01       	movw	r24, r28
    3b10:	a7 db       	rcall	.-2226   	; 0x3260 <_ZN4UTFT18LCD_Write_COM_DATAEci>
    3b12:	40 e4       	ldi	r20, 0x40	; 64
    3b14:	50 e0       	ldi	r21, 0x00	; 0
    3b16:	61 e4       	ldi	r22, 0x41	; 65
    3b18:	ce 01       	movw	r24, r28
    3b1a:	a2 db       	rcall	.-2236   	; 0x3260 <_ZN4UTFT18LCD_Write_COM_DATAEci>
    3b1c:	45 e4       	ldi	r20, 0x45	; 69
    3b1e:	50 e0       	ldi	r21, 0x00	; 0
    3b20:	62 e4       	ldi	r22, 0x42	; 66
    3b22:	ce 01       	movw	r24, r28
    3b24:	9d db       	rcall	.-2246   	; 0x3260 <_ZN4UTFT18LCD_Write_COM_DATAEci>
    3b26:	41 e0       	ldi	r20, 0x01	; 1
    3b28:	50 e0       	ldi	r21, 0x00	; 0
    3b2a:	63 e4       	ldi	r22, 0x43	; 67
    3b2c:	ce 01       	movw	r24, r28
    3b2e:	98 db       	rcall	.-2256   	; 0x3260 <_ZN4UTFT18LCD_Write_COM_DATAEci>
    3b30:	40 e6       	ldi	r20, 0x60	; 96
    3b32:	50 e0       	ldi	r21, 0x00	; 0
    3b34:	64 e4       	ldi	r22, 0x44	; 68
    3b36:	ce 01       	movw	r24, r28
    3b38:	93 db       	rcall	.-2266   	; 0x3260 <_ZN4UTFT18LCD_Write_COM_DATAEci>
    3b3a:	45 e0       	ldi	r20, 0x05	; 5
    3b3c:	50 e0       	ldi	r21, 0x00	; 0
    3b3e:	65 e4       	ldi	r22, 0x45	; 69
    3b40:	ce 01       	movw	r24, r28
    3b42:	8e db       	rcall	.-2276   	; 0x3260 <_ZN4UTFT18LCD_Write_COM_DATAEci>
    3b44:	4c e0       	ldi	r20, 0x0C	; 12
    3b46:	50 e0       	ldi	r21, 0x00	; 0
    3b48:	66 e4       	ldi	r22, 0x46	; 70
    3b4a:	ce 01       	movw	r24, r28
    3b4c:	89 db       	rcall	.-2286   	; 0x3260 <_ZN4UTFT18LCD_Write_COM_DATAEci>
    3b4e:	41 ed       	ldi	r20, 0xD1	; 209
    3b50:	50 e0       	ldi	r21, 0x00	; 0
    3b52:	67 e4       	ldi	r22, 0x47	; 71
    3b54:	ce 01       	movw	r24, r28
    3b56:	84 db       	rcall	.-2296   	; 0x3260 <_ZN4UTFT18LCD_Write_COM_DATAEci>
    3b58:	45 e0       	ldi	r20, 0x05	; 5
    3b5a:	50 e0       	ldi	r21, 0x00	; 0
    3b5c:	68 e4       	ldi	r22, 0x48	; 72
    3b5e:	ce 01       	movw	r24, r28
    3b60:	7f db       	rcall	.-2306   	; 0x3260 <_ZN4UTFT18LCD_Write_COM_DATAEci>
    3b62:	45 e7       	ldi	r20, 0x75	; 117
    3b64:	50 e0       	ldi	r21, 0x00	; 0
    3b66:	60 e5       	ldi	r22, 0x50	; 80
    3b68:	ce 01       	movw	r24, r28
    3b6a:	7a db       	rcall	.-2316   	; 0x3260 <_ZN4UTFT18LCD_Write_COM_DATAEci>
    3b6c:	41 e0       	ldi	r20, 0x01	; 1
    3b6e:	50 e0       	ldi	r21, 0x00	; 0
    3b70:	61 e5       	ldi	r22, 0x51	; 81
    3b72:	ce 01       	movw	r24, r28
    3b74:	75 db       	rcall	.-2326   	; 0x3260 <_ZN4UTFT18LCD_Write_COM_DATAEci>
    3b76:	47 e6       	ldi	r20, 0x67	; 103
    3b78:	50 e0       	ldi	r21, 0x00	; 0
    3b7a:	62 e5       	ldi	r22, 0x52	; 82
    3b7c:	ce 01       	movw	r24, r28
    3b7e:	70 db       	rcall	.-2336   	; 0x3260 <_ZN4UTFT18LCD_Write_COM_DATAEci>
    3b80:	44 e1       	ldi	r20, 0x14	; 20
    3b82:	50 e0       	ldi	r21, 0x00	; 0
    3b84:	63 e5       	ldi	r22, 0x53	; 83
    3b86:	ce 01       	movw	r24, r28
    3b88:	6b db       	rcall	.-2346   	; 0x3260 <_ZN4UTFT18LCD_Write_COM_DATAEci>
    3b8a:	42 ef       	ldi	r20, 0xF2	; 242
    3b8c:	50 e0       	ldi	r21, 0x00	; 0
    3b8e:	64 e5       	ldi	r22, 0x54	; 84
    3b90:	ce 01       	movw	r24, r28
    3b92:	66 db       	rcall	.-2356   	; 0x3260 <_ZN4UTFT18LCD_Write_COM_DATAEci>
    3b94:	47 e0       	ldi	r20, 0x07	; 7
    3b96:	50 e0       	ldi	r21, 0x00	; 0
    3b98:	65 e5       	ldi	r22, 0x55	; 85
    3b9a:	ce 01       	movw	r24, r28
    3b9c:	61 db       	rcall	.-2366   	; 0x3260 <_ZN4UTFT18LCD_Write_COM_DATAEci>
    3b9e:	43 e0       	ldi	r20, 0x03	; 3
    3ba0:	50 e0       	ldi	r21, 0x00	; 0
    3ba2:	66 e5       	ldi	r22, 0x56	; 86
    3ba4:	ce 01       	movw	r24, r28
    3ba6:	5c db       	rcall	.-2376   	; 0x3260 <_ZN4UTFT18LCD_Write_COM_DATAEci>
    3ba8:	49 e4       	ldi	r20, 0x49	; 73
    3baa:	50 e0       	ldi	r21, 0x00	; 0
    3bac:	67 e5       	ldi	r22, 0x57	; 87
    3bae:	ce 01       	movw	r24, r28
    3bb0:	57 db       	rcall	.-2386   	; 0x3260 <_ZN4UTFT18LCD_Write_COM_DATAEci>
    3bb2:	64 e1       	ldi	r22, 0x14	; 20
    3bb4:	70 e0       	ldi	r23, 0x00	; 0
    3bb6:	80 e0       	ldi	r24, 0x00	; 0
    3bb8:	90 e0       	ldi	r25, 0x00	; 0
    3bba:	0e 94 41 36 	call	0x6c82	; 0x6c82 <delay>
    3bbe:	43 e0       	ldi	r20, 0x03	; 3
    3bc0:	50 e0       	ldi	r21, 0x00	; 0
    3bc2:	6f e1       	ldi	r22, 0x1F	; 31
    3bc4:	ce 01       	movw	r24, r28
    3bc6:	4c db       	rcall	.-2408   	; 0x3260 <_ZN4UTFT18LCD_Write_COM_DATAEci>
    3bc8:	40 e0       	ldi	r20, 0x00	; 0
    3bca:	50 e0       	ldi	r21, 0x00	; 0
    3bcc:	60 e2       	ldi	r22, 0x20	; 32
    3bce:	ce 01       	movw	r24, r28
    3bd0:	47 db       	rcall	.-2418   	; 0x3260 <_ZN4UTFT18LCD_Write_COM_DATAEci>
    3bd2:	44 e2       	ldi	r20, 0x24	; 36
    3bd4:	50 e0       	ldi	r21, 0x00	; 0
    3bd6:	64 e2       	ldi	r22, 0x24	; 36
    3bd8:	ce 01       	movw	r24, r28
    3bda:	42 db       	rcall	.-2428   	; 0x3260 <_ZN4UTFT18LCD_Write_COM_DATAEci>
    3bdc:	44 e3       	ldi	r20, 0x34	; 52
    3bde:	50 e0       	ldi	r21, 0x00	; 0
    3be0:	65 e2       	ldi	r22, 0x25	; 37
    3be2:	ce 01       	movw	r24, r28
    3be4:	3d db       	rcall	.-2438   	; 0x3260 <_ZN4UTFT18LCD_Write_COM_DATAEci>
    3be6:	4f e2       	ldi	r20, 0x2F	; 47
    3be8:	50 e0       	ldi	r21, 0x00	; 0
    3bea:	63 e2       	ldi	r22, 0x23	; 35
    3bec:	ce 01       	movw	r24, r28
    3bee:	38 db       	rcall	.-2448   	; 0x3260 <_ZN4UTFT18LCD_Write_COM_DATAEci>
    3bf0:	64 e1       	ldi	r22, 0x14	; 20
    3bf2:	70 e0       	ldi	r23, 0x00	; 0
    3bf4:	80 e0       	ldi	r24, 0x00	; 0
    3bf6:	90 e0       	ldi	r25, 0x00	; 0
    3bf8:	0e 94 41 36 	call	0x6c82	; 0x6c82 <delay>
    3bfc:	44 e4       	ldi	r20, 0x44	; 68
    3bfe:	50 e0       	ldi	r21, 0x00	; 0
    3c00:	68 e1       	ldi	r22, 0x18	; 24
    3c02:	ce 01       	movw	r24, r28
    3c04:	2d db       	rcall	.-2470   	; 0x3260 <_ZN4UTFT18LCD_Write_COM_DATAEci>
    3c06:	41 e0       	ldi	r20, 0x01	; 1
    3c08:	50 e0       	ldi	r21, 0x00	; 0
    3c0a:	61 e2       	ldi	r22, 0x21	; 33
    3c0c:	ce 01       	movw	r24, r28
    3c0e:	28 db       	rcall	.-2480   	; 0x3260 <_ZN4UTFT18LCD_Write_COM_DATAEci>
    3c10:	40 e0       	ldi	r20, 0x00	; 0
    3c12:	50 e0       	ldi	r21, 0x00	; 0
    3c14:	61 e0       	ldi	r22, 0x01	; 1
    3c16:	ce 01       	movw	r24, r28
    3c18:	23 db       	rcall	.-2490   	; 0x3260 <_ZN4UTFT18LCD_Write_COM_DATAEci>
    3c1a:	43 e0       	ldi	r20, 0x03	; 3
    3c1c:	50 e0       	ldi	r21, 0x00	; 0
    3c1e:	6c e1       	ldi	r22, 0x1C	; 28
    3c20:	ce 01       	movw	r24, r28
    3c22:	1e db       	rcall	.-2500   	; 0x3260 <_ZN4UTFT18LCD_Write_COM_DATAEci>
    3c24:	46 e0       	ldi	r20, 0x06	; 6
    3c26:	50 e0       	ldi	r21, 0x00	; 0
    3c28:	69 e1       	ldi	r22, 0x19	; 25
    3c2a:	ce 01       	movw	r24, r28
    3c2c:	19 db       	rcall	.-2510   	; 0x3260 <_ZN4UTFT18LCD_Write_COM_DATAEci>
    3c2e:	64 e1       	ldi	r22, 0x14	; 20
    3c30:	70 e0       	ldi	r23, 0x00	; 0
    3c32:	80 e0       	ldi	r24, 0x00	; 0
    3c34:	90 e0       	ldi	r25, 0x00	; 0
    3c36:	0e 94 41 36 	call	0x6c82	; 0x6c82 <delay>
    3c3a:	44 e8       	ldi	r20, 0x84	; 132
    3c3c:	50 e0       	ldi	r21, 0x00	; 0
    3c3e:	66 e2       	ldi	r22, 0x26	; 38
    3c40:	ce 01       	movw	r24, r28
    3c42:	0e db       	rcall	.-2532   	; 0x3260 <_ZN4UTFT18LCD_Write_COM_DATAEci>
    3c44:	68 e2       	ldi	r22, 0x28	; 40
    3c46:	70 e0       	ldi	r23, 0x00	; 0
    3c48:	80 e0       	ldi	r24, 0x00	; 0
    3c4a:	90 e0       	ldi	r25, 0x00	; 0
    3c4c:	0e 94 41 36 	call	0x6c82	; 0x6c82 <delay>
    3c50:	48 eb       	ldi	r20, 0xB8	; 184
    3c52:	50 e0       	ldi	r21, 0x00	; 0
    3c54:	66 e2       	ldi	r22, 0x26	; 38
    3c56:	ce 01       	movw	r24, r28
    3c58:	03 db       	rcall	.-2554   	; 0x3260 <_ZN4UTFT18LCD_Write_COM_DATAEci>
    3c5a:	68 e2       	ldi	r22, 0x28	; 40
    3c5c:	70 e0       	ldi	r23, 0x00	; 0
    3c5e:	80 e0       	ldi	r24, 0x00	; 0
    3c60:	90 e0       	ldi	r25, 0x00	; 0
    3c62:	0e 94 41 36 	call	0x6c82	; 0x6c82 <delay>
    3c66:	4c eb       	ldi	r20, 0xBC	; 188
    3c68:	50 e0       	ldi	r21, 0x00	; 0
    3c6a:	66 e2       	ldi	r22, 0x26	; 38
    3c6c:	ce 01       	movw	r24, r28
    3c6e:	f8 da       	rcall	.-2576   	; 0x3260 <_ZN4UTFT18LCD_Write_COM_DATAEci>
    3c70:	64 e1       	ldi	r22, 0x14	; 20
    3c72:	70 e0       	ldi	r23, 0x00	; 0
    3c74:	80 e0       	ldi	r24, 0x00	; 0
    3c76:	90 e0       	ldi	r25, 0x00	; 0
    3c78:	0e 94 41 36 	call	0x6c82	; 0x6c82 <delay>
    3c7c:	40 e0       	ldi	r20, 0x00	; 0
    3c7e:	50 e0       	ldi	r21, 0x00	; 0
    3c80:	62 e0       	ldi	r22, 0x02	; 2
    3c82:	ce 01       	movw	r24, r28
    3c84:	ed da       	rcall	.-2598   	; 0x3260 <_ZN4UTFT18LCD_Write_COM_DATAEci>
    3c86:	40 e0       	ldi	r20, 0x00	; 0
    3c88:	50 e0       	ldi	r21, 0x00	; 0
    3c8a:	63 e0       	ldi	r22, 0x03	; 3
    3c8c:	ce 01       	movw	r24, r28
    3c8e:	e8 da       	rcall	.-2608   	; 0x3260 <_ZN4UTFT18LCD_Write_COM_DATAEci>
    3c90:	40 e0       	ldi	r20, 0x00	; 0
    3c92:	50 e0       	ldi	r21, 0x00	; 0
    3c94:	64 e0       	ldi	r22, 0x04	; 4
    3c96:	ce 01       	movw	r24, r28
    3c98:	e3 da       	rcall	.-2618   	; 0x3260 <_ZN4UTFT18LCD_Write_COM_DATAEci>
    3c9a:	4f ea       	ldi	r20, 0xAF	; 175
    3c9c:	50 e0       	ldi	r21, 0x00	; 0
    3c9e:	65 e0       	ldi	r22, 0x05	; 5
    3ca0:	ce 01       	movw	r24, r28
    3ca2:	de da       	rcall	.-2628   	; 0x3260 <_ZN4UTFT18LCD_Write_COM_DATAEci>
    3ca4:	40 e0       	ldi	r20, 0x00	; 0
    3ca6:	50 e0       	ldi	r21, 0x00	; 0
    3ca8:	66 e0       	ldi	r22, 0x06	; 6
    3caa:	ce 01       	movw	r24, r28
    3cac:	d9 da       	rcall	.-2638   	; 0x3260 <_ZN4UTFT18LCD_Write_COM_DATAEci>
    3cae:	40 e0       	ldi	r20, 0x00	; 0
    3cb0:	50 e0       	ldi	r21, 0x00	; 0
    3cb2:	67 e0       	ldi	r22, 0x07	; 7
    3cb4:	ce 01       	movw	r24, r28
    3cb6:	d4 da       	rcall	.-2648   	; 0x3260 <_ZN4UTFT18LCD_Write_COM_DATAEci>
    3cb8:	40 e0       	ldi	r20, 0x00	; 0
    3cba:	50 e0       	ldi	r21, 0x00	; 0
    3cbc:	68 e0       	ldi	r22, 0x08	; 8
    3cbe:	ce 01       	movw	r24, r28
    3cc0:	cf da       	rcall	.-2658   	; 0x3260 <_ZN4UTFT18LCD_Write_COM_DATAEci>
    3cc2:	4b ed       	ldi	r20, 0xDB	; 219
    3cc4:	50 e0       	ldi	r21, 0x00	; 0
    3cc6:	69 e0       	ldi	r22, 0x09	; 9
    3cc8:	ce 01       	movw	r24, r28
    3cca:	ca da       	rcall	.-2668   	; 0x3260 <_ZN4UTFT18LCD_Write_COM_DATAEci>
    3ccc:	64 e1       	ldi	r22, 0x14	; 20
    3cce:	70 e0       	ldi	r23, 0x00	; 0
    3cd0:	80 e0       	ldi	r24, 0x00	; 0
    3cd2:	90 e0       	ldi	r25, 0x00	; 0
    3cd4:	0e 94 41 36 	call	0x6c82	; 0x6c82 <delay>
    3cd8:	48 e0       	ldi	r20, 0x08	; 8
    3cda:	50 e0       	ldi	r21, 0x00	; 0
    3cdc:	66 e1       	ldi	r22, 0x16	; 22
    3cde:	ce 01       	movw	r24, r28
    3ce0:	bf da       	rcall	.-2690   	; 0x3260 <_ZN4UTFT18LCD_Write_COM_DATAEci>
    3ce2:	45 e0       	ldi	r20, 0x05	; 5
    3ce4:	50 e0       	ldi	r21, 0x00	; 0
    3ce6:	67 e1       	ldi	r22, 0x17	; 23
    3ce8:	ce 01       	movw	r24, r28
    3cea:	ba da       	rcall	.-2700   	; 0x3260 <_ZN4UTFT18LCD_Write_COM_DATAEci>
    3cec:	61 e2       	ldi	r22, 0x21	; 33
    3cee:	ce 01       	movw	r24, r28
    3cf0:	63 da       	rcall	.-2874   	; 0x31b8 <_ZN4UTFT13LCD_Write_COMEc>
    3cf2:	62 e2       	ldi	r22, 0x22	; 34
    3cf4:	ce 01       	movw	r24, r28
    3cf6:	60 da       	rcall	.-2880   	; 0x31b8 <_ZN4UTFT13LCD_Write_COMEc>
    3cf8:	0c 94 53 2d 	jmp	0x5aa6	; 0x5aa6 <_ZN4UTFT7InitLCDEh+0x25a6>
    3cfc:	61 e1       	ldi	r22, 0x11	; 17
    3cfe:	ce 01       	movw	r24, r28
    3d00:	5b da       	rcall	.-2890   	; 0x31b8 <_ZN4UTFT13LCD_Write_COMEc>
    3d02:	6c e0       	ldi	r22, 0x0C	; 12
    3d04:	70 e0       	ldi	r23, 0x00	; 0
    3d06:	80 e0       	ldi	r24, 0x00	; 0
    3d08:	90 e0       	ldi	r25, 0x00	; 0
    3d0a:	0e 94 41 36 	call	0x6c82	; 0x6c82 <delay>
    3d0e:	61 eb       	ldi	r22, 0xB1	; 177
    3d10:	ce 01       	movw	r24, r28
    3d12:	52 da       	rcall	.-2908   	; 0x31b8 <_ZN4UTFT13LCD_Write_COMEc>
    3d14:	61 e0       	ldi	r22, 0x01	; 1
    3d16:	ce 01       	movw	r24, r28
    3d18:	8b da       	rcall	.-2794   	; 0x3230 <_ZN4UTFT14LCD_Write_DATAEc>
    3d1a:	6c e2       	ldi	r22, 0x2C	; 44
    3d1c:	ce 01       	movw	r24, r28
    3d1e:	88 da       	rcall	.-2800   	; 0x3230 <_ZN4UTFT14LCD_Write_DATAEc>
    3d20:	6d e2       	ldi	r22, 0x2D	; 45
    3d22:	ce 01       	movw	r24, r28
    3d24:	85 da       	rcall	.-2806   	; 0x3230 <_ZN4UTFT14LCD_Write_DATAEc>
    3d26:	62 eb       	ldi	r22, 0xB2	; 178
    3d28:	ce 01       	movw	r24, r28
    3d2a:	46 da       	rcall	.-2932   	; 0x31b8 <_ZN4UTFT13LCD_Write_COMEc>
    3d2c:	61 e0       	ldi	r22, 0x01	; 1
    3d2e:	ce 01       	movw	r24, r28
    3d30:	7f da       	rcall	.-2818   	; 0x3230 <_ZN4UTFT14LCD_Write_DATAEc>
    3d32:	6c e2       	ldi	r22, 0x2C	; 44
    3d34:	ce 01       	movw	r24, r28
    3d36:	7c da       	rcall	.-2824   	; 0x3230 <_ZN4UTFT14LCD_Write_DATAEc>
    3d38:	6d e2       	ldi	r22, 0x2D	; 45
    3d3a:	ce 01       	movw	r24, r28
    3d3c:	79 da       	rcall	.-2830   	; 0x3230 <_ZN4UTFT14LCD_Write_DATAEc>
    3d3e:	63 eb       	ldi	r22, 0xB3	; 179
    3d40:	ce 01       	movw	r24, r28
    3d42:	3a da       	rcall	.-2956   	; 0x31b8 <_ZN4UTFT13LCD_Write_COMEc>
    3d44:	61 e0       	ldi	r22, 0x01	; 1
    3d46:	ce 01       	movw	r24, r28
    3d48:	73 da       	rcall	.-2842   	; 0x3230 <_ZN4UTFT14LCD_Write_DATAEc>
    3d4a:	6c e2       	ldi	r22, 0x2C	; 44
    3d4c:	ce 01       	movw	r24, r28
    3d4e:	70 da       	rcall	.-2848   	; 0x3230 <_ZN4UTFT14LCD_Write_DATAEc>
    3d50:	6d e2       	ldi	r22, 0x2D	; 45
    3d52:	ce 01       	movw	r24, r28
    3d54:	6d da       	rcall	.-2854   	; 0x3230 <_ZN4UTFT14LCD_Write_DATAEc>
    3d56:	61 e0       	ldi	r22, 0x01	; 1
    3d58:	ce 01       	movw	r24, r28
    3d5a:	6a da       	rcall	.-2860   	; 0x3230 <_ZN4UTFT14LCD_Write_DATAEc>
    3d5c:	6c e2       	ldi	r22, 0x2C	; 44
    3d5e:	ce 01       	movw	r24, r28
    3d60:	67 da       	rcall	.-2866   	; 0x3230 <_ZN4UTFT14LCD_Write_DATAEc>
    3d62:	6d e2       	ldi	r22, 0x2D	; 45
    3d64:	ce 01       	movw	r24, r28
    3d66:	64 da       	rcall	.-2872   	; 0x3230 <_ZN4UTFT14LCD_Write_DATAEc>
    3d68:	64 eb       	ldi	r22, 0xB4	; 180
    3d6a:	ce 01       	movw	r24, r28
    3d6c:	25 da       	rcall	.-2998   	; 0x31b8 <_ZN4UTFT13LCD_Write_COMEc>
    3d6e:	67 e0       	ldi	r22, 0x07	; 7
    3d70:	ce 01       	movw	r24, r28
    3d72:	5e da       	rcall	.-2884   	; 0x3230 <_ZN4UTFT14LCD_Write_DATAEc>
    3d74:	60 ec       	ldi	r22, 0xC0	; 192
    3d76:	ce 01       	movw	r24, r28
    3d78:	1f da       	rcall	.-3010   	; 0x31b8 <_ZN4UTFT13LCD_Write_COMEc>
    3d7a:	62 ea       	ldi	r22, 0xA2	; 162
    3d7c:	ce 01       	movw	r24, r28
    3d7e:	58 da       	rcall	.-2896   	; 0x3230 <_ZN4UTFT14LCD_Write_DATAEc>
    3d80:	62 e0       	ldi	r22, 0x02	; 2
    3d82:	ce 01       	movw	r24, r28
    3d84:	55 da       	rcall	.-2902   	; 0x3230 <_ZN4UTFT14LCD_Write_DATAEc>
    3d86:	64 e8       	ldi	r22, 0x84	; 132
    3d88:	ce 01       	movw	r24, r28
    3d8a:	52 da       	rcall	.-2908   	; 0x3230 <_ZN4UTFT14LCD_Write_DATAEc>
    3d8c:	61 ec       	ldi	r22, 0xC1	; 193
    3d8e:	ce 01       	movw	r24, r28
    3d90:	13 da       	rcall	.-3034   	; 0x31b8 <_ZN4UTFT13LCD_Write_COMEc>
    3d92:	65 ec       	ldi	r22, 0xC5	; 197
    3d94:	ce 01       	movw	r24, r28
    3d96:	4c da       	rcall	.-2920   	; 0x3230 <_ZN4UTFT14LCD_Write_DATAEc>
    3d98:	62 ec       	ldi	r22, 0xC2	; 194
    3d9a:	ce 01       	movw	r24, r28
    3d9c:	0d da       	rcall	.-3046   	; 0x31b8 <_ZN4UTFT13LCD_Write_COMEc>
    3d9e:	6a e0       	ldi	r22, 0x0A	; 10
    3da0:	ce 01       	movw	r24, r28
    3da2:	46 da       	rcall	.-2932   	; 0x3230 <_ZN4UTFT14LCD_Write_DATAEc>
    3da4:	60 e0       	ldi	r22, 0x00	; 0
    3da6:	ce 01       	movw	r24, r28
    3da8:	43 da       	rcall	.-2938   	; 0x3230 <_ZN4UTFT14LCD_Write_DATAEc>
    3daa:	63 ec       	ldi	r22, 0xC3	; 195
    3dac:	ce 01       	movw	r24, r28
    3dae:	04 da       	rcall	.-3064   	; 0x31b8 <_ZN4UTFT13LCD_Write_COMEc>
    3db0:	6a e8       	ldi	r22, 0x8A	; 138
    3db2:	ce 01       	movw	r24, r28
    3db4:	3d da       	rcall	.-2950   	; 0x3230 <_ZN4UTFT14LCD_Write_DATAEc>
    3db6:	6a e2       	ldi	r22, 0x2A	; 42
    3db8:	ce 01       	movw	r24, r28
    3dba:	3a da       	rcall	.-2956   	; 0x3230 <_ZN4UTFT14LCD_Write_DATAEc>
    3dbc:	64 ec       	ldi	r22, 0xC4	; 196
    3dbe:	ce 01       	movw	r24, r28
    3dc0:	fb d9       	rcall	.-3082   	; 0x31b8 <_ZN4UTFT13LCD_Write_COMEc>
    3dc2:	6a e8       	ldi	r22, 0x8A	; 138
    3dc4:	ce 01       	movw	r24, r28
    3dc6:	34 da       	rcall	.-2968   	; 0x3230 <_ZN4UTFT14LCD_Write_DATAEc>
    3dc8:	6e ee       	ldi	r22, 0xEE	; 238
    3dca:	ce 01       	movw	r24, r28
    3dcc:	31 da       	rcall	.-2974   	; 0x3230 <_ZN4UTFT14LCD_Write_DATAEc>
    3dce:	65 ec       	ldi	r22, 0xC5	; 197
    3dd0:	ce 01       	movw	r24, r28
    3dd2:	f2 d9       	rcall	.-3100   	; 0x31b8 <_ZN4UTFT13LCD_Write_COMEc>
    3dd4:	6e e0       	ldi	r22, 0x0E	; 14
    3dd6:	ce 01       	movw	r24, r28
    3dd8:	2b da       	rcall	.-2986   	; 0x3230 <_ZN4UTFT14LCD_Write_DATAEc>
    3dda:	66 e3       	ldi	r22, 0x36	; 54
    3ddc:	ce 01       	movw	r24, r28
    3dde:	ec d9       	rcall	.-3112   	; 0x31b8 <_ZN4UTFT13LCD_Write_COMEc>
    3de0:	68 ec       	ldi	r22, 0xC8	; 200
    3de2:	73 c0       	rjmp	.+230    	; 0x3eca <_ZN4UTFT7InitLCDEh+0x9ca>
    3de4:	61 e1       	ldi	r22, 0x11	; 17
    3de6:	ce 01       	movw	r24, r28
    3de8:	e7 d9       	rcall	.-3122   	; 0x31b8 <_ZN4UTFT13LCD_Write_COMEc>
    3dea:	6c e0       	ldi	r22, 0x0C	; 12
    3dec:	70 e0       	ldi	r23, 0x00	; 0
    3dee:	80 e0       	ldi	r24, 0x00	; 0
    3df0:	90 e0       	ldi	r25, 0x00	; 0
    3df2:	0e 94 41 36 	call	0x6c82	; 0x6c82 <delay>
    3df6:	61 eb       	ldi	r22, 0xB1	; 177
    3df8:	ce 01       	movw	r24, r28
    3dfa:	de d9       	rcall	.-3140   	; 0x31b8 <_ZN4UTFT13LCD_Write_COMEc>
    3dfc:	61 e0       	ldi	r22, 0x01	; 1
    3dfe:	ce 01       	movw	r24, r28
    3e00:	17 da       	rcall	.-3026   	; 0x3230 <_ZN4UTFT14LCD_Write_DATAEc>
    3e02:	6c e2       	ldi	r22, 0x2C	; 44
    3e04:	ce 01       	movw	r24, r28
    3e06:	14 da       	rcall	.-3032   	; 0x3230 <_ZN4UTFT14LCD_Write_DATAEc>
    3e08:	6d e2       	ldi	r22, 0x2D	; 45
    3e0a:	ce 01       	movw	r24, r28
    3e0c:	11 da       	rcall	.-3038   	; 0x3230 <_ZN4UTFT14LCD_Write_DATAEc>
    3e0e:	62 eb       	ldi	r22, 0xB2	; 178
    3e10:	ce 01       	movw	r24, r28
    3e12:	d2 d9       	rcall	.-3164   	; 0x31b8 <_ZN4UTFT13LCD_Write_COMEc>
    3e14:	61 e0       	ldi	r22, 0x01	; 1
    3e16:	ce 01       	movw	r24, r28
    3e18:	0b da       	rcall	.-3050   	; 0x3230 <_ZN4UTFT14LCD_Write_DATAEc>
    3e1a:	6c e2       	ldi	r22, 0x2C	; 44
    3e1c:	ce 01       	movw	r24, r28
    3e1e:	08 da       	rcall	.-3056   	; 0x3230 <_ZN4UTFT14LCD_Write_DATAEc>
    3e20:	6d e2       	ldi	r22, 0x2D	; 45
    3e22:	ce 01       	movw	r24, r28
    3e24:	05 da       	rcall	.-3062   	; 0x3230 <_ZN4UTFT14LCD_Write_DATAEc>
    3e26:	63 eb       	ldi	r22, 0xB3	; 179
    3e28:	ce 01       	movw	r24, r28
    3e2a:	c6 d9       	rcall	.-3188   	; 0x31b8 <_ZN4UTFT13LCD_Write_COMEc>
    3e2c:	61 e0       	ldi	r22, 0x01	; 1
    3e2e:	ce 01       	movw	r24, r28
    3e30:	ff d9       	rcall	.-3074   	; 0x3230 <_ZN4UTFT14LCD_Write_DATAEc>
    3e32:	6c e2       	ldi	r22, 0x2C	; 44
    3e34:	ce 01       	movw	r24, r28
    3e36:	fc d9       	rcall	.-3080   	; 0x3230 <_ZN4UTFT14LCD_Write_DATAEc>
    3e38:	6d e2       	ldi	r22, 0x2D	; 45
    3e3a:	ce 01       	movw	r24, r28
    3e3c:	f9 d9       	rcall	.-3086   	; 0x3230 <_ZN4UTFT14LCD_Write_DATAEc>
    3e3e:	61 e0       	ldi	r22, 0x01	; 1
    3e40:	ce 01       	movw	r24, r28
    3e42:	f6 d9       	rcall	.-3092   	; 0x3230 <_ZN4UTFT14LCD_Write_DATAEc>
    3e44:	6c e2       	ldi	r22, 0x2C	; 44
    3e46:	ce 01       	movw	r24, r28
    3e48:	f3 d9       	rcall	.-3098   	; 0x3230 <_ZN4UTFT14LCD_Write_DATAEc>
    3e4a:	6d e2       	ldi	r22, 0x2D	; 45
    3e4c:	ce 01       	movw	r24, r28
    3e4e:	f0 d9       	rcall	.-3104   	; 0x3230 <_ZN4UTFT14LCD_Write_DATAEc>
    3e50:	64 eb       	ldi	r22, 0xB4	; 180
    3e52:	ce 01       	movw	r24, r28
    3e54:	b1 d9       	rcall	.-3230   	; 0x31b8 <_ZN4UTFT13LCD_Write_COMEc>
    3e56:	67 e0       	ldi	r22, 0x07	; 7
    3e58:	ce 01       	movw	r24, r28
    3e5a:	ea d9       	rcall	.-3116   	; 0x3230 <_ZN4UTFT14LCD_Write_DATAEc>
    3e5c:	60 ec       	ldi	r22, 0xC0	; 192
    3e5e:	ce 01       	movw	r24, r28
    3e60:	ab d9       	rcall	.-3242   	; 0x31b8 <_ZN4UTFT13LCD_Write_COMEc>
    3e62:	62 ea       	ldi	r22, 0xA2	; 162
    3e64:	ce 01       	movw	r24, r28
    3e66:	e4 d9       	rcall	.-3128   	; 0x3230 <_ZN4UTFT14LCD_Write_DATAEc>
    3e68:	62 e0       	ldi	r22, 0x02	; 2
    3e6a:	ce 01       	movw	r24, r28
    3e6c:	e1 d9       	rcall	.-3134   	; 0x3230 <_ZN4UTFT14LCD_Write_DATAEc>
    3e6e:	64 e8       	ldi	r22, 0x84	; 132
    3e70:	ce 01       	movw	r24, r28
    3e72:	de d9       	rcall	.-3140   	; 0x3230 <_ZN4UTFT14LCD_Write_DATAEc>
    3e74:	61 ec       	ldi	r22, 0xC1	; 193
    3e76:	ce 01       	movw	r24, r28
    3e78:	9f d9       	rcall	.-3266   	; 0x31b8 <_ZN4UTFT13LCD_Write_COMEc>
    3e7a:	65 ec       	ldi	r22, 0xC5	; 197
    3e7c:	ce 01       	movw	r24, r28
    3e7e:	d8 d9       	rcall	.-3152   	; 0x3230 <_ZN4UTFT14LCD_Write_DATAEc>
    3e80:	62 ec       	ldi	r22, 0xC2	; 194
    3e82:	ce 01       	movw	r24, r28
    3e84:	99 d9       	rcall	.-3278   	; 0x31b8 <_ZN4UTFT13LCD_Write_COMEc>
    3e86:	6a e0       	ldi	r22, 0x0A	; 10
    3e88:	ce 01       	movw	r24, r28
    3e8a:	d2 d9       	rcall	.-3164   	; 0x3230 <_ZN4UTFT14LCD_Write_DATAEc>
    3e8c:	60 e0       	ldi	r22, 0x00	; 0
    3e8e:	ce 01       	movw	r24, r28
    3e90:	cf d9       	rcall	.-3170   	; 0x3230 <_ZN4UTFT14LCD_Write_DATAEc>
    3e92:	63 ec       	ldi	r22, 0xC3	; 195
    3e94:	ce 01       	movw	r24, r28
    3e96:	90 d9       	rcall	.-3296   	; 0x31b8 <_ZN4UTFT13LCD_Write_COMEc>
    3e98:	6a e8       	ldi	r22, 0x8A	; 138
    3e9a:	ce 01       	movw	r24, r28
    3e9c:	c9 d9       	rcall	.-3182   	; 0x3230 <_ZN4UTFT14LCD_Write_DATAEc>
    3e9e:	6a e2       	ldi	r22, 0x2A	; 42
    3ea0:	ce 01       	movw	r24, r28
    3ea2:	c6 d9       	rcall	.-3188   	; 0x3230 <_ZN4UTFT14LCD_Write_DATAEc>
    3ea4:	64 ec       	ldi	r22, 0xC4	; 196
    3ea6:	ce 01       	movw	r24, r28
    3ea8:	87 d9       	rcall	.-3314   	; 0x31b8 <_ZN4UTFT13LCD_Write_COMEc>
    3eaa:	6a e8       	ldi	r22, 0x8A	; 138
    3eac:	ce 01       	movw	r24, r28
    3eae:	c0 d9       	rcall	.-3200   	; 0x3230 <_ZN4UTFT14LCD_Write_DATAEc>
    3eb0:	6e ee       	ldi	r22, 0xEE	; 238
    3eb2:	ce 01       	movw	r24, r28
    3eb4:	bd d9       	rcall	.-3206   	; 0x3230 <_ZN4UTFT14LCD_Write_DATAEc>
    3eb6:	65 ec       	ldi	r22, 0xC5	; 197
    3eb8:	ce 01       	movw	r24, r28
    3eba:	7e d9       	rcall	.-3332   	; 0x31b8 <_ZN4UTFT13LCD_Write_COMEc>
    3ebc:	6e e0       	ldi	r22, 0x0E	; 14
    3ebe:	ce 01       	movw	r24, r28
    3ec0:	b7 d9       	rcall	.-3218   	; 0x3230 <_ZN4UTFT14LCD_Write_DATAEc>
    3ec2:	66 e3       	ldi	r22, 0x36	; 54
    3ec4:	ce 01       	movw	r24, r28
    3ec6:	78 d9       	rcall	.-3344   	; 0x31b8 <_ZN4UTFT13LCD_Write_COMEc>
    3ec8:	60 ec       	ldi	r22, 0xC0	; 192
    3eca:	ce 01       	movw	r24, r28
    3ecc:	b1 d9       	rcall	.-3230   	; 0x3230 <_ZN4UTFT14LCD_Write_DATAEc>
    3ece:	60 ee       	ldi	r22, 0xE0	; 224
    3ed0:	ce 01       	movw	r24, r28
    3ed2:	72 d9       	rcall	.-3356   	; 0x31b8 <_ZN4UTFT13LCD_Write_COMEc>
    3ed4:	6f e0       	ldi	r22, 0x0F	; 15
    3ed6:	ce 01       	movw	r24, r28
    3ed8:	ab d9       	rcall	.-3242   	; 0x3230 <_ZN4UTFT14LCD_Write_DATAEc>
    3eda:	6a e1       	ldi	r22, 0x1A	; 26
    3edc:	ce 01       	movw	r24, r28
    3ede:	a8 d9       	rcall	.-3248   	; 0x3230 <_ZN4UTFT14LCD_Write_DATAEc>
    3ee0:	6f e0       	ldi	r22, 0x0F	; 15
    3ee2:	ce 01       	movw	r24, r28
    3ee4:	a5 d9       	rcall	.-3254   	; 0x3230 <_ZN4UTFT14LCD_Write_DATAEc>
    3ee6:	68 e1       	ldi	r22, 0x18	; 24
    3ee8:	ce 01       	movw	r24, r28
    3eea:	a2 d9       	rcall	.-3260   	; 0x3230 <_ZN4UTFT14LCD_Write_DATAEc>
    3eec:	6f e2       	ldi	r22, 0x2F	; 47
    3eee:	ce 01       	movw	r24, r28
    3ef0:	9f d9       	rcall	.-3266   	; 0x3230 <_ZN4UTFT14LCD_Write_DATAEc>
    3ef2:	68 e2       	ldi	r22, 0x28	; 40
    3ef4:	ce 01       	movw	r24, r28
    3ef6:	9c d9       	rcall	.-3272   	; 0x3230 <_ZN4UTFT14LCD_Write_DATAEc>
    3ef8:	60 e2       	ldi	r22, 0x20	; 32
    3efa:	ce 01       	movw	r24, r28
    3efc:	99 d9       	rcall	.-3278   	; 0x3230 <_ZN4UTFT14LCD_Write_DATAEc>
    3efe:	62 e2       	ldi	r22, 0x22	; 34
    3f00:	ce 01       	movw	r24, r28
    3f02:	96 d9       	rcall	.-3284   	; 0x3230 <_ZN4UTFT14LCD_Write_DATAEc>
    3f04:	6f e1       	ldi	r22, 0x1F	; 31
    3f06:	ce 01       	movw	r24, r28
    3f08:	93 d9       	rcall	.-3290   	; 0x3230 <_ZN4UTFT14LCD_Write_DATAEc>
    3f0a:	6b e1       	ldi	r22, 0x1B	; 27
    3f0c:	ce 01       	movw	r24, r28
    3f0e:	90 d9       	rcall	.-3296   	; 0x3230 <_ZN4UTFT14LCD_Write_DATAEc>
    3f10:	63 e2       	ldi	r22, 0x23	; 35
    3f12:	ce 01       	movw	r24, r28
    3f14:	8d d9       	rcall	.-3302   	; 0x3230 <_ZN4UTFT14LCD_Write_DATAEc>
    3f16:	67 e3       	ldi	r22, 0x37	; 55
    3f18:	ce 01       	movw	r24, r28
    3f1a:	8a d9       	rcall	.-3308   	; 0x3230 <_ZN4UTFT14LCD_Write_DATAEc>
    3f1c:	60 e0       	ldi	r22, 0x00	; 0
    3f1e:	ce 01       	movw	r24, r28
    3f20:	87 d9       	rcall	.-3314   	; 0x3230 <_ZN4UTFT14LCD_Write_DATAEc>
    3f22:	67 e0       	ldi	r22, 0x07	; 7
    3f24:	ce 01       	movw	r24, r28
    3f26:	84 d9       	rcall	.-3320   	; 0x3230 <_ZN4UTFT14LCD_Write_DATAEc>
    3f28:	62 e0       	ldi	r22, 0x02	; 2
    3f2a:	ce 01       	movw	r24, r28
    3f2c:	81 d9       	rcall	.-3326   	; 0x3230 <_ZN4UTFT14LCD_Write_DATAEc>
    3f2e:	60 e1       	ldi	r22, 0x10	; 16
    3f30:	ce 01       	movw	r24, r28
    3f32:	7e d9       	rcall	.-3332   	; 0x3230 <_ZN4UTFT14LCD_Write_DATAEc>
    3f34:	61 ee       	ldi	r22, 0xE1	; 225
    3f36:	ce 01       	movw	r24, r28
    3f38:	3f d9       	rcall	.-3458   	; 0x31b8 <_ZN4UTFT13LCD_Write_COMEc>
    3f3a:	6f e0       	ldi	r22, 0x0F	; 15
    3f3c:	ce 01       	movw	r24, r28
    3f3e:	78 d9       	rcall	.-3344   	; 0x3230 <_ZN4UTFT14LCD_Write_DATAEc>
    3f40:	6b e1       	ldi	r22, 0x1B	; 27
    3f42:	ce 01       	movw	r24, r28
    3f44:	75 d9       	rcall	.-3350   	; 0x3230 <_ZN4UTFT14LCD_Write_DATAEc>
    3f46:	6f e0       	ldi	r22, 0x0F	; 15
    3f48:	ce 01       	movw	r24, r28
    3f4a:	72 d9       	rcall	.-3356   	; 0x3230 <_ZN4UTFT14LCD_Write_DATAEc>
    3f4c:	67 e1       	ldi	r22, 0x17	; 23
    3f4e:	ce 01       	movw	r24, r28
    3f50:	6f d9       	rcall	.-3362   	; 0x3230 <_ZN4UTFT14LCD_Write_DATAEc>
    3f52:	63 e3       	ldi	r22, 0x33	; 51
    3f54:	ce 01       	movw	r24, r28
    3f56:	6c d9       	rcall	.-3368   	; 0x3230 <_ZN4UTFT14LCD_Write_DATAEc>
    3f58:	6c e2       	ldi	r22, 0x2C	; 44
    3f5a:	ce 01       	movw	r24, r28
    3f5c:	69 d9       	rcall	.-3374   	; 0x3230 <_ZN4UTFT14LCD_Write_DATAEc>
    3f5e:	69 e2       	ldi	r22, 0x29	; 41
    3f60:	ce 01       	movw	r24, r28
    3f62:	66 d9       	rcall	.-3380   	; 0x3230 <_ZN4UTFT14LCD_Write_DATAEc>
    3f64:	6e e2       	ldi	r22, 0x2E	; 46
    3f66:	ce 01       	movw	r24, r28
    3f68:	63 d9       	rcall	.-3386   	; 0x3230 <_ZN4UTFT14LCD_Write_DATAEc>
    3f6a:	60 e3       	ldi	r22, 0x30	; 48
    3f6c:	ce 01       	movw	r24, r28
    3f6e:	60 d9       	rcall	.-3392   	; 0x3230 <_ZN4UTFT14LCD_Write_DATAEc>
    3f70:	60 e3       	ldi	r22, 0x30	; 48
    3f72:	ce 01       	movw	r24, r28
    3f74:	5d d9       	rcall	.-3398   	; 0x3230 <_ZN4UTFT14LCD_Write_DATAEc>
    3f76:	69 e3       	ldi	r22, 0x39	; 57
    3f78:	ce 01       	movw	r24, r28
    3f7a:	5a d9       	rcall	.-3404   	; 0x3230 <_ZN4UTFT14LCD_Write_DATAEc>
    3f7c:	6f e3       	ldi	r22, 0x3F	; 63
    3f7e:	ce 01       	movw	r24, r28
    3f80:	57 d9       	rcall	.-3410   	; 0x3230 <_ZN4UTFT14LCD_Write_DATAEc>
    3f82:	60 e0       	ldi	r22, 0x00	; 0
    3f84:	ce 01       	movw	r24, r28
    3f86:	54 d9       	rcall	.-3416   	; 0x3230 <_ZN4UTFT14LCD_Write_DATAEc>
    3f88:	67 e0       	ldi	r22, 0x07	; 7
    3f8a:	ce 01       	movw	r24, r28
    3f8c:	51 d9       	rcall	.-3422   	; 0x3230 <_ZN4UTFT14LCD_Write_DATAEc>
    3f8e:	63 e0       	ldi	r22, 0x03	; 3
    3f90:	ce 01       	movw	r24, r28
    3f92:	4e d9       	rcall	.-3428   	; 0x3230 <_ZN4UTFT14LCD_Write_DATAEc>
    3f94:	60 e1       	ldi	r22, 0x10	; 16
    3f96:	ce 01       	movw	r24, r28
    3f98:	4b d9       	rcall	.-3434   	; 0x3230 <_ZN4UTFT14LCD_Write_DATAEc>
    3f9a:	6a e2       	ldi	r22, 0x2A	; 42
    3f9c:	ce 01       	movw	r24, r28
    3f9e:	0c d9       	rcall	.-3560   	; 0x31b8 <_ZN4UTFT13LCD_Write_COMEc>
    3fa0:	60 e0       	ldi	r22, 0x00	; 0
    3fa2:	ce 01       	movw	r24, r28
    3fa4:	45 d9       	rcall	.-3446   	; 0x3230 <_ZN4UTFT14LCD_Write_DATAEc>
    3fa6:	60 e0       	ldi	r22, 0x00	; 0
    3fa8:	ce 01       	movw	r24, r28
    3faa:	42 d9       	rcall	.-3452   	; 0x3230 <_ZN4UTFT14LCD_Write_DATAEc>
    3fac:	60 e0       	ldi	r22, 0x00	; 0
    3fae:	ce 01       	movw	r24, r28
    3fb0:	3f d9       	rcall	.-3458   	; 0x3230 <_ZN4UTFT14LCD_Write_DATAEc>
    3fb2:	6f e7       	ldi	r22, 0x7F	; 127
    3fb4:	ce 01       	movw	r24, r28
    3fb6:	3c d9       	rcall	.-3464   	; 0x3230 <_ZN4UTFT14LCD_Write_DATAEc>
    3fb8:	6b e2       	ldi	r22, 0x2B	; 43
    3fba:	ce 01       	movw	r24, r28
    3fbc:	fd d8       	rcall	.-3590   	; 0x31b8 <_ZN4UTFT13LCD_Write_COMEc>
    3fbe:	60 e0       	ldi	r22, 0x00	; 0
    3fc0:	ce 01       	movw	r24, r28
    3fc2:	36 d9       	rcall	.-3476   	; 0x3230 <_ZN4UTFT14LCD_Write_DATAEc>
    3fc4:	60 e0       	ldi	r22, 0x00	; 0
    3fc6:	ce 01       	movw	r24, r28
    3fc8:	33 d9       	rcall	.-3482   	; 0x3230 <_ZN4UTFT14LCD_Write_DATAEc>
    3fca:	60 e0       	ldi	r22, 0x00	; 0
    3fcc:	ce 01       	movw	r24, r28
    3fce:	30 d9       	rcall	.-3488   	; 0x3230 <_ZN4UTFT14LCD_Write_DATAEc>
    3fd0:	6f e9       	ldi	r22, 0x9F	; 159
    3fd2:	ce 01       	movw	r24, r28
    3fd4:	2d d9       	rcall	.-3494   	; 0x3230 <_ZN4UTFT14LCD_Write_DATAEc>
    3fd6:	60 ef       	ldi	r22, 0xF0	; 240
    3fd8:	ce 01       	movw	r24, r28
    3fda:	ee d8       	rcall	.-3620   	; 0x31b8 <_ZN4UTFT13LCD_Write_COMEc>
    3fdc:	61 e0       	ldi	r22, 0x01	; 1
    3fde:	ce 01       	movw	r24, r28
    3fe0:	27 d9       	rcall	.-3506   	; 0x3230 <_ZN4UTFT14LCD_Write_DATAEc>
    3fe2:	66 ef       	ldi	r22, 0xF6	; 246
    3fe4:	ce 01       	movw	r24, r28
    3fe6:	e8 d8       	rcall	.-3632   	; 0x31b8 <_ZN4UTFT13LCD_Write_COMEc>
    3fe8:	60 e0       	ldi	r22, 0x00	; 0
    3fea:	0c 94 0f 28 	jmp	0x501e	; 0x501e <_ZN4UTFT7InitLCDEh+0x1b1e>
    3fee:	61 e0       	ldi	r22, 0x01	; 1
    3ff0:	ce 01       	movw	r24, r28
    3ff2:	e2 d8       	rcall	.-3644   	; 0x31b8 <_ZN4UTFT13LCD_Write_COMEc>
    3ff4:	65 e2       	ldi	r22, 0x25	; 37
    3ff6:	ce 01       	movw	r24, r28
    3ff8:	df d8       	rcall	.-3650   	; 0x31b8 <_ZN4UTFT13LCD_Write_COMEc>
    3ffa:	60 e4       	ldi	r22, 0x40	; 64
    3ffc:	ce 01       	movw	r24, r28
    3ffe:	18 d9       	rcall	.-3536   	; 0x3230 <_ZN4UTFT14LCD_Write_DATAEc>
    4000:	61 e1       	ldi	r22, 0x11	; 17
    4002:	ce 01       	movw	r24, r28
    4004:	d9 d8       	rcall	.-3662   	; 0x31b8 <_ZN4UTFT13LCD_Write_COMEc>
    4006:	6a e0       	ldi	r22, 0x0A	; 10
    4008:	70 e0       	ldi	r23, 0x00	; 0
    400a:	80 e0       	ldi	r24, 0x00	; 0
    400c:	90 e0       	ldi	r25, 0x00	; 0
    400e:	0e 94 41 36 	call	0x6c82	; 0x6c82 <delay>
    4012:	60 e2       	ldi	r22, 0x20	; 32
    4014:	ce 01       	movw	r24, r28
    4016:	d0 d8       	rcall	.-3680   	; 0x31b8 <_ZN4UTFT13LCD_Write_COMEc>
    4018:	68 e3       	ldi	r22, 0x38	; 56
    401a:	ce 01       	movw	r24, r28
    401c:	cd d8       	rcall	.-3686   	; 0x31b8 <_ZN4UTFT13LCD_Write_COMEc>
    401e:	69 e2       	ldi	r22, 0x29	; 41
    4020:	ce 01       	movw	r24, r28
    4022:	ca d8       	rcall	.-3692   	; 0x31b8 <_ZN4UTFT13LCD_Write_COMEc>
    4024:	63 e1       	ldi	r22, 0x13	; 19
    4026:	ce 01       	movw	r24, r28
    4028:	c7 d8       	rcall	.-3698   	; 0x31b8 <_ZN4UTFT13LCD_Write_COMEc>
    402a:	66 e3       	ldi	r22, 0x36	; 54
    402c:	ce 01       	movw	r24, r28
    402e:	c4 d8       	rcall	.-3704   	; 0x31b8 <_ZN4UTFT13LCD_Write_COMEc>
    4030:	60 e6       	ldi	r22, 0x60	; 96
    4032:	ce 01       	movw	r24, r28
    4034:	fd d8       	rcall	.-3590   	; 0x3230 <_ZN4UTFT14LCD_Write_DATAEc>
    4036:	6a e3       	ldi	r22, 0x3A	; 58
    4038:	ce 01       	movw	r24, r28
    403a:	be d8       	rcall	.-3716   	; 0x31b8 <_ZN4UTFT13LCD_Write_COMEc>
    403c:	65 e0       	ldi	r22, 0x05	; 5
    403e:	ce 01       	movw	r24, r28
    4040:	f7 d8       	rcall	.-3602   	; 0x3230 <_ZN4UTFT14LCD_Write_DATAEc>
    4042:	6a e2       	ldi	r22, 0x2A	; 42
    4044:	ce 01       	movw	r24, r28
    4046:	b8 d8       	rcall	.-3728   	; 0x31b8 <_ZN4UTFT13LCD_Write_COMEc>
    4048:	60 e0       	ldi	r22, 0x00	; 0
    404a:	ce 01       	movw	r24, r28
    404c:	f1 d8       	rcall	.-3614   	; 0x3230 <_ZN4UTFT14LCD_Write_DATAEc>
    404e:	6f e7       	ldi	r22, 0x7F	; 127
    4050:	ce 01       	movw	r24, r28
    4052:	ee d8       	rcall	.-3620   	; 0x3230 <_ZN4UTFT14LCD_Write_DATAEc>
    4054:	64 eb       	ldi	r22, 0xB4	; 180
    4056:	ce 01       	movw	r24, r28
    4058:	af d8       	rcall	.-3746   	; 0x31b8 <_ZN4UTFT13LCD_Write_COMEc>
    405a:	63 e0       	ldi	r22, 0x03	; 3
    405c:	ce 01       	movw	r24, r28
    405e:	e8 d8       	rcall	.-3632   	; 0x3230 <_ZN4UTFT14LCD_Write_DATAEc>
    4060:	68 e0       	ldi	r22, 0x08	; 8
    4062:	ce 01       	movw	r24, r28
    4064:	e5 d8       	rcall	.-3638   	; 0x3230 <_ZN4UTFT14LCD_Write_DATAEc>
    4066:	6b e0       	ldi	r22, 0x0B	; 11
    4068:	ce 01       	movw	r24, r28
    406a:	e2 d8       	rcall	.-3644   	; 0x3230 <_ZN4UTFT14LCD_Write_DATAEc>
    406c:	6e e0       	ldi	r22, 0x0E	; 14
    406e:	ce 01       	movw	r24, r28
    4070:	df d8       	rcall	.-3650   	; 0x3230 <_ZN4UTFT14LCD_Write_DATAEc>
    4072:	6a eb       	ldi	r22, 0xBA	; 186
    4074:	ce 01       	movw	r24, r28
    4076:	a0 d8       	rcall	.-3776   	; 0x31b8 <_ZN4UTFT13LCD_Write_COMEc>
    4078:	67 e0       	ldi	r22, 0x07	; 7
    407a:	ce 01       	movw	r24, r28
    407c:	d9 d8       	rcall	.-3662   	; 0x3230 <_ZN4UTFT14LCD_Write_DATAEc>
    407e:	6d e0       	ldi	r22, 0x0D	; 13
    4080:	ce 01       	movw	r24, r28
    4082:	d6 d8       	rcall	.-3668   	; 0x3230 <_ZN4UTFT14LCD_Write_DATAEc>
    4084:	6b e2       	ldi	r22, 0x2B	; 43
    4086:	ce 01       	movw	r24, r28
    4088:	97 d8       	rcall	.-3794   	; 0x31b8 <_ZN4UTFT13LCD_Write_COMEc>
    408a:	60 e0       	ldi	r22, 0x00	; 0
    408c:	ce 01       	movw	r24, r28
    408e:	d0 d8       	rcall	.-3680   	; 0x3230 <_ZN4UTFT14LCD_Write_DATAEc>
    4090:	6f e7       	ldi	r22, 0x7F	; 127
    4092:	5e c2       	rjmp	.+1212   	; 0x4550 <_ZN4UTFT7InitLCDEh+0x1050>
    4094:	63 e8       	ldi	r22, 0x83	; 131
    4096:	ce 01       	movw	r24, r28
    4098:	8f d8       	rcall	.-3810   	; 0x31b8 <_ZN4UTFT13LCD_Write_COMEc>
    409a:	62 e0       	ldi	r22, 0x02	; 2
    409c:	ce 01       	movw	r24, r28
    409e:	c8 d8       	rcall	.-3696   	; 0x3230 <_ZN4UTFT14LCD_Write_DATAEc>
    40a0:	65 e8       	ldi	r22, 0x85	; 133
    40a2:	ce 01       	movw	r24, r28
    40a4:	89 d8       	rcall	.-3822   	; 0x31b8 <_ZN4UTFT13LCD_Write_COMEc>
    40a6:	63 e0       	ldi	r22, 0x03	; 3
    40a8:	ce 01       	movw	r24, r28
    40aa:	c2 d8       	rcall	.-3708   	; 0x3230 <_ZN4UTFT14LCD_Write_DATAEc>
    40ac:	6b e8       	ldi	r22, 0x8B	; 139
    40ae:	ce 01       	movw	r24, r28
    40b0:	83 d8       	rcall	.-3834   	; 0x31b8 <_ZN4UTFT13LCD_Write_COMEc>
    40b2:	61 e0       	ldi	r22, 0x01	; 1
    40b4:	ce 01       	movw	r24, r28
    40b6:	bc d8       	rcall	.-3720   	; 0x3230 <_ZN4UTFT14LCD_Write_DATAEc>
    40b8:	6c e8       	ldi	r22, 0x8C	; 140
    40ba:	ce 01       	movw	r24, r28
    40bc:	7d d8       	rcall	.-3846   	; 0x31b8 <_ZN4UTFT13LCD_Write_COMEc>
    40be:	63 e9       	ldi	r22, 0x93	; 147
    40c0:	ce 01       	movw	r24, r28
    40c2:	b6 d8       	rcall	.-3732   	; 0x3230 <_ZN4UTFT14LCD_Write_DATAEc>
    40c4:	61 e9       	ldi	r22, 0x91	; 145
    40c6:	ce 01       	movw	r24, r28
    40c8:	77 d8       	rcall	.-3858   	; 0x31b8 <_ZN4UTFT13LCD_Write_COMEc>
    40ca:	61 e0       	ldi	r22, 0x01	; 1
    40cc:	ce 01       	movw	r24, r28
    40ce:	b0 d8       	rcall	.-3744   	; 0x3230 <_ZN4UTFT14LCD_Write_DATAEc>
    40d0:	63 e8       	ldi	r22, 0x83	; 131
    40d2:	ce 01       	movw	r24, r28
    40d4:	71 d8       	rcall	.-3870   	; 0x31b8 <_ZN4UTFT13LCD_Write_COMEc>
    40d6:	60 e0       	ldi	r22, 0x00	; 0
    40d8:	ce 01       	movw	r24, r28
    40da:	aa d8       	rcall	.-3756   	; 0x3230 <_ZN4UTFT14LCD_Write_DATAEc>
    40dc:	6e e3       	ldi	r22, 0x3E	; 62
    40de:	ce 01       	movw	r24, r28
    40e0:	6b d8       	rcall	.-3882   	; 0x31b8 <_ZN4UTFT13LCD_Write_COMEc>
    40e2:	60 eb       	ldi	r22, 0xB0	; 176
    40e4:	ce 01       	movw	r24, r28
    40e6:	a4 d8       	rcall	.-3768   	; 0x3230 <_ZN4UTFT14LCD_Write_DATAEc>
    40e8:	6f e3       	ldi	r22, 0x3F	; 63
    40ea:	ce 01       	movw	r24, r28
    40ec:	65 d8       	rcall	.-3894   	; 0x31b8 <_ZN4UTFT13LCD_Write_COMEc>
    40ee:	63 e0       	ldi	r22, 0x03	; 3
    40f0:	ce 01       	movw	r24, r28
    40f2:	9e d8       	rcall	.-3780   	; 0x3230 <_ZN4UTFT14LCD_Write_DATAEc>
    40f4:	60 e4       	ldi	r22, 0x40	; 64
    40f6:	ce 01       	movw	r24, r28
    40f8:	5f d8       	rcall	.-3906   	; 0x31b8 <_ZN4UTFT13LCD_Write_COMEc>
    40fa:	60 e1       	ldi	r22, 0x10	; 16
    40fc:	ce 01       	movw	r24, r28
    40fe:	98 d8       	rcall	.-3792   	; 0x3230 <_ZN4UTFT14LCD_Write_DATAEc>
    4100:	61 e4       	ldi	r22, 0x41	; 65
    4102:	ce 01       	movw	r24, r28
    4104:	59 d8       	rcall	.-3918   	; 0x31b8 <_ZN4UTFT13LCD_Write_COMEc>
    4106:	66 e5       	ldi	r22, 0x56	; 86
    4108:	ce 01       	movw	r24, r28
    410a:	92 d8       	rcall	.-3804   	; 0x3230 <_ZN4UTFT14LCD_Write_DATAEc>
    410c:	62 e4       	ldi	r22, 0x42	; 66
    410e:	ce 01       	movw	r24, r28
    4110:	53 d8       	rcall	.-3930   	; 0x31b8 <_ZN4UTFT13LCD_Write_COMEc>
    4112:	63 e1       	ldi	r22, 0x13	; 19
    4114:	ce 01       	movw	r24, r28
    4116:	8c d8       	rcall	.-3816   	; 0x3230 <_ZN4UTFT14LCD_Write_DATAEc>
    4118:	63 e4       	ldi	r22, 0x43	; 67
    411a:	ce 01       	movw	r24, r28
    411c:	4d d8       	rcall	.-3942   	; 0x31b8 <_ZN4UTFT13LCD_Write_COMEc>
    411e:	66 e4       	ldi	r22, 0x46	; 70
    4120:	ce 01       	movw	r24, r28
    4122:	86 d8       	rcall	.-3828   	; 0x3230 <_ZN4UTFT14LCD_Write_DATAEc>
    4124:	64 e4       	ldi	r22, 0x44	; 68
    4126:	ce 01       	movw	r24, r28
    4128:	47 d8       	rcall	.-3954   	; 0x31b8 <_ZN4UTFT13LCD_Write_COMEc>
    412a:	63 e2       	ldi	r22, 0x23	; 35
    412c:	ce 01       	movw	r24, r28
    412e:	80 d8       	rcall	.-3840   	; 0x3230 <_ZN4UTFT14LCD_Write_DATAEc>
    4130:	65 e4       	ldi	r22, 0x45	; 69
    4132:	ce 01       	movw	r24, r28
    4134:	41 d8       	rcall	.-3966   	; 0x31b8 <_ZN4UTFT13LCD_Write_COMEc>
    4136:	66 e7       	ldi	r22, 0x76	; 118
    4138:	ce 01       	movw	r24, r28
    413a:	7a d8       	rcall	.-3852   	; 0x3230 <_ZN4UTFT14LCD_Write_DATAEc>
    413c:	66 e4       	ldi	r22, 0x46	; 70
    413e:	ce 01       	movw	r24, r28
    4140:	3b d8       	rcall	.-3978   	; 0x31b8 <_ZN4UTFT13LCD_Write_COMEc>
    4142:	60 e0       	ldi	r22, 0x00	; 0
    4144:	ce 01       	movw	r24, r28
    4146:	74 d8       	rcall	.-3864   	; 0x3230 <_ZN4UTFT14LCD_Write_DATAEc>
    4148:	67 e4       	ldi	r22, 0x47	; 71
    414a:	ce 01       	movw	r24, r28
    414c:	35 d8       	rcall	.-3990   	; 0x31b8 <_ZN4UTFT13LCD_Write_COMEc>
    414e:	6e e5       	ldi	r22, 0x5E	; 94
    4150:	ce 01       	movw	r24, r28
    4152:	6e d8       	rcall	.-3876   	; 0x3230 <_ZN4UTFT14LCD_Write_DATAEc>
    4154:	68 e4       	ldi	r22, 0x48	; 72
    4156:	ce 01       	movw	r24, r28
    4158:	2f d8       	rcall	.-4002   	; 0x31b8 <_ZN4UTFT13LCD_Write_COMEc>
    415a:	6f e4       	ldi	r22, 0x4F	; 79
    415c:	ce 01       	movw	r24, r28
    415e:	68 d8       	rcall	.-3888   	; 0x3230 <_ZN4UTFT14LCD_Write_DATAEc>
    4160:	69 e4       	ldi	r22, 0x49	; 73
    4162:	ce 01       	movw	r24, r28
    4164:	29 d8       	rcall	.-4014   	; 0x31b8 <_ZN4UTFT13LCD_Write_COMEc>
    4166:	60 e4       	ldi	r22, 0x40	; 64
    4168:	ce 01       	movw	r24, r28
    416a:	62 d8       	rcall	.-3900   	; 0x3230 <_ZN4UTFT14LCD_Write_DATAEc>
    416c:	67 e1       	ldi	r22, 0x17	; 23
    416e:	ce 01       	movw	r24, r28
    4170:	23 d8       	rcall	.-4026   	; 0x31b8 <_ZN4UTFT13LCD_Write_COMEc>
    4172:	61 e9       	ldi	r22, 0x91	; 145
    4174:	ce 01       	movw	r24, r28
    4176:	5c d8       	rcall	.-3912   	; 0x3230 <_ZN4UTFT14LCD_Write_DATAEc>
    4178:	6b e2       	ldi	r22, 0x2B	; 43
    417a:	ce 01       	movw	r24, r28
    417c:	1d d8       	rcall	.-4038   	; 0x31b8 <_ZN4UTFT13LCD_Write_COMEc>
    417e:	69 ef       	ldi	r22, 0xF9	; 249
    4180:	ce 01       	movw	r24, r28
    4182:	56 d8       	rcall	.-3924   	; 0x3230 <_ZN4UTFT14LCD_Write_DATAEc>
    4184:	6a e0       	ldi	r22, 0x0A	; 10
    4186:	70 e0       	ldi	r23, 0x00	; 0
    4188:	80 e0       	ldi	r24, 0x00	; 0
    418a:	90 e0       	ldi	r25, 0x00	; 0
    418c:	0e 94 41 36 	call	0x6c82	; 0x6c82 <delay>
    4190:	6b e1       	ldi	r22, 0x1B	; 27
    4192:	ce 01       	movw	r24, r28
    4194:	11 d8       	rcall	.-4062   	; 0x31b8 <_ZN4UTFT13LCD_Write_COMEc>
    4196:	64 e1       	ldi	r22, 0x14	; 20
    4198:	ce 01       	movw	r24, r28
    419a:	4a d8       	rcall	.-3948   	; 0x3230 <_ZN4UTFT14LCD_Write_DATAEc>
    419c:	6a e1       	ldi	r22, 0x1A	; 26
    419e:	ce 01       	movw	r24, r28
    41a0:	0b d8       	rcall	.-4074   	; 0x31b8 <_ZN4UTFT13LCD_Write_COMEc>
    41a2:	61 e1       	ldi	r22, 0x11	; 17
    41a4:	ce 01       	movw	r24, r28
    41a6:	44 d8       	rcall	.-3960   	; 0x3230 <_ZN4UTFT14LCD_Write_DATAEc>
    41a8:	6c e1       	ldi	r22, 0x1C	; 28
    41aa:	ce 01       	movw	r24, r28
    41ac:	05 d8       	rcall	.-4086   	; 0x31b8 <_ZN4UTFT13LCD_Write_COMEc>
    41ae:	66 e0       	ldi	r22, 0x06	; 6
    41b0:	ce 01       	movw	r24, r28
    41b2:	3e d8       	rcall	.-3972   	; 0x3230 <_ZN4UTFT14LCD_Write_DATAEc>
    41b4:	6f e1       	ldi	r22, 0x1F	; 31
    41b6:	ce 01       	movw	r24, r28
    41b8:	0e 94 dc 18 	call	0x31b8	; 0x31b8 <_ZN4UTFT13LCD_Write_COMEc>
    41bc:	62 e4       	ldi	r22, 0x42	; 66
    41be:	ce 01       	movw	r24, r28
    41c0:	37 d8       	rcall	.-3986   	; 0x3230 <_ZN4UTFT14LCD_Write_DATAEc>
    41c2:	64 e1       	ldi	r22, 0x14	; 20
    41c4:	70 e0       	ldi	r23, 0x00	; 0
    41c6:	80 e0       	ldi	r24, 0x00	; 0
    41c8:	90 e0       	ldi	r25, 0x00	; 0
    41ca:	0e 94 41 36 	call	0x6c82	; 0x6c82 <delay>
    41ce:	69 e1       	ldi	r22, 0x19	; 25
    41d0:	ce 01       	movw	r24, r28
    41d2:	0e 94 dc 18 	call	0x31b8	; 0x31b8 <_ZN4UTFT13LCD_Write_COMEc>
    41d6:	6a e0       	ldi	r22, 0x0A	; 10
    41d8:	ce 01       	movw	r24, r28
    41da:	2a d8       	rcall	.-4012   	; 0x3230 <_ZN4UTFT14LCD_Write_DATAEc>
    41dc:	69 e1       	ldi	r22, 0x19	; 25
    41de:	ce 01       	movw	r24, r28
    41e0:	0e 94 dc 18 	call	0x31b8	; 0x31b8 <_ZN4UTFT13LCD_Write_COMEc>
    41e4:	6a e1       	ldi	r22, 0x1A	; 26
    41e6:	ce 01       	movw	r24, r28
    41e8:	23 d8       	rcall	.-4026   	; 0x3230 <_ZN4UTFT14LCD_Write_DATAEc>
    41ea:	68 e2       	ldi	r22, 0x28	; 40
    41ec:	70 e0       	ldi	r23, 0x00	; 0
    41ee:	80 e0       	ldi	r24, 0x00	; 0
    41f0:	90 e0       	ldi	r25, 0x00	; 0
    41f2:	0e 94 41 36 	call	0x6c82	; 0x6c82 <delay>
    41f6:	69 e1       	ldi	r22, 0x19	; 25
    41f8:	ce 01       	movw	r24, r28
    41fa:	0e 94 dc 18 	call	0x31b8	; 0x31b8 <_ZN4UTFT13LCD_Write_COMEc>
    41fe:	62 e1       	ldi	r22, 0x12	; 18
    4200:	ce 01       	movw	r24, r28
    4202:	16 d8       	rcall	.-4052   	; 0x3230 <_ZN4UTFT14LCD_Write_DATAEc>
    4204:	68 e2       	ldi	r22, 0x28	; 40
    4206:	70 e0       	ldi	r23, 0x00	; 0
    4208:	80 e0       	ldi	r24, 0x00	; 0
    420a:	90 e0       	ldi	r25, 0x00	; 0
    420c:	0e 94 41 36 	call	0x6c82	; 0x6c82 <delay>
    4210:	6e e1       	ldi	r22, 0x1E	; 30
    4212:	ce 01       	movw	r24, r28
    4214:	0e 94 dc 18 	call	0x31b8	; 0x31b8 <_ZN4UTFT13LCD_Write_COMEc>
    4218:	67 e2       	ldi	r22, 0x27	; 39
    421a:	ce 01       	movw	r24, r28
    421c:	09 d8       	rcall	.-4078   	; 0x3230 <_ZN4UTFT14LCD_Write_DATAEc>
    421e:	64 e6       	ldi	r22, 0x64	; 100
    4220:	70 e0       	ldi	r23, 0x00	; 0
    4222:	80 e0       	ldi	r24, 0x00	; 0
    4224:	90 e0       	ldi	r25, 0x00	; 0
    4226:	0e 94 41 36 	call	0x6c82	; 0x6c82 <delay>
    422a:	64 e2       	ldi	r22, 0x24	; 36
    422c:	ce 01       	movw	r24, r28
    422e:	0e 94 dc 18 	call	0x31b8	; 0x31b8 <_ZN4UTFT13LCD_Write_COMEc>
    4232:	60 e6       	ldi	r22, 0x60	; 96
    4234:	ce 01       	movw	r24, r28
    4236:	0e 94 18 19 	call	0x3230	; 0x3230 <_ZN4UTFT14LCD_Write_DATAEc>
    423a:	6d e3       	ldi	r22, 0x3D	; 61
    423c:	ce 01       	movw	r24, r28
    423e:	0e 94 dc 18 	call	0x31b8	; 0x31b8 <_ZN4UTFT13LCD_Write_COMEc>
    4242:	60 e4       	ldi	r22, 0x40	; 64
    4244:	ce 01       	movw	r24, r28
    4246:	0e 94 18 19 	call	0x3230	; 0x3230 <_ZN4UTFT14LCD_Write_DATAEc>
    424a:	64 e3       	ldi	r22, 0x34	; 52
    424c:	ce 01       	movw	r24, r28
    424e:	0e 94 dc 18 	call	0x31b8	; 0x31b8 <_ZN4UTFT13LCD_Write_COMEc>
    4252:	68 e3       	ldi	r22, 0x38	; 56
    4254:	ce 01       	movw	r24, r28
    4256:	0e 94 18 19 	call	0x3230	; 0x3230 <_ZN4UTFT14LCD_Write_DATAEc>
    425a:	65 e3       	ldi	r22, 0x35	; 53
    425c:	ce 01       	movw	r24, r28
    425e:	0e 94 dc 18 	call	0x31b8	; 0x31b8 <_ZN4UTFT13LCD_Write_COMEc>
    4262:	68 e3       	ldi	r22, 0x38	; 56
    4264:	ce 01       	movw	r24, r28
    4266:	0e 94 18 19 	call	0x3230	; 0x3230 <_ZN4UTFT14LCD_Write_DATAEc>
    426a:	64 e2       	ldi	r22, 0x24	; 36
    426c:	ce 01       	movw	r24, r28
    426e:	0e 94 dc 18 	call	0x31b8	; 0x31b8 <_ZN4UTFT13LCD_Write_COMEc>
    4272:	68 e3       	ldi	r22, 0x38	; 56
    4274:	ce 01       	movw	r24, r28
    4276:	0e 94 18 19 	call	0x3230	; 0x3230 <_ZN4UTFT14LCD_Write_DATAEc>
    427a:	68 e2       	ldi	r22, 0x28	; 40
    427c:	70 e0       	ldi	r23, 0x00	; 0
    427e:	80 e0       	ldi	r24, 0x00	; 0
    4280:	90 e0       	ldi	r25, 0x00	; 0
    4282:	0e 94 41 36 	call	0x6c82	; 0x6c82 <delay>
    4286:	64 e2       	ldi	r22, 0x24	; 36
    4288:	ce 01       	movw	r24, r28
    428a:	0e 94 dc 18 	call	0x31b8	; 0x31b8 <_ZN4UTFT13LCD_Write_COMEc>
    428e:	6c e3       	ldi	r22, 0x3C	; 60
    4290:	ce 01       	movw	r24, r28
    4292:	0e 94 18 19 	call	0x3230	; 0x3230 <_ZN4UTFT14LCD_Write_DATAEc>
    4296:	66 e1       	ldi	r22, 0x16	; 22
    4298:	ce 01       	movw	r24, r28
    429a:	0e 94 dc 18 	call	0x31b8	; 0x31b8 <_ZN4UTFT13LCD_Write_COMEc>
    429e:	6c e1       	ldi	r22, 0x1C	; 28
    42a0:	ce 01       	movw	r24, r28
    42a2:	0e 94 18 19 	call	0x3230	; 0x3230 <_ZN4UTFT14LCD_Write_DATAEc>
    42a6:	61 e0       	ldi	r22, 0x01	; 1
    42a8:	ce 01       	movw	r24, r28
    42aa:	0e 94 dc 18 	call	0x31b8	; 0x31b8 <_ZN4UTFT13LCD_Write_COMEc>
    42ae:	66 e0       	ldi	r22, 0x06	; 6
    42b0:	ce 01       	movw	r24, r28
    42b2:	0e 94 18 19 	call	0x3230	; 0x3230 <_ZN4UTFT14LCD_Write_DATAEc>
    42b6:	65 e5       	ldi	r22, 0x55	; 85
    42b8:	ce 01       	movw	r24, r28
    42ba:	0e 94 dc 18 	call	0x31b8	; 0x31b8 <_ZN4UTFT13LCD_Write_COMEc>
    42be:	60 e0       	ldi	r22, 0x00	; 0
    42c0:	ce 01       	movw	r24, r28
    42c2:	0e 94 18 19 	call	0x3230	; 0x3230 <_ZN4UTFT14LCD_Write_DATAEc>
    42c6:	62 e0       	ldi	r22, 0x02	; 2
    42c8:	ce 01       	movw	r24, r28
    42ca:	0e 94 dc 18 	call	0x31b8	; 0x31b8 <_ZN4UTFT13LCD_Write_COMEc>
    42ce:	60 e0       	ldi	r22, 0x00	; 0
    42d0:	ce 01       	movw	r24, r28
    42d2:	0e 94 18 19 	call	0x3230	; 0x3230 <_ZN4UTFT14LCD_Write_DATAEc>
    42d6:	63 e0       	ldi	r22, 0x03	; 3
    42d8:	ce 01       	movw	r24, r28
    42da:	0e 94 dc 18 	call	0x31b8	; 0x31b8 <_ZN4UTFT13LCD_Write_COMEc>
    42de:	60 e0       	ldi	r22, 0x00	; 0
    42e0:	ce 01       	movw	r24, r28
    42e2:	0e 94 18 19 	call	0x3230	; 0x3230 <_ZN4UTFT14LCD_Write_DATAEc>
    42e6:	64 e0       	ldi	r22, 0x04	; 4
    42e8:	ce 01       	movw	r24, r28
    42ea:	0e 94 dc 18 	call	0x31b8	; 0x31b8 <_ZN4UTFT13LCD_Write_COMEc>
    42ee:	60 e0       	ldi	r22, 0x00	; 0
    42f0:	ce 01       	movw	r24, r28
    42f2:	0e 94 18 19 	call	0x3230	; 0x3230 <_ZN4UTFT14LCD_Write_DATAEc>
    42f6:	65 e0       	ldi	r22, 0x05	; 5
    42f8:	ce 01       	movw	r24, r28
    42fa:	0e 94 dc 18 	call	0x31b8	; 0x31b8 <_ZN4UTFT13LCD_Write_COMEc>
    42fe:	6f ee       	ldi	r22, 0xEF	; 239
    4300:	ce 01       	movw	r24, r28
    4302:	0e 94 18 19 	call	0x3230	; 0x3230 <_ZN4UTFT14LCD_Write_DATAEc>
    4306:	66 e0       	ldi	r22, 0x06	; 6
    4308:	ce 01       	movw	r24, r28
    430a:	0e 94 dc 18 	call	0x31b8	; 0x31b8 <_ZN4UTFT13LCD_Write_COMEc>
    430e:	60 e0       	ldi	r22, 0x00	; 0
    4310:	ce 01       	movw	r24, r28
    4312:	0e 94 18 19 	call	0x3230	; 0x3230 <_ZN4UTFT14LCD_Write_DATAEc>
    4316:	67 e0       	ldi	r22, 0x07	; 7
    4318:	ce 01       	movw	r24, r28
    431a:	0e 94 dc 18 	call	0x31b8	; 0x31b8 <_ZN4UTFT13LCD_Write_COMEc>
    431e:	60 e0       	ldi	r22, 0x00	; 0
    4320:	ce 01       	movw	r24, r28
    4322:	0e 94 18 19 	call	0x3230	; 0x3230 <_ZN4UTFT14LCD_Write_DATAEc>
    4326:	68 e0       	ldi	r22, 0x08	; 8
    4328:	ce 01       	movw	r24, r28
    432a:	0e 94 dc 18 	call	0x31b8	; 0x31b8 <_ZN4UTFT13LCD_Write_COMEc>
    432e:	61 e0       	ldi	r22, 0x01	; 1
    4330:	ce 01       	movw	r24, r28
    4332:	0e 94 18 19 	call	0x3230	; 0x3230 <_ZN4UTFT14LCD_Write_DATAEc>
    4336:	69 e0       	ldi	r22, 0x09	; 9
    4338:	ce 01       	movw	r24, r28
    433a:	0e 94 dc 18 	call	0x31b8	; 0x31b8 <_ZN4UTFT13LCD_Write_COMEc>
    433e:	6f e8       	ldi	r22, 0x8F	; 143
    4340:	ce 01       	movw	r24, r28
    4342:	0e 94 18 19 	call	0x3230	; 0x3230 <_ZN4UTFT14LCD_Write_DATAEc>
    4346:	d5 cc       	rjmp	.-1622   	; 0x3cf2 <_ZN4UTFT7InitLCDEh+0x7f2>
    4348:	62 ee       	ldi	r22, 0xE2	; 226
    434a:	ce 01       	movw	r24, r28
    434c:	0e 94 dc 18 	call	0x31b8	; 0x31b8 <_ZN4UTFT13LCD_Write_COMEc>
    4350:	63 e2       	ldi	r22, 0x23	; 35
    4352:	ce 01       	movw	r24, r28
    4354:	0e 94 18 19 	call	0x3230	; 0x3230 <_ZN4UTFT14LCD_Write_DATAEc>
    4358:	62 e0       	ldi	r22, 0x02	; 2
    435a:	ce 01       	movw	r24, r28
    435c:	0e 94 18 19 	call	0x3230	; 0x3230 <_ZN4UTFT14LCD_Write_DATAEc>
    4360:	64 e5       	ldi	r22, 0x54	; 84
    4362:	ce 01       	movw	r24, r28
    4364:	0e 94 18 19 	call	0x3230	; 0x3230 <_ZN4UTFT14LCD_Write_DATAEc>
    4368:	60 ee       	ldi	r22, 0xE0	; 224
    436a:	ce 01       	movw	r24, r28
    436c:	0e 94 dc 18 	call	0x31b8	; 0x31b8 <_ZN4UTFT13LCD_Write_COMEc>
    4370:	61 e0       	ldi	r22, 0x01	; 1
    4372:	ce 01       	movw	r24, r28
    4374:	0e 94 18 19 	call	0x3230	; 0x3230 <_ZN4UTFT14LCD_Write_DATAEc>
    4378:	6a e0       	ldi	r22, 0x0A	; 10
    437a:	70 e0       	ldi	r23, 0x00	; 0
    437c:	80 e0       	ldi	r24, 0x00	; 0
    437e:	90 e0       	ldi	r25, 0x00	; 0
    4380:	0e 94 41 36 	call	0x6c82	; 0x6c82 <delay>
    4384:	60 ee       	ldi	r22, 0xE0	; 224
    4386:	ce 01       	movw	r24, r28
    4388:	0e 94 dc 18 	call	0x31b8	; 0x31b8 <_ZN4UTFT13LCD_Write_COMEc>
    438c:	63 e0       	ldi	r22, 0x03	; 3
    438e:	ce 01       	movw	r24, r28
    4390:	0e 94 18 19 	call	0x3230	; 0x3230 <_ZN4UTFT14LCD_Write_DATAEc>
    4394:	6a e0       	ldi	r22, 0x0A	; 10
    4396:	70 e0       	ldi	r23, 0x00	; 0
    4398:	80 e0       	ldi	r24, 0x00	; 0
    439a:	90 e0       	ldi	r25, 0x00	; 0
    439c:	0e 94 41 36 	call	0x6c82	; 0x6c82 <delay>
    43a0:	61 e0       	ldi	r22, 0x01	; 1
    43a2:	ce 01       	movw	r24, r28
    43a4:	0e 94 dc 18 	call	0x31b8	; 0x31b8 <_ZN4UTFT13LCD_Write_COMEc>
    43a8:	64 e6       	ldi	r22, 0x64	; 100
    43aa:	70 e0       	ldi	r23, 0x00	; 0
    43ac:	80 e0       	ldi	r24, 0x00	; 0
    43ae:	90 e0       	ldi	r25, 0x00	; 0
    43b0:	0e 94 41 36 	call	0x6c82	; 0x6c82 <delay>
    43b4:	66 ee       	ldi	r22, 0xE6	; 230
    43b6:	ce 01       	movw	r24, r28
    43b8:	0e 94 dc 18 	call	0x31b8	; 0x31b8 <_ZN4UTFT13LCD_Write_COMEc>
    43bc:	61 e0       	ldi	r22, 0x01	; 1
    43be:	ce 01       	movw	r24, r28
    43c0:	0e 94 18 19 	call	0x3230	; 0x3230 <_ZN4UTFT14LCD_Write_DATAEc>
    43c4:	6f e1       	ldi	r22, 0x1F	; 31
    43c6:	ce 01       	movw	r24, r28
    43c8:	0e 94 18 19 	call	0x3230	; 0x3230 <_ZN4UTFT14LCD_Write_DATAEc>
    43cc:	6f ef       	ldi	r22, 0xFF	; 255
    43ce:	ce 01       	movw	r24, r28
    43d0:	0e 94 18 19 	call	0x3230	; 0x3230 <_ZN4UTFT14LCD_Write_DATAEc>
    43d4:	60 eb       	ldi	r22, 0xB0	; 176
    43d6:	ce 01       	movw	r24, r28
    43d8:	0e 94 dc 18 	call	0x31b8	; 0x31b8 <_ZN4UTFT13LCD_Write_COMEc>
    43dc:	60 e2       	ldi	r22, 0x20	; 32
    43de:	ce 01       	movw	r24, r28
    43e0:	0e 94 18 19 	call	0x3230	; 0x3230 <_ZN4UTFT14LCD_Write_DATAEc>
    43e4:	60 e0       	ldi	r22, 0x00	; 0
    43e6:	ce 01       	movw	r24, r28
    43e8:	0e 94 18 19 	call	0x3230	; 0x3230 <_ZN4UTFT14LCD_Write_DATAEc>
    43ec:	61 e0       	ldi	r22, 0x01	; 1
    43ee:	ce 01       	movw	r24, r28
    43f0:	0e 94 18 19 	call	0x3230	; 0x3230 <_ZN4UTFT14LCD_Write_DATAEc>
    43f4:	6f ed       	ldi	r22, 0xDF	; 223
    43f6:	ce 01       	movw	r24, r28
    43f8:	0e 94 18 19 	call	0x3230	; 0x3230 <_ZN4UTFT14LCD_Write_DATAEc>
    43fc:	61 e0       	ldi	r22, 0x01	; 1
    43fe:	ce 01       	movw	r24, r28
    4400:	0e 94 18 19 	call	0x3230	; 0x3230 <_ZN4UTFT14LCD_Write_DATAEc>
    4404:	6f e0       	ldi	r22, 0x0F	; 15
    4406:	ce 01       	movw	r24, r28
    4408:	0e 94 18 19 	call	0x3230	; 0x3230 <_ZN4UTFT14LCD_Write_DATAEc>
    440c:	60 e0       	ldi	r22, 0x00	; 0
    440e:	ce 01       	movw	r24, r28
    4410:	0e 94 18 19 	call	0x3230	; 0x3230 <_ZN4UTFT14LCD_Write_DATAEc>
    4414:	64 eb       	ldi	r22, 0xB4	; 180
    4416:	ce 01       	movw	r24, r28
    4418:	0e 94 dc 18 	call	0x31b8	; 0x31b8 <_ZN4UTFT13LCD_Write_COMEc>
    441c:	62 e0       	ldi	r22, 0x02	; 2
    441e:	ce 01       	movw	r24, r28
    4420:	0e 94 18 19 	call	0x3230	; 0x3230 <_ZN4UTFT14LCD_Write_DATAEc>
    4424:	63 e1       	ldi	r22, 0x13	; 19
    4426:	ce 01       	movw	r24, r28
    4428:	0e 94 18 19 	call	0x3230	; 0x3230 <_ZN4UTFT14LCD_Write_DATAEc>
    442c:	60 e0       	ldi	r22, 0x00	; 0
    442e:	ce 01       	movw	r24, r28
    4430:	0e 94 18 19 	call	0x3230	; 0x3230 <_ZN4UTFT14LCD_Write_DATAEc>
    4434:	68 e0       	ldi	r22, 0x08	; 8
    4436:	ce 01       	movw	r24, r28
    4438:	0e 94 18 19 	call	0x3230	; 0x3230 <_ZN4UTFT14LCD_Write_DATAEc>
    443c:	6b e2       	ldi	r22, 0x2B	; 43
    443e:	ce 01       	movw	r24, r28
    4440:	0e 94 18 19 	call	0x3230	; 0x3230 <_ZN4UTFT14LCD_Write_DATAEc>
    4444:	60 e0       	ldi	r22, 0x00	; 0
    4446:	ce 01       	movw	r24, r28
    4448:	0e 94 18 19 	call	0x3230	; 0x3230 <_ZN4UTFT14LCD_Write_DATAEc>
    444c:	62 e0       	ldi	r22, 0x02	; 2
    444e:	ce 01       	movw	r24, r28
    4450:	0e 94 18 19 	call	0x3230	; 0x3230 <_ZN4UTFT14LCD_Write_DATAEc>
    4454:	60 e0       	ldi	r22, 0x00	; 0
    4456:	ce 01       	movw	r24, r28
    4458:	0e 94 18 19 	call	0x3230	; 0x3230 <_ZN4UTFT14LCD_Write_DATAEc>
    445c:	66 eb       	ldi	r22, 0xB6	; 182
    445e:	ce 01       	movw	r24, r28
    4460:	0e 94 dc 18 	call	0x31b8	; 0x31b8 <_ZN4UTFT13LCD_Write_COMEc>
    4464:	61 e0       	ldi	r22, 0x01	; 1
    4466:	ce 01       	movw	r24, r28
    4468:	0e 94 18 19 	call	0x3230	; 0x3230 <_ZN4UTFT14LCD_Write_DATAEc>
    446c:	60 e2       	ldi	r22, 0x20	; 32
    446e:	ce 01       	movw	r24, r28
    4470:	0e 94 18 19 	call	0x3230	; 0x3230 <_ZN4UTFT14LCD_Write_DATAEc>
    4474:	60 e0       	ldi	r22, 0x00	; 0
    4476:	ce 01       	movw	r24, r28
    4478:	0e 94 18 19 	call	0x3230	; 0x3230 <_ZN4UTFT14LCD_Write_DATAEc>
    447c:	64 e0       	ldi	r22, 0x04	; 4
    447e:	ce 01       	movw	r24, r28
    4480:	0e 94 18 19 	call	0x3230	; 0x3230 <_ZN4UTFT14LCD_Write_DATAEc>
    4484:	6c e0       	ldi	r22, 0x0C	; 12
    4486:	ce 01       	movw	r24, r28
    4488:	0e 94 18 19 	call	0x3230	; 0x3230 <_ZN4UTFT14LCD_Write_DATAEc>
    448c:	60 e0       	ldi	r22, 0x00	; 0
    448e:	ce 01       	movw	r24, r28
    4490:	0e 94 18 19 	call	0x3230	; 0x3230 <_ZN4UTFT14LCD_Write_DATAEc>
    4494:	62 e0       	ldi	r22, 0x02	; 2
    4496:	ce 01       	movw	r24, r28
    4498:	0e 94 18 19 	call	0x3230	; 0x3230 <_ZN4UTFT14LCD_Write_DATAEc>
    449c:	6a eb       	ldi	r22, 0xBA	; 186
    449e:	ce 01       	movw	r24, r28
    44a0:	0e 94 dc 18 	call	0x31b8	; 0x31b8 <_ZN4UTFT13LCD_Write_COMEc>
    44a4:	6f e0       	ldi	r22, 0x0F	; 15
    44a6:	ce 01       	movw	r24, r28
    44a8:	0e 94 18 19 	call	0x3230	; 0x3230 <_ZN4UTFT14LCD_Write_DATAEc>
    44ac:	68 eb       	ldi	r22, 0xB8	; 184
    44ae:	ce 01       	movw	r24, r28
    44b0:	0e 94 dc 18 	call	0x31b8	; 0x31b8 <_ZN4UTFT13LCD_Write_COMEc>
    44b4:	67 e0       	ldi	r22, 0x07	; 7
    44b6:	ce 01       	movw	r24, r28
    44b8:	0e 94 18 19 	call	0x3230	; 0x3230 <_ZN4UTFT14LCD_Write_DATAEc>
    44bc:	61 e0       	ldi	r22, 0x01	; 1
    44be:	ce 01       	movw	r24, r28
    44c0:	0e 94 18 19 	call	0x3230	; 0x3230 <_ZN4UTFT14LCD_Write_DATAEc>
    44c4:	66 e3       	ldi	r22, 0x36	; 54
    44c6:	ce 01       	movw	r24, r28
    44c8:	0e 94 dc 18 	call	0x31b8	; 0x31b8 <_ZN4UTFT13LCD_Write_COMEc>
    44cc:	62 e2       	ldi	r22, 0x22	; 34
    44ce:	ce 01       	movw	r24, r28
    44d0:	0e 94 18 19 	call	0x3230	; 0x3230 <_ZN4UTFT14LCD_Write_DATAEc>
    44d4:	60 ef       	ldi	r22, 0xF0	; 240
    44d6:	ce 01       	movw	r24, r28
    44d8:	0e 94 dc 18 	call	0x31b8	; 0x31b8 <_ZN4UTFT13LCD_Write_COMEc>
    44dc:	63 e0       	ldi	r22, 0x03	; 3
    44de:	ce 01       	movw	r24, r28
    44e0:	0e 94 18 19 	call	0x3230	; 0x3230 <_ZN4UTFT14LCD_Write_DATAEc>
    44e4:	61 e0       	ldi	r22, 0x01	; 1
    44e6:	70 e0       	ldi	r23, 0x00	; 0
    44e8:	80 e0       	ldi	r24, 0x00	; 0
    44ea:	90 e0       	ldi	r25, 0x00	; 0
    44ec:	0e 94 41 36 	call	0x6c82	; 0x6c82 <delay>
    44f0:	0f e0       	ldi	r16, 0x0F	; 15
    44f2:	11 e0       	ldi	r17, 0x01	; 1
    44f4:	2f ed       	ldi	r18, 0xDF	; 223
    44f6:	31 e0       	ldi	r19, 0x01	; 1
    44f8:	40 e0       	ldi	r20, 0x00	; 0
    44fa:	50 e0       	ldi	r21, 0x00	; 0
    44fc:	60 e0       	ldi	r22, 0x00	; 0
    44fe:	70 e0       	ldi	r23, 0x00	; 0
    4500:	ce 01       	movw	r24, r28
    4502:	0e 94 3f 19 	call	0x327e	; 0x327e <_ZN4UTFT5setXYEjjjj>
    4506:	69 e2       	ldi	r22, 0x29	; 41
    4508:	ce 01       	movw	r24, r28
    450a:	0e 94 dc 18 	call	0x31b8	; 0x31b8 <_ZN4UTFT13LCD_Write_COMEc>
    450e:	6e eb       	ldi	r22, 0xBE	; 190
    4510:	ce 01       	movw	r24, r28
    4512:	0e 94 dc 18 	call	0x31b8	; 0x31b8 <_ZN4UTFT13LCD_Write_COMEc>
    4516:	66 e0       	ldi	r22, 0x06	; 6
    4518:	ce 01       	movw	r24, r28
    451a:	0e 94 18 19 	call	0x3230	; 0x3230 <_ZN4UTFT14LCD_Write_DATAEc>
    451e:	60 ef       	ldi	r22, 0xF0	; 240
    4520:	ce 01       	movw	r24, r28
    4522:	0e 94 18 19 	call	0x3230	; 0x3230 <_ZN4UTFT14LCD_Write_DATAEc>
    4526:	61 e0       	ldi	r22, 0x01	; 1
    4528:	ce 01       	movw	r24, r28
    452a:	0e 94 18 19 	call	0x3230	; 0x3230 <_ZN4UTFT14LCD_Write_DATAEc>
    452e:	60 ef       	ldi	r22, 0xF0	; 240
    4530:	ce 01       	movw	r24, r28
    4532:	0e 94 18 19 	call	0x3230	; 0x3230 <_ZN4UTFT14LCD_Write_DATAEc>
    4536:	60 e0       	ldi	r22, 0x00	; 0
    4538:	ce 01       	movw	r24, r28
    453a:	0e 94 18 19 	call	0x3230	; 0x3230 <_ZN4UTFT14LCD_Write_DATAEc>
    453e:	60 e0       	ldi	r22, 0x00	; 0
    4540:	ce 01       	movw	r24, r28
    4542:	0e 94 18 19 	call	0x3230	; 0x3230 <_ZN4UTFT14LCD_Write_DATAEc>
    4546:	60 ed       	ldi	r22, 0xD0	; 208
    4548:	ce 01       	movw	r24, r28
    454a:	0e 94 dc 18 	call	0x31b8	; 0x31b8 <_ZN4UTFT13LCD_Write_COMEc>
    454e:	6d e0       	ldi	r22, 0x0D	; 13
    4550:	ce 01       	movw	r24, r28
    4552:	0e 94 18 19 	call	0x3230	; 0x3230 <_ZN4UTFT14LCD_Write_DATAEc>
    4556:	0c 94 52 2c 	jmp	0x58a4	; 0x58a4 <_ZN4UTFT7InitLCDEh+0x23a4>
    455a:	62 ee       	ldi	r22, 0xE2	; 226
    455c:	ce 01       	movw	r24, r28
    455e:	0e 94 dc 18 	call	0x31b8	; 0x31b8 <_ZN4UTFT13LCD_Write_COMEc>
    4562:	6e e1       	ldi	r22, 0x1E	; 30
    4564:	ce 01       	movw	r24, r28
    4566:	0e 94 18 19 	call	0x3230	; 0x3230 <_ZN4UTFT14LCD_Write_DATAEc>
    456a:	62 e0       	ldi	r22, 0x02	; 2
    456c:	ce 01       	movw	r24, r28
    456e:	0e 94 18 19 	call	0x3230	; 0x3230 <_ZN4UTFT14LCD_Write_DATAEc>
    4572:	64 e5       	ldi	r22, 0x54	; 84
    4574:	ce 01       	movw	r24, r28
    4576:	0e 94 18 19 	call	0x3230	; 0x3230 <_ZN4UTFT14LCD_Write_DATAEc>
    457a:	60 ee       	ldi	r22, 0xE0	; 224
    457c:	ce 01       	movw	r24, r28
    457e:	0e 94 dc 18 	call	0x31b8	; 0x31b8 <_ZN4UTFT13LCD_Write_COMEc>
    4582:	61 e0       	ldi	r22, 0x01	; 1
    4584:	ce 01       	movw	r24, r28
    4586:	0e 94 18 19 	call	0x3230	; 0x3230 <_ZN4UTFT14LCD_Write_DATAEc>
    458a:	6a e0       	ldi	r22, 0x0A	; 10
    458c:	70 e0       	ldi	r23, 0x00	; 0
    458e:	80 e0       	ldi	r24, 0x00	; 0
    4590:	90 e0       	ldi	r25, 0x00	; 0
    4592:	0e 94 41 36 	call	0x6c82	; 0x6c82 <delay>
    4596:	60 ee       	ldi	r22, 0xE0	; 224
    4598:	ce 01       	movw	r24, r28
    459a:	0e 94 dc 18 	call	0x31b8	; 0x31b8 <_ZN4UTFT13LCD_Write_COMEc>
    459e:	63 e0       	ldi	r22, 0x03	; 3
    45a0:	ce 01       	movw	r24, r28
    45a2:	0e 94 18 19 	call	0x3230	; 0x3230 <_ZN4UTFT14LCD_Write_DATAEc>
    45a6:	6a e0       	ldi	r22, 0x0A	; 10
    45a8:	70 e0       	ldi	r23, 0x00	; 0
    45aa:	80 e0       	ldi	r24, 0x00	; 0
    45ac:	90 e0       	ldi	r25, 0x00	; 0
    45ae:	0e 94 41 36 	call	0x6c82	; 0x6c82 <delay>
    45b2:	61 e0       	ldi	r22, 0x01	; 1
    45b4:	ce 01       	movw	r24, r28
    45b6:	0e 94 dc 18 	call	0x31b8	; 0x31b8 <_ZN4UTFT13LCD_Write_COMEc>
    45ba:	64 e6       	ldi	r22, 0x64	; 100
    45bc:	70 e0       	ldi	r23, 0x00	; 0
    45be:	80 e0       	ldi	r24, 0x00	; 0
    45c0:	90 e0       	ldi	r25, 0x00	; 0
    45c2:	0e 94 41 36 	call	0x6c82	; 0x6c82 <delay>
    45c6:	66 ee       	ldi	r22, 0xE6	; 230
    45c8:	ce 01       	movw	r24, r28
    45ca:	0e 94 dc 18 	call	0x31b8	; 0x31b8 <_ZN4UTFT13LCD_Write_COMEc>
    45ce:	63 e0       	ldi	r22, 0x03	; 3
    45d0:	ce 01       	movw	r24, r28
    45d2:	0e 94 18 19 	call	0x3230	; 0x3230 <_ZN4UTFT14LCD_Write_DATAEc>
    45d6:	6f ef       	ldi	r22, 0xFF	; 255
    45d8:	ce 01       	movw	r24, r28
    45da:	0e 94 18 19 	call	0x3230	; 0x3230 <_ZN4UTFT14LCD_Write_DATAEc>
    45de:	6f ef       	ldi	r22, 0xFF	; 255
    45e0:	ce 01       	movw	r24, r28
    45e2:	0e 94 18 19 	call	0x3230	; 0x3230 <_ZN4UTFT14LCD_Write_DATAEc>
    45e6:	60 eb       	ldi	r22, 0xB0	; 176
    45e8:	ce 01       	movw	r24, r28
    45ea:	0e 94 dc 18 	call	0x31b8	; 0x31b8 <_ZN4UTFT13LCD_Write_COMEc>
    45ee:	64 e2       	ldi	r22, 0x24	; 36
    45f0:	ce 01       	movw	r24, r28
    45f2:	0e 94 18 19 	call	0x3230	; 0x3230 <_ZN4UTFT14LCD_Write_DATAEc>
    45f6:	60 e0       	ldi	r22, 0x00	; 0
    45f8:	ce 01       	movw	r24, r28
    45fa:	0e 94 18 19 	call	0x3230	; 0x3230 <_ZN4UTFT14LCD_Write_DATAEc>
    45fe:	63 e0       	ldi	r22, 0x03	; 3
    4600:	ce 01       	movw	r24, r28
    4602:	0e 94 18 19 	call	0x3230	; 0x3230 <_ZN4UTFT14LCD_Write_DATAEc>
    4606:	6f e1       	ldi	r22, 0x1F	; 31
    4608:	ce 01       	movw	r24, r28
    460a:	0e 94 18 19 	call	0x3230	; 0x3230 <_ZN4UTFT14LCD_Write_DATAEc>
    460e:	61 e0       	ldi	r22, 0x01	; 1
    4610:	ce 01       	movw	r24, r28
    4612:	0e 94 18 19 	call	0x3230	; 0x3230 <_ZN4UTFT14LCD_Write_DATAEc>
    4616:	6f ed       	ldi	r22, 0xDF	; 223
    4618:	ce 01       	movw	r24, r28
    461a:	0e 94 18 19 	call	0x3230	; 0x3230 <_ZN4UTFT14LCD_Write_DATAEc>
    461e:	60 e0       	ldi	r22, 0x00	; 0
    4620:	ce 01       	movw	r24, r28
    4622:	0e 94 18 19 	call	0x3230	; 0x3230 <_ZN4UTFT14LCD_Write_DATAEc>
    4626:	64 eb       	ldi	r22, 0xB4	; 180
    4628:	ce 01       	movw	r24, r28
    462a:	0e 94 dc 18 	call	0x31b8	; 0x31b8 <_ZN4UTFT13LCD_Write_COMEc>
    462e:	63 e0       	ldi	r22, 0x03	; 3
    4630:	ce 01       	movw	r24, r28
    4632:	0e 94 18 19 	call	0x3230	; 0x3230 <_ZN4UTFT14LCD_Write_DATAEc>
    4636:	60 ea       	ldi	r22, 0xA0	; 160
    4638:	ce 01       	movw	r24, r28
    463a:	0e 94 18 19 	call	0x3230	; 0x3230 <_ZN4UTFT14LCD_Write_DATAEc>
    463e:	60 e0       	ldi	r22, 0x00	; 0
    4640:	ce 01       	movw	r24, r28
    4642:	0e 94 18 19 	call	0x3230	; 0x3230 <_ZN4UTFT14LCD_Write_DATAEc>
    4646:	6e e2       	ldi	r22, 0x2E	; 46
    4648:	ce 01       	movw	r24, r28
    464a:	0e 94 18 19 	call	0x3230	; 0x3230 <_ZN4UTFT14LCD_Write_DATAEc>
    464e:	60 e3       	ldi	r22, 0x30	; 48
    4650:	ce 01       	movw	r24, r28
    4652:	0e 94 18 19 	call	0x3230	; 0x3230 <_ZN4UTFT14LCD_Write_DATAEc>
    4656:	60 e0       	ldi	r22, 0x00	; 0
    4658:	ce 01       	movw	r24, r28
    465a:	0e 94 18 19 	call	0x3230	; 0x3230 <_ZN4UTFT14LCD_Write_DATAEc>
    465e:	6f e0       	ldi	r22, 0x0F	; 15
    4660:	ce 01       	movw	r24, r28
    4662:	0e 94 18 19 	call	0x3230	; 0x3230 <_ZN4UTFT14LCD_Write_DATAEc>
    4666:	60 e0       	ldi	r22, 0x00	; 0
    4668:	ce 01       	movw	r24, r28
    466a:	0e 94 18 19 	call	0x3230	; 0x3230 <_ZN4UTFT14LCD_Write_DATAEc>
    466e:	66 eb       	ldi	r22, 0xB6	; 182
    4670:	ce 01       	movw	r24, r28
    4672:	0e 94 dc 18 	call	0x31b8	; 0x31b8 <_ZN4UTFT13LCD_Write_COMEc>
    4676:	62 e0       	ldi	r22, 0x02	; 2
    4678:	ce 01       	movw	r24, r28
    467a:	0e 94 18 19 	call	0x3230	; 0x3230 <_ZN4UTFT14LCD_Write_DATAEc>
    467e:	6d e0       	ldi	r22, 0x0D	; 13
    4680:	ce 01       	movw	r24, r28
    4682:	0e 94 18 19 	call	0x3230	; 0x3230 <_ZN4UTFT14LCD_Write_DATAEc>
    4686:	60 e0       	ldi	r22, 0x00	; 0
    4688:	ce 01       	movw	r24, r28
    468a:	0e 94 18 19 	call	0x3230	; 0x3230 <_ZN4UTFT14LCD_Write_DATAEc>
    468e:	60 e1       	ldi	r22, 0x10	; 16
    4690:	ce 01       	movw	r24, r28
    4692:	0e 94 18 19 	call	0x3230	; 0x3230 <_ZN4UTFT14LCD_Write_DATAEc>
    4696:	60 e1       	ldi	r22, 0x10	; 16
    4698:	ce 01       	movw	r24, r28
    469a:	0e 94 18 19 	call	0x3230	; 0x3230 <_ZN4UTFT14LCD_Write_DATAEc>
    469e:	60 e0       	ldi	r22, 0x00	; 0
    46a0:	ce 01       	movw	r24, r28
    46a2:	0e 94 18 19 	call	0x3230	; 0x3230 <_ZN4UTFT14LCD_Write_DATAEc>
    46a6:	68 e0       	ldi	r22, 0x08	; 8
    46a8:	ce 01       	movw	r24, r28
    46aa:	0e 94 18 19 	call	0x3230	; 0x3230 <_ZN4UTFT14LCD_Write_DATAEc>
    46ae:	6a eb       	ldi	r22, 0xBA	; 186
    46b0:	ce 01       	movw	r24, r28
    46b2:	0e 94 dc 18 	call	0x31b8	; 0x31b8 <_ZN4UTFT13LCD_Write_COMEc>
    46b6:	6f e0       	ldi	r22, 0x0F	; 15
    46b8:	ce 01       	movw	r24, r28
    46ba:	0e 94 18 19 	call	0x3230	; 0x3230 <_ZN4UTFT14LCD_Write_DATAEc>
    46be:	68 eb       	ldi	r22, 0xB8	; 184
    46c0:	ce 01       	movw	r24, r28
    46c2:	0e 94 dc 18 	call	0x31b8	; 0x31b8 <_ZN4UTFT13LCD_Write_COMEc>
    46c6:	67 e0       	ldi	r22, 0x07	; 7
    46c8:	ce 01       	movw	r24, r28
    46ca:	0e 94 18 19 	call	0x3230	; 0x3230 <_ZN4UTFT14LCD_Write_DATAEc>
    46ce:	61 e0       	ldi	r22, 0x01	; 1
    46d0:	ce 01       	movw	r24, r28
    46d2:	0e 94 18 19 	call	0x3230	; 0x3230 <_ZN4UTFT14LCD_Write_DATAEc>
    46d6:	66 e3       	ldi	r22, 0x36	; 54
    46d8:	ce 01       	movw	r24, r28
    46da:	0e 94 dc 18 	call	0x31b8	; 0x31b8 <_ZN4UTFT13LCD_Write_COMEc>
    46de:	62 e2       	ldi	r22, 0x22	; 34
    46e0:	ce 01       	movw	r24, r28
    46e2:	0e 94 18 19 	call	0x3230	; 0x3230 <_ZN4UTFT14LCD_Write_DATAEc>
    46e6:	60 ef       	ldi	r22, 0xF0	; 240
    46e8:	ce 01       	movw	r24, r28
    46ea:	0e 94 dc 18 	call	0x31b8	; 0x31b8 <_ZN4UTFT13LCD_Write_COMEc>
    46ee:	63 e0       	ldi	r22, 0x03	; 3
    46f0:	ce 01       	movw	r24, r28
    46f2:	0e 94 18 19 	call	0x3230	; 0x3230 <_ZN4UTFT14LCD_Write_DATAEc>
    46f6:	61 e0       	ldi	r22, 0x01	; 1
    46f8:	70 e0       	ldi	r23, 0x00	; 0
    46fa:	80 e0       	ldi	r24, 0x00	; 0
    46fc:	90 e0       	ldi	r25, 0x00	; 0
    46fe:	d2 c0       	rjmp	.+420    	; 0x48a4 <_ZN4UTFT7InitLCDEh+0x13a4>
    4700:	62 ee       	ldi	r22, 0xE2	; 226
    4702:	ce 01       	movw	r24, r28
    4704:	0e 94 dc 18 	call	0x31b8	; 0x31b8 <_ZN4UTFT13LCD_Write_COMEc>
    4708:	63 e2       	ldi	r22, 0x23	; 35
    470a:	ce 01       	movw	r24, r28
    470c:	0e 94 18 19 	call	0x3230	; 0x3230 <_ZN4UTFT14LCD_Write_DATAEc>
    4710:	62 e0       	ldi	r22, 0x02	; 2
    4712:	ce 01       	movw	r24, r28
    4714:	0e 94 18 19 	call	0x3230	; 0x3230 <_ZN4UTFT14LCD_Write_DATAEc>
    4718:	64 e0       	ldi	r22, 0x04	; 4
    471a:	ce 01       	movw	r24, r28
    471c:	0e 94 18 19 	call	0x3230	; 0x3230 <_ZN4UTFT14LCD_Write_DATAEc>
    4720:	60 ee       	ldi	r22, 0xE0	; 224
    4722:	ce 01       	movw	r24, r28
    4724:	0e 94 dc 18 	call	0x31b8	; 0x31b8 <_ZN4UTFT13LCD_Write_COMEc>
    4728:	61 e0       	ldi	r22, 0x01	; 1
    472a:	ce 01       	movw	r24, r28
    472c:	0e 94 18 19 	call	0x3230	; 0x3230 <_ZN4UTFT14LCD_Write_DATAEc>
    4730:	6a e0       	ldi	r22, 0x0A	; 10
    4732:	70 e0       	ldi	r23, 0x00	; 0
    4734:	80 e0       	ldi	r24, 0x00	; 0
    4736:	90 e0       	ldi	r25, 0x00	; 0
    4738:	0e 94 41 36 	call	0x6c82	; 0x6c82 <delay>
    473c:	60 ee       	ldi	r22, 0xE0	; 224
    473e:	ce 01       	movw	r24, r28
    4740:	0e 94 dc 18 	call	0x31b8	; 0x31b8 <_ZN4UTFT13LCD_Write_COMEc>
    4744:	63 e0       	ldi	r22, 0x03	; 3
    4746:	ce 01       	movw	r24, r28
    4748:	0e 94 18 19 	call	0x3230	; 0x3230 <_ZN4UTFT14LCD_Write_DATAEc>
    474c:	6a e0       	ldi	r22, 0x0A	; 10
    474e:	70 e0       	ldi	r23, 0x00	; 0
    4750:	80 e0       	ldi	r24, 0x00	; 0
    4752:	90 e0       	ldi	r25, 0x00	; 0
    4754:	0e 94 41 36 	call	0x6c82	; 0x6c82 <delay>
    4758:	61 e0       	ldi	r22, 0x01	; 1
    475a:	ce 01       	movw	r24, r28
    475c:	0e 94 dc 18 	call	0x31b8	; 0x31b8 <_ZN4UTFT13LCD_Write_COMEc>
    4760:	64 e6       	ldi	r22, 0x64	; 100
    4762:	70 e0       	ldi	r23, 0x00	; 0
    4764:	80 e0       	ldi	r24, 0x00	; 0
    4766:	90 e0       	ldi	r25, 0x00	; 0
    4768:	0e 94 41 36 	call	0x6c82	; 0x6c82 <delay>
    476c:	66 ee       	ldi	r22, 0xE6	; 230
    476e:	ce 01       	movw	r24, r28
    4770:	0e 94 dc 18 	call	0x31b8	; 0x31b8 <_ZN4UTFT13LCD_Write_COMEc>
    4774:	64 e0       	ldi	r22, 0x04	; 4
    4776:	ce 01       	movw	r24, r28
    4778:	0e 94 18 19 	call	0x3230	; 0x3230 <_ZN4UTFT14LCD_Write_DATAEc>
    477c:	63 e9       	ldi	r22, 0x93	; 147
    477e:	ce 01       	movw	r24, r28
    4780:	0e 94 18 19 	call	0x3230	; 0x3230 <_ZN4UTFT14LCD_Write_DATAEc>
    4784:	60 ee       	ldi	r22, 0xE0	; 224
    4786:	ce 01       	movw	r24, r28
    4788:	0e 94 18 19 	call	0x3230	; 0x3230 <_ZN4UTFT14LCD_Write_DATAEc>
    478c:	60 eb       	ldi	r22, 0xB0	; 176
    478e:	ce 01       	movw	r24, r28
    4790:	0e 94 dc 18 	call	0x31b8	; 0x31b8 <_ZN4UTFT13LCD_Write_COMEc>
    4794:	60 e0       	ldi	r22, 0x00	; 0
    4796:	ce 01       	movw	r24, r28
    4798:	0e 94 18 19 	call	0x3230	; 0x3230 <_ZN4UTFT14LCD_Write_DATAEc>
    479c:	60 e0       	ldi	r22, 0x00	; 0
    479e:	ce 01       	movw	r24, r28
    47a0:	0e 94 18 19 	call	0x3230	; 0x3230 <_ZN4UTFT14LCD_Write_DATAEc>
    47a4:	63 e0       	ldi	r22, 0x03	; 3
    47a6:	ce 01       	movw	r24, r28
    47a8:	0e 94 18 19 	call	0x3230	; 0x3230 <_ZN4UTFT14LCD_Write_DATAEc>
    47ac:	6f e1       	ldi	r22, 0x1F	; 31
    47ae:	ce 01       	movw	r24, r28
    47b0:	0e 94 18 19 	call	0x3230	; 0x3230 <_ZN4UTFT14LCD_Write_DATAEc>
    47b4:	61 e0       	ldi	r22, 0x01	; 1
    47b6:	ce 01       	movw	r24, r28
    47b8:	0e 94 18 19 	call	0x3230	; 0x3230 <_ZN4UTFT14LCD_Write_DATAEc>
    47bc:	6f ed       	ldi	r22, 0xDF	; 223
    47be:	ce 01       	movw	r24, r28
    47c0:	0e 94 18 19 	call	0x3230	; 0x3230 <_ZN4UTFT14LCD_Write_DATAEc>
    47c4:	60 e0       	ldi	r22, 0x00	; 0
    47c6:	ce 01       	movw	r24, r28
    47c8:	0e 94 18 19 	call	0x3230	; 0x3230 <_ZN4UTFT14LCD_Write_DATAEc>
    47cc:	64 eb       	ldi	r22, 0xB4	; 180
    47ce:	ce 01       	movw	r24, r28
    47d0:	0e 94 dc 18 	call	0x31b8	; 0x31b8 <_ZN4UTFT13LCD_Write_COMEc>
    47d4:	63 e0       	ldi	r22, 0x03	; 3
    47d6:	ce 01       	movw	r24, r28
    47d8:	0e 94 18 19 	call	0x3230	; 0x3230 <_ZN4UTFT14LCD_Write_DATAEc>
    47dc:	60 ea       	ldi	r22, 0xA0	; 160
    47de:	ce 01       	movw	r24, r28
    47e0:	0e 94 18 19 	call	0x3230	; 0x3230 <_ZN4UTFT14LCD_Write_DATAEc>
    47e4:	60 e0       	ldi	r22, 0x00	; 0
    47e6:	ce 01       	movw	r24, r28
    47e8:	0e 94 18 19 	call	0x3230	; 0x3230 <_ZN4UTFT14LCD_Write_DATAEc>
    47ec:	6e e2       	ldi	r22, 0x2E	; 46
    47ee:	ce 01       	movw	r24, r28
    47f0:	0e 94 18 19 	call	0x3230	; 0x3230 <_ZN4UTFT14LCD_Write_DATAEc>
    47f4:	60 e3       	ldi	r22, 0x30	; 48
    47f6:	ce 01       	movw	r24, r28
    47f8:	0e 94 18 19 	call	0x3230	; 0x3230 <_ZN4UTFT14LCD_Write_DATAEc>
    47fc:	60 e0       	ldi	r22, 0x00	; 0
    47fe:	ce 01       	movw	r24, r28
    4800:	0e 94 18 19 	call	0x3230	; 0x3230 <_ZN4UTFT14LCD_Write_DATAEc>
    4804:	6f e0       	ldi	r22, 0x0F	; 15
    4806:	ce 01       	movw	r24, r28
    4808:	0e 94 18 19 	call	0x3230	; 0x3230 <_ZN4UTFT14LCD_Write_DATAEc>
    480c:	60 e0       	ldi	r22, 0x00	; 0
    480e:	ce 01       	movw	r24, r28
    4810:	0e 94 18 19 	call	0x3230	; 0x3230 <_ZN4UTFT14LCD_Write_DATAEc>
    4814:	66 eb       	ldi	r22, 0xB6	; 182
    4816:	ce 01       	movw	r24, r28
    4818:	0e 94 dc 18 	call	0x31b8	; 0x31b8 <_ZN4UTFT13LCD_Write_COMEc>
    481c:	62 e0       	ldi	r22, 0x02	; 2
    481e:	ce 01       	movw	r24, r28
    4820:	0e 94 18 19 	call	0x3230	; 0x3230 <_ZN4UTFT14LCD_Write_DATAEc>
    4824:	6d e0       	ldi	r22, 0x0D	; 13
    4826:	ce 01       	movw	r24, r28
    4828:	0e 94 18 19 	call	0x3230	; 0x3230 <_ZN4UTFT14LCD_Write_DATAEc>
    482c:	60 e0       	ldi	r22, 0x00	; 0
    482e:	ce 01       	movw	r24, r28
    4830:	0e 94 18 19 	call	0x3230	; 0x3230 <_ZN4UTFT14LCD_Write_DATAEc>
    4834:	60 e1       	ldi	r22, 0x10	; 16
    4836:	ce 01       	movw	r24, r28
    4838:	0e 94 18 19 	call	0x3230	; 0x3230 <_ZN4UTFT14LCD_Write_DATAEc>
    483c:	60 e1       	ldi	r22, 0x10	; 16
    483e:	ce 01       	movw	r24, r28
    4840:	0e 94 18 19 	call	0x3230	; 0x3230 <_ZN4UTFT14LCD_Write_DATAEc>
    4844:	60 e0       	ldi	r22, 0x00	; 0
    4846:	ce 01       	movw	r24, r28
    4848:	0e 94 18 19 	call	0x3230	; 0x3230 <_ZN4UTFT14LCD_Write_DATAEc>
    484c:	68 e0       	ldi	r22, 0x08	; 8
    484e:	ce 01       	movw	r24, r28
    4850:	0e 94 18 19 	call	0x3230	; 0x3230 <_ZN4UTFT14LCD_Write_DATAEc>
    4854:	6a eb       	ldi	r22, 0xBA	; 186
    4856:	ce 01       	movw	r24, r28
    4858:	0e 94 dc 18 	call	0x31b8	; 0x31b8 <_ZN4UTFT13LCD_Write_COMEc>
    485c:	65 e0       	ldi	r22, 0x05	; 5
    485e:	ce 01       	movw	r24, r28
    4860:	0e 94 18 19 	call	0x3230	; 0x3230 <_ZN4UTFT14LCD_Write_DATAEc>
    4864:	68 eb       	ldi	r22, 0xB8	; 184
    4866:	ce 01       	movw	r24, r28
    4868:	0e 94 dc 18 	call	0x31b8	; 0x31b8 <_ZN4UTFT13LCD_Write_COMEc>
    486c:	67 e0       	ldi	r22, 0x07	; 7
    486e:	ce 01       	movw	r24, r28
    4870:	0e 94 18 19 	call	0x3230	; 0x3230 <_ZN4UTFT14LCD_Write_DATAEc>
    4874:	61 e0       	ldi	r22, 0x01	; 1
    4876:	ce 01       	movw	r24, r28
    4878:	0e 94 18 19 	call	0x3230	; 0x3230 <_ZN4UTFT14LCD_Write_DATAEc>
    487c:	66 e3       	ldi	r22, 0x36	; 54
    487e:	ce 01       	movw	r24, r28
    4880:	0e 94 dc 18 	call	0x31b8	; 0x31b8 <_ZN4UTFT13LCD_Write_COMEc>
    4884:	62 e2       	ldi	r22, 0x22	; 34
    4886:	ce 01       	movw	r24, r28
    4888:	0e 94 18 19 	call	0x3230	; 0x3230 <_ZN4UTFT14LCD_Write_DATAEc>
    488c:	60 ef       	ldi	r22, 0xF0	; 240
    488e:	ce 01       	movw	r24, r28
    4890:	0e 94 dc 18 	call	0x31b8	; 0x31b8 <_ZN4UTFT13LCD_Write_COMEc>
    4894:	63 e0       	ldi	r22, 0x03	; 3
    4896:	ce 01       	movw	r24, r28
    4898:	0e 94 18 19 	call	0x3230	; 0x3230 <_ZN4UTFT14LCD_Write_DATAEc>
    489c:	6a e0       	ldi	r22, 0x0A	; 10
    489e:	70 e0       	ldi	r23, 0x00	; 0
    48a0:	80 e0       	ldi	r24, 0x00	; 0
    48a2:	90 e0       	ldi	r25, 0x00	; 0
    48a4:	0e 94 41 36 	call	0x6c82	; 0x6c82 <delay>
    48a8:	0f ed       	ldi	r16, 0xDF	; 223
    48aa:	11 e0       	ldi	r17, 0x01	; 1
    48ac:	2f e1       	ldi	r18, 0x1F	; 31
    48ae:	33 e0       	ldi	r19, 0x03	; 3
    48b0:	23 ce       	rjmp	.-954    	; 0x44f8 <_ZN4UTFT7InitLCDEh+0xff8>
    48b2:	44 e0       	ldi	r20, 0x04	; 4
    48b4:	50 e2       	ldi	r21, 0x20	; 32
    48b6:	61 e1       	ldi	r22, 0x11	; 17
    48b8:	ce 01       	movw	r24, r28
    48ba:	0e 94 30 19 	call	0x3260	; 0x3260 <_ZN4UTFT18LCD_Write_COM_DATAEci>
    48be:	40 e0       	ldi	r20, 0x00	; 0
    48c0:	5c ec       	ldi	r21, 0xCC	; 204
    48c2:	63 e1       	ldi	r22, 0x13	; 19
    48c4:	ce 01       	movw	r24, r28
    48c6:	0e 94 30 19 	call	0x3260	; 0x3260 <_ZN4UTFT18LCD_Write_COM_DATAEci>
    48ca:	40 e0       	ldi	r20, 0x00	; 0
    48cc:	56 e2       	ldi	r21, 0x26	; 38
    48ce:	65 e1       	ldi	r22, 0x15	; 21
    48d0:	ce 01       	movw	r24, r28
    48d2:	0e 94 30 19 	call	0x3260	; 0x3260 <_ZN4UTFT18LCD_Write_COM_DATAEci>
    48d6:	4a e2       	ldi	r20, 0x2A	; 42
    48d8:	55 e2       	ldi	r21, 0x25	; 37
    48da:	64 e1       	ldi	r22, 0x14	; 20
    48dc:	ce 01       	movw	r24, r28
    48de:	0e 94 30 19 	call	0x3260	; 0x3260 <_ZN4UTFT18LCD_Write_COM_DATAEci>
    48e2:	43 e3       	ldi	r20, 0x33	; 51
    48e4:	50 e0       	ldi	r21, 0x00	; 0
    48e6:	62 e1       	ldi	r22, 0x12	; 18
    48e8:	ce 01       	movw	r24, r28
    48ea:	0e 94 30 19 	call	0x3260	; 0x3260 <_ZN4UTFT18LCD_Write_COM_DATAEci>
    48ee:	44 e0       	ldi	r20, 0x04	; 4
    48f0:	5c ec       	ldi	r21, 0xCC	; 204
    48f2:	63 e1       	ldi	r22, 0x13	; 19
    48f4:	ce 01       	movw	r24, r28
    48f6:	0e 94 30 19 	call	0x3260	; 0x3260 <_ZN4UTFT18LCD_Write_COM_DATAEci>
    48fa:	46 e0       	ldi	r20, 0x06	; 6
    48fc:	5c ec       	ldi	r21, 0xCC	; 204
    48fe:	63 e1       	ldi	r22, 0x13	; 19
    4900:	ce 01       	movw	r24, r28
    4902:	0e 94 30 19 	call	0x3260	; 0x3260 <_ZN4UTFT18LCD_Write_COM_DATAEci>
    4906:	4f e4       	ldi	r20, 0x4F	; 79
    4908:	5c ec       	ldi	r21, 0xCC	; 204
    490a:	63 e1       	ldi	r22, 0x13	; 19
    490c:	ce 01       	movw	r24, r28
    490e:	0e 94 30 19 	call	0x3260	; 0x3260 <_ZN4UTFT18LCD_Write_COM_DATAEci>
    4912:	4f e4       	ldi	r20, 0x4F	; 79
    4914:	57 e6       	ldi	r21, 0x67	; 103
    4916:	63 e1       	ldi	r22, 0x13	; 19
    4918:	ce 01       	movw	r24, r28
    491a:	0e 94 30 19 	call	0x3260	; 0x3260 <_ZN4UTFT18LCD_Write_COM_DATAEci>
    491e:	43 e0       	ldi	r20, 0x03	; 3
    4920:	50 e2       	ldi	r21, 0x20	; 32
    4922:	61 e1       	ldi	r22, 0x11	; 17
    4924:	ce 01       	movw	r24, r28
    4926:	0e 94 30 19 	call	0x3260	; 0x3260 <_ZN4UTFT18LCD_Write_COM_DATAEci>
    492a:	49 e0       	ldi	r20, 0x09	; 9
    492c:	56 e2       	ldi	r21, 0x26	; 38
    492e:	60 e3       	ldi	r22, 0x30	; 48
    4930:	ce 01       	movw	r24, r28
    4932:	0e 94 30 19 	call	0x3260	; 0x3260 <_ZN4UTFT18LCD_Write_COM_DATAEci>
    4936:	4c e2       	ldi	r20, 0x2C	; 44
    4938:	54 e2       	ldi	r21, 0x24	; 36
    493a:	61 e3       	ldi	r22, 0x31	; 49
    493c:	ce 01       	movw	r24, r28
    493e:	0e 94 30 19 	call	0x3260	; 0x3260 <_ZN4UTFT18LCD_Write_COM_DATAEci>
    4942:	43 e2       	ldi	r20, 0x23	; 35
    4944:	5f e1       	ldi	r21, 0x1F	; 31
    4946:	62 e3       	ldi	r22, 0x32	; 50
    4948:	ce 01       	movw	r24, r28
    494a:	0e 94 30 19 	call	0x3260	; 0x3260 <_ZN4UTFT18LCD_Write_COM_DATAEci>
    494e:	45 e2       	ldi	r20, 0x25	; 37
    4950:	54 e2       	ldi	r21, 0x24	; 36
    4952:	63 e3       	ldi	r22, 0x33	; 51
    4954:	ce 01       	movw	r24, r28
    4956:	0e 94 30 19 	call	0x3260	; 0x3260 <_ZN4UTFT18LCD_Write_COM_DATAEci>
    495a:	46 e2       	ldi	r20, 0x26	; 38
    495c:	52 e2       	ldi	r21, 0x22	; 34
    495e:	64 e3       	ldi	r22, 0x34	; 52
    4960:	ce 01       	movw	r24, r28
    4962:	0e 94 30 19 	call	0x3260	; 0x3260 <_ZN4UTFT18LCD_Write_COM_DATAEci>
    4966:	43 e2       	ldi	r20, 0x23	; 35
    4968:	55 e2       	ldi	r21, 0x25	; 37
    496a:	65 e3       	ldi	r22, 0x35	; 53
    496c:	ce 01       	movw	r24, r28
    496e:	0e 94 30 19 	call	0x3260	; 0x3260 <_ZN4UTFT18LCD_Write_COM_DATAEci>
    4972:	4a e1       	ldi	r20, 0x1A	; 26
    4974:	5c e1       	ldi	r21, 0x1C	; 28
    4976:	66 e3       	ldi	r22, 0x36	; 54
    4978:	ce 01       	movw	r24, r28
    497a:	0e 94 30 19 	call	0x3260	; 0x3260 <_ZN4UTFT18LCD_Write_COM_DATAEci>
    497e:	4d e1       	ldi	r20, 0x1D	; 29
    4980:	53 e1       	ldi	r21, 0x13	; 19
    4982:	67 e3       	ldi	r22, 0x37	; 55
    4984:	ce 01       	movw	r24, r28
    4986:	0e 94 30 19 	call	0x3260	; 0x3260 <_ZN4UTFT18LCD_Write_COM_DATAEci>
    498a:	41 e1       	ldi	r20, 0x11	; 17
    498c:	5b e0       	ldi	r21, 0x0B	; 11
    498e:	68 e3       	ldi	r22, 0x38	; 56
    4990:	ce 01       	movw	r24, r28
    4992:	0e 94 30 19 	call	0x3260	; 0x3260 <_ZN4UTFT18LCD_Write_COM_DATAEci>
    4996:	40 e1       	ldi	r20, 0x10	; 16
    4998:	52 e1       	ldi	r21, 0x12	; 18
    499a:	69 e3       	ldi	r22, 0x39	; 57
    499c:	ce 01       	movw	r24, r28
    499e:	0e 94 30 19 	call	0x3260	; 0x3260 <_ZN4UTFT18LCD_Write_COM_DATAEci>
    49a2:	45 e1       	ldi	r20, 0x15	; 21
    49a4:	53 e1       	ldi	r21, 0x13	; 19
    49a6:	6a e3       	ldi	r22, 0x3A	; 58
    49a8:	ce 01       	movw	r24, r28
    49aa:	0e 94 30 19 	call	0x3260	; 0x3260 <_ZN4UTFT18LCD_Write_COM_DATAEci>
    49ae:	49 e1       	ldi	r20, 0x19	; 25
    49b0:	56 e3       	ldi	r21, 0x36	; 54
    49b2:	6b e3       	ldi	r22, 0x3B	; 59
    49b4:	ce 01       	movw	r24, r28
    49b6:	0e 94 30 19 	call	0x3260	; 0x3260 <_ZN4UTFT18LCD_Write_COM_DATAEci>
    49ba:	40 e0       	ldi	r20, 0x00	; 0
    49bc:	5d e0       	ldi	r21, 0x0D	; 13
    49be:	6c e3       	ldi	r22, 0x3C	; 60
    49c0:	ce 01       	movw	r24, r28
    49c2:	0e 94 30 19 	call	0x3260	; 0x3260 <_ZN4UTFT18LCD_Write_COM_DATAEci>
    49c6:	4d e0       	ldi	r20, 0x0D	; 13
    49c8:	50 e0       	ldi	r21, 0x00	; 0
    49ca:	6d e3       	ldi	r22, 0x3D	; 61
    49cc:	ce 01       	movw	r24, r28
    49ce:	0e 94 30 19 	call	0x3260	; 0x3260 <_ZN4UTFT18LCD_Write_COM_DATAEci>
    49d2:	47 e0       	ldi	r20, 0x07	; 7
    49d4:	50 e0       	ldi	r21, 0x00	; 0
    49d6:	66 e1       	ldi	r22, 0x16	; 22
    49d8:	ce 01       	movw	r24, r28
    49da:	0e 94 30 19 	call	0x3260	; 0x3260 <_ZN4UTFT18LCD_Write_COM_DATAEci>
    49de:	43 e1       	ldi	r20, 0x13	; 19
    49e0:	50 e0       	ldi	r21, 0x00	; 0
    49e2:	62 e0       	ldi	r22, 0x02	; 2
    49e4:	ce 01       	movw	r24, r28
    49e6:	0e 94 30 19 	call	0x3260	; 0x3260 <_ZN4UTFT18LCD_Write_COM_DATAEci>
    49ea:	43 e0       	ldi	r20, 0x03	; 3
    49ec:	50 e0       	ldi	r21, 0x00	; 0
    49ee:	63 e0       	ldi	r22, 0x03	; 3
    49f0:	ce 01       	movw	r24, r28
    49f2:	0e 94 30 19 	call	0x3260	; 0x3260 <_ZN4UTFT18LCD_Write_COM_DATAEci>
    49f6:	47 e2       	ldi	r20, 0x27	; 39
    49f8:	51 e0       	ldi	r21, 0x01	; 1
    49fa:	61 e0       	ldi	r22, 0x01	; 1
    49fc:	ce 01       	movw	r24, r28
    49fe:	0e 94 30 19 	call	0x3260	; 0x3260 <_ZN4UTFT18LCD_Write_COM_DATAEci>
    4a02:	43 e0       	ldi	r20, 0x03	; 3
    4a04:	53 e0       	ldi	r21, 0x03	; 3
    4a06:	68 e0       	ldi	r22, 0x08	; 8
    4a08:	ce 01       	movw	r24, r28
    4a0a:	0e 94 30 19 	call	0x3260	; 0x3260 <_ZN4UTFT18LCD_Write_COM_DATAEci>
    4a0e:	4b e0       	ldi	r20, 0x0B	; 11
    4a10:	50 e0       	ldi	r21, 0x00	; 0
    4a12:	6a e0       	ldi	r22, 0x0A	; 10
    4a14:	ce 01       	movw	r24, r28
    4a16:	0e 94 30 19 	call	0x3260	; 0x3260 <_ZN4UTFT18LCD_Write_COM_DATAEci>
    4a1a:	43 e0       	ldi	r20, 0x03	; 3
    4a1c:	50 e0       	ldi	r21, 0x00	; 0
    4a1e:	6b e0       	ldi	r22, 0x0B	; 11
    4a20:	ce 01       	movw	r24, r28
    4a22:	0e 94 30 19 	call	0x3260	; 0x3260 <_ZN4UTFT18LCD_Write_COM_DATAEci>
    4a26:	40 e0       	ldi	r20, 0x00	; 0
    4a28:	50 e0       	ldi	r21, 0x00	; 0
    4a2a:	6c e0       	ldi	r22, 0x0C	; 12
    4a2c:	ce 01       	movw	r24, r28
    4a2e:	0e 94 30 19 	call	0x3260	; 0x3260 <_ZN4UTFT18LCD_Write_COM_DATAEci>
    4a32:	40 e0       	ldi	r20, 0x00	; 0
    4a34:	50 e0       	ldi	r21, 0x00	; 0
    4a36:	61 e4       	ldi	r22, 0x41	; 65
    4a38:	ce 01       	movw	r24, r28
    4a3a:	0e 94 30 19 	call	0x3260	; 0x3260 <_ZN4UTFT18LCD_Write_COM_DATAEci>
    4a3e:	40 e0       	ldi	r20, 0x00	; 0
    4a40:	50 e0       	ldi	r21, 0x00	; 0
    4a42:	60 e5       	ldi	r22, 0x50	; 80
    4a44:	ce 01       	movw	r24, r28
    4a46:	0e 94 30 19 	call	0x3260	; 0x3260 <_ZN4UTFT18LCD_Write_COM_DATAEci>
    4a4a:	45 e0       	ldi	r20, 0x05	; 5
    4a4c:	50 e0       	ldi	r21, 0x00	; 0
    4a4e:	60 e6       	ldi	r22, 0x60	; 96
    4a50:	ce 01       	movw	r24, r28
    4a52:	0e 94 30 19 	call	0x3260	; 0x3260 <_ZN4UTFT18LCD_Write_COM_DATAEci>
    4a56:	4b e0       	ldi	r20, 0x0B	; 11
    4a58:	50 e0       	ldi	r21, 0x00	; 0
    4a5a:	60 e7       	ldi	r22, 0x70	; 112
    4a5c:	ce 01       	movw	r24, r28
    4a5e:	0e 94 30 19 	call	0x3260	; 0x3260 <_ZN4UTFT18LCD_Write_COM_DATAEci>
    4a62:	40 e0       	ldi	r20, 0x00	; 0
    4a64:	50 e0       	ldi	r21, 0x00	; 0
    4a66:	61 e7       	ldi	r22, 0x71	; 113
    4a68:	ce 01       	movw	r24, r28
    4a6a:	0e 94 30 19 	call	0x3260	; 0x3260 <_ZN4UTFT18LCD_Write_COM_DATAEci>
    4a6e:	40 e0       	ldi	r20, 0x00	; 0
    4a70:	50 e0       	ldi	r21, 0x00	; 0
    4a72:	68 e7       	ldi	r22, 0x78	; 120
    4a74:	ce 01       	movw	r24, r28
    4a76:	0e 94 30 19 	call	0x3260	; 0x3260 <_ZN4UTFT18LCD_Write_COM_DATAEci>
    4a7a:	40 e0       	ldi	r20, 0x00	; 0
    4a7c:	50 e0       	ldi	r21, 0x00	; 0
    4a7e:	6a e7       	ldi	r22, 0x7A	; 122
    4a80:	ce 01       	movw	r24, r28
    4a82:	0e 94 30 19 	call	0x3260	; 0x3260 <_ZN4UTFT18LCD_Write_COM_DATAEci>
    4a86:	47 e0       	ldi	r20, 0x07	; 7
    4a88:	50 e0       	ldi	r21, 0x00	; 0
    4a8a:	69 e7       	ldi	r22, 0x79	; 121
    4a8c:	ce 01       	movw	r24, r28
    4a8e:	0e 94 30 19 	call	0x3260	; 0x3260 <_ZN4UTFT18LCD_Write_COM_DATAEci>
    4a92:	41 e5       	ldi	r20, 0x51	; 81
    4a94:	50 e0       	ldi	r21, 0x00	; 0
    4a96:	67 e0       	ldi	r22, 0x07	; 7
    4a98:	ce 01       	movw	r24, r28
    4a9a:	0e 94 30 19 	call	0x3260	; 0x3260 <_ZN4UTFT18LCD_Write_COM_DATAEci>
    4a9e:	43 e5       	ldi	r20, 0x53	; 83
    4aa0:	50 e0       	ldi	r21, 0x00	; 0
    4aa2:	67 e0       	ldi	r22, 0x07	; 7
    4aa4:	ce 01       	movw	r24, r28
    4aa6:	0e 94 30 19 	call	0x3260	; 0x3260 <_ZN4UTFT18LCD_Write_COM_DATAEci>
    4aaa:	40 e0       	ldi	r20, 0x00	; 0
    4aac:	50 e0       	ldi	r21, 0x00	; 0
    4aae:	69 e7       	ldi	r22, 0x79	; 121
    4ab0:	92 c1       	rjmp	.+804    	; 0x4dd6 <_ZN4UTFT7InitLCDEh+0x18d6>
    4ab2:	61 e1       	ldi	r22, 0x11	; 17
    4ab4:	ce 01       	movw	r24, r28
    4ab6:	0e 94 dc 18 	call	0x31b8	; 0x31b8 <_ZN4UTFT13LCD_Write_COMEc>
    4aba:	64 e1       	ldi	r22, 0x14	; 20
    4abc:	70 e0       	ldi	r23, 0x00	; 0
    4abe:	80 e0       	ldi	r24, 0x00	; 0
    4ac0:	90 e0       	ldi	r25, 0x00	; 0
    4ac2:	0e 94 41 36 	call	0x6c82	; 0x6c82 <delay>
    4ac6:	60 ed       	ldi	r22, 0xD0	; 208
    4ac8:	ce 01       	movw	r24, r28
    4aca:	0e 94 dc 18 	call	0x31b8	; 0x31b8 <_ZN4UTFT13LCD_Write_COMEc>
    4ace:	67 e0       	ldi	r22, 0x07	; 7
    4ad0:	ce 01       	movw	r24, r28
    4ad2:	0e 94 18 19 	call	0x3230	; 0x3230 <_ZN4UTFT14LCD_Write_DATAEc>
    4ad6:	62 e4       	ldi	r22, 0x42	; 66
    4ad8:	ce 01       	movw	r24, r28
    4ada:	0e 94 18 19 	call	0x3230	; 0x3230 <_ZN4UTFT14LCD_Write_DATAEc>
    4ade:	68 e1       	ldi	r22, 0x18	; 24
    4ae0:	ce 01       	movw	r24, r28
    4ae2:	0e 94 18 19 	call	0x3230	; 0x3230 <_ZN4UTFT14LCD_Write_DATAEc>
    4ae6:	61 ed       	ldi	r22, 0xD1	; 209
    4ae8:	ce 01       	movw	r24, r28
    4aea:	0e 94 dc 18 	call	0x31b8	; 0x31b8 <_ZN4UTFT13LCD_Write_COMEc>
    4aee:	60 e0       	ldi	r22, 0x00	; 0
    4af0:	ce 01       	movw	r24, r28
    4af2:	0e 94 18 19 	call	0x3230	; 0x3230 <_ZN4UTFT14LCD_Write_DATAEc>
    4af6:	67 e0       	ldi	r22, 0x07	; 7
    4af8:	ce 01       	movw	r24, r28
    4afa:	0e 94 18 19 	call	0x3230	; 0x3230 <_ZN4UTFT14LCD_Write_DATAEc>
    4afe:	60 e1       	ldi	r22, 0x10	; 16
    4b00:	ce 01       	movw	r24, r28
    4b02:	0e 94 18 19 	call	0x3230	; 0x3230 <_ZN4UTFT14LCD_Write_DATAEc>
    4b06:	62 ed       	ldi	r22, 0xD2	; 210
    4b08:	ce 01       	movw	r24, r28
    4b0a:	0e 94 dc 18 	call	0x31b8	; 0x31b8 <_ZN4UTFT13LCD_Write_COMEc>
    4b0e:	61 e0       	ldi	r22, 0x01	; 1
    4b10:	ce 01       	movw	r24, r28
    4b12:	0e 94 18 19 	call	0x3230	; 0x3230 <_ZN4UTFT14LCD_Write_DATAEc>
    4b16:	62 e0       	ldi	r22, 0x02	; 2
    4b18:	ce 01       	movw	r24, r28
    4b1a:	0e 94 18 19 	call	0x3230	; 0x3230 <_ZN4UTFT14LCD_Write_DATAEc>
    4b1e:	60 ec       	ldi	r22, 0xC0	; 192
    4b20:	ce 01       	movw	r24, r28
    4b22:	0e 94 dc 18 	call	0x31b8	; 0x31b8 <_ZN4UTFT13LCD_Write_COMEc>
    4b26:	60 e1       	ldi	r22, 0x10	; 16
    4b28:	ce 01       	movw	r24, r28
    4b2a:	0e 94 18 19 	call	0x3230	; 0x3230 <_ZN4UTFT14LCD_Write_DATAEc>
    4b2e:	6b e3       	ldi	r22, 0x3B	; 59
    4b30:	ce 01       	movw	r24, r28
    4b32:	0e 94 18 19 	call	0x3230	; 0x3230 <_ZN4UTFT14LCD_Write_DATAEc>
    4b36:	60 e0       	ldi	r22, 0x00	; 0
    4b38:	ce 01       	movw	r24, r28
    4b3a:	0e 94 18 19 	call	0x3230	; 0x3230 <_ZN4UTFT14LCD_Write_DATAEc>
    4b3e:	62 e0       	ldi	r22, 0x02	; 2
    4b40:	ce 01       	movw	r24, r28
    4b42:	0e 94 18 19 	call	0x3230	; 0x3230 <_ZN4UTFT14LCD_Write_DATAEc>
    4b46:	61 e1       	ldi	r22, 0x11	; 17
    4b48:	ce 01       	movw	r24, r28
    4b4a:	0e 94 18 19 	call	0x3230	; 0x3230 <_ZN4UTFT14LCD_Write_DATAEc>
    4b4e:	65 ec       	ldi	r22, 0xC5	; 197
    4b50:	ce 01       	movw	r24, r28
    4b52:	0e 94 dc 18 	call	0x31b8	; 0x31b8 <_ZN4UTFT13LCD_Write_COMEc>
    4b56:	63 e0       	ldi	r22, 0x03	; 3
    4b58:	ce 01       	movw	r24, r28
    4b5a:	0e 94 18 19 	call	0x3230	; 0x3230 <_ZN4UTFT14LCD_Write_DATAEc>
    4b5e:	68 ec       	ldi	r22, 0xC8	; 200
    4b60:	ce 01       	movw	r24, r28
    4b62:	0e 94 dc 18 	call	0x31b8	; 0x31b8 <_ZN4UTFT13LCD_Write_COMEc>
    4b66:	60 e0       	ldi	r22, 0x00	; 0
    4b68:	ce 01       	movw	r24, r28
    4b6a:	0e 94 18 19 	call	0x3230	; 0x3230 <_ZN4UTFT14LCD_Write_DATAEc>
    4b6e:	62 e3       	ldi	r22, 0x32	; 50
    4b70:	ce 01       	movw	r24, r28
    4b72:	0e 94 18 19 	call	0x3230	; 0x3230 <_ZN4UTFT14LCD_Write_DATAEc>
    4b76:	66 e3       	ldi	r22, 0x36	; 54
    4b78:	ce 01       	movw	r24, r28
    4b7a:	0e 94 18 19 	call	0x3230	; 0x3230 <_ZN4UTFT14LCD_Write_DATAEc>
    4b7e:	65 e4       	ldi	r22, 0x45	; 69
    4b80:	ce 01       	movw	r24, r28
    4b82:	0e 94 18 19 	call	0x3230	; 0x3230 <_ZN4UTFT14LCD_Write_DATAEc>
    4b86:	66 e0       	ldi	r22, 0x06	; 6
    4b88:	ce 01       	movw	r24, r28
    4b8a:	0e 94 18 19 	call	0x3230	; 0x3230 <_ZN4UTFT14LCD_Write_DATAEc>
    4b8e:	66 e1       	ldi	r22, 0x16	; 22
    4b90:	ce 01       	movw	r24, r28
    4b92:	0e 94 18 19 	call	0x3230	; 0x3230 <_ZN4UTFT14LCD_Write_DATAEc>
    4b96:	67 e3       	ldi	r22, 0x37	; 55
    4b98:	ce 01       	movw	r24, r28
    4b9a:	0e 94 18 19 	call	0x3230	; 0x3230 <_ZN4UTFT14LCD_Write_DATAEc>
    4b9e:	65 e7       	ldi	r22, 0x75	; 117
    4ba0:	ce 01       	movw	r24, r28
    4ba2:	0e 94 18 19 	call	0x3230	; 0x3230 <_ZN4UTFT14LCD_Write_DATAEc>
    4ba6:	67 e7       	ldi	r22, 0x77	; 119
    4ba8:	ce 01       	movw	r24, r28
    4baa:	0e 94 18 19 	call	0x3230	; 0x3230 <_ZN4UTFT14LCD_Write_DATAEc>
    4bae:	64 e5       	ldi	r22, 0x54	; 84
    4bb0:	ce 01       	movw	r24, r28
    4bb2:	0e 94 18 19 	call	0x3230	; 0x3230 <_ZN4UTFT14LCD_Write_DATAEc>
    4bb6:	6c e0       	ldi	r22, 0x0C	; 12
    4bb8:	ce 01       	movw	r24, r28
    4bba:	0e 94 18 19 	call	0x3230	; 0x3230 <_ZN4UTFT14LCD_Write_DATAEc>
    4bbe:	60 e0       	ldi	r22, 0x00	; 0
    4bc0:	ce 01       	movw	r24, r28
    4bc2:	0e 94 18 19 	call	0x3230	; 0x3230 <_ZN4UTFT14LCD_Write_DATAEc>
    4bc6:	66 e3       	ldi	r22, 0x36	; 54
    4bc8:	ce 01       	movw	r24, r28
    4bca:	0e 94 dc 18 	call	0x31b8	; 0x31b8 <_ZN4UTFT13LCD_Write_COMEc>
    4bce:	6a e0       	ldi	r22, 0x0A	; 10
    4bd0:	ce 01       	movw	r24, r28
    4bd2:	0e 94 18 19 	call	0x3230	; 0x3230 <_ZN4UTFT14LCD_Write_DATAEc>
    4bd6:	6a e3       	ldi	r22, 0x3A	; 58
    4bd8:	ce 01       	movw	r24, r28
    4bda:	0e 94 dc 18 	call	0x31b8	; 0x31b8 <_ZN4UTFT13LCD_Write_COMEc>
    4bde:	65 e5       	ldi	r22, 0x55	; 85
    4be0:	ce 01       	movw	r24, r28
    4be2:	0e 94 18 19 	call	0x3230	; 0x3230 <_ZN4UTFT14LCD_Write_DATAEc>
    4be6:	6a e2       	ldi	r22, 0x2A	; 42
    4be8:	ce 01       	movw	r24, r28
    4bea:	0e 94 dc 18 	call	0x31b8	; 0x31b8 <_ZN4UTFT13LCD_Write_COMEc>
    4bee:	60 e0       	ldi	r22, 0x00	; 0
    4bf0:	ce 01       	movw	r24, r28
    4bf2:	0e 94 18 19 	call	0x3230	; 0x3230 <_ZN4UTFT14LCD_Write_DATAEc>
    4bf6:	60 e0       	ldi	r22, 0x00	; 0
    4bf8:	ce 01       	movw	r24, r28
    4bfa:	0e 94 18 19 	call	0x3230	; 0x3230 <_ZN4UTFT14LCD_Write_DATAEc>
    4bfe:	61 e0       	ldi	r22, 0x01	; 1
    4c00:	ce 01       	movw	r24, r28
    4c02:	0e 94 18 19 	call	0x3230	; 0x3230 <_ZN4UTFT14LCD_Write_DATAEc>
    4c06:	6f e3       	ldi	r22, 0x3F	; 63
    4c08:	ce 01       	movw	r24, r28
    4c0a:	0e 94 18 19 	call	0x3230	; 0x3230 <_ZN4UTFT14LCD_Write_DATAEc>
    4c0e:	6b e2       	ldi	r22, 0x2B	; 43
    4c10:	ce 01       	movw	r24, r28
    4c12:	0e 94 dc 18 	call	0x31b8	; 0x31b8 <_ZN4UTFT13LCD_Write_COMEc>
    4c16:	60 e0       	ldi	r22, 0x00	; 0
    4c18:	ce 01       	movw	r24, r28
    4c1a:	0e 94 18 19 	call	0x3230	; 0x3230 <_ZN4UTFT14LCD_Write_DATAEc>
    4c1e:	60 e0       	ldi	r22, 0x00	; 0
    4c20:	ce 01       	movw	r24, r28
    4c22:	0e 94 18 19 	call	0x3230	; 0x3230 <_ZN4UTFT14LCD_Write_DATAEc>
    4c26:	61 e0       	ldi	r22, 0x01	; 1
    4c28:	ce 01       	movw	r24, r28
    4c2a:	0e 94 18 19 	call	0x3230	; 0x3230 <_ZN4UTFT14LCD_Write_DATAEc>
    4c2e:	60 ee       	ldi	r22, 0xE0	; 224
    4c30:	ce 01       	movw	r24, r28
    4c32:	0e 94 18 19 	call	0x3230	; 0x3230 <_ZN4UTFT14LCD_Write_DATAEc>
    4c36:	68 e7       	ldi	r22, 0x78	; 120
    4c38:	70 e0       	ldi	r23, 0x00	; 0
    4c3a:	80 e0       	ldi	r24, 0x00	; 0
    4c3c:	90 e0       	ldi	r25, 0x00	; 0
    4c3e:	0e 94 41 36 	call	0x6c82	; 0x6c82 <delay>
    4c42:	f8 c1       	rjmp	.+1008   	; 0x5034 <_ZN4UTFT7InitLCDEh+0x1b34>
    4c44:	4a e1       	ldi	r20, 0x1A	; 26
    4c46:	50 e0       	ldi	r21, 0x00	; 0
    4c48:	61 e1       	ldi	r22, 0x11	; 17
    4c4a:	ce 01       	movw	r24, r28
    4c4c:	0e 94 30 19 	call	0x3260	; 0x3260 <_ZN4UTFT18LCD_Write_COM_DATAEci>
    4c50:	41 e2       	ldi	r20, 0x21	; 33
    4c52:	51 e3       	ldi	r21, 0x31	; 49
    4c54:	62 e1       	ldi	r22, 0x12	; 18
    4c56:	ce 01       	movw	r24, r28
    4c58:	0e 94 30 19 	call	0x3260	; 0x3260 <_ZN4UTFT18LCD_Write_COM_DATAEci>
    4c5c:	4c e6       	ldi	r20, 0x6C	; 108
    4c5e:	50 e0       	ldi	r21, 0x00	; 0
    4c60:	63 e1       	ldi	r22, 0x13	; 19
    4c62:	ce 01       	movw	r24, r28
    4c64:	0e 94 30 19 	call	0x3260	; 0x3260 <_ZN4UTFT18LCD_Write_COM_DATAEci>
    4c68:	49 e4       	ldi	r20, 0x49	; 73
    4c6a:	52 e4       	ldi	r21, 0x42	; 66
    4c6c:	64 e1       	ldi	r22, 0x14	; 20
    4c6e:	ce 01       	movw	r24, r28
    4c70:	0e 94 30 19 	call	0x3260	; 0x3260 <_ZN4UTFT18LCD_Write_COM_DATAEci>
    4c74:	40 e0       	ldi	r20, 0x00	; 0
    4c76:	58 e0       	ldi	r21, 0x08	; 8
    4c78:	60 e1       	ldi	r22, 0x10	; 16
    4c7a:	ce 01       	movw	r24, r28
    4c7c:	0e 94 30 19 	call	0x3260	; 0x3260 <_ZN4UTFT18LCD_Write_COM_DATAEci>
    4c80:	6a e0       	ldi	r22, 0x0A	; 10
    4c82:	70 e0       	ldi	r23, 0x00	; 0
    4c84:	80 e0       	ldi	r24, 0x00	; 0
    4c86:	90 e0       	ldi	r25, 0x00	; 0
    4c88:	0e 94 41 36 	call	0x6c82	; 0x6c82 <delay>
    4c8c:	4a e1       	ldi	r20, 0x1A	; 26
    4c8e:	51 e0       	ldi	r21, 0x01	; 1
    4c90:	61 e1       	ldi	r22, 0x11	; 17
    4c92:	ce 01       	movw	r24, r28
    4c94:	0e 94 30 19 	call	0x3260	; 0x3260 <_ZN4UTFT18LCD_Write_COM_DATAEci>
    4c98:	6a e0       	ldi	r22, 0x0A	; 10
    4c9a:	70 e0       	ldi	r23, 0x00	; 0
    4c9c:	80 e0       	ldi	r24, 0x00	; 0
    4c9e:	90 e0       	ldi	r25, 0x00	; 0
    4ca0:	0e 94 41 36 	call	0x6c82	; 0x6c82 <delay>
    4ca4:	4a e1       	ldi	r20, 0x1A	; 26
    4ca6:	53 e0       	ldi	r21, 0x03	; 3
    4ca8:	61 e1       	ldi	r22, 0x11	; 17
    4caa:	ce 01       	movw	r24, r28
    4cac:	0e 94 30 19 	call	0x3260	; 0x3260 <_ZN4UTFT18LCD_Write_COM_DATAEci>
    4cb0:	6a e0       	ldi	r22, 0x0A	; 10
    4cb2:	70 e0       	ldi	r23, 0x00	; 0
    4cb4:	80 e0       	ldi	r24, 0x00	; 0
    4cb6:	90 e0       	ldi	r25, 0x00	; 0
    4cb8:	0e 94 41 36 	call	0x6c82	; 0x6c82 <delay>
    4cbc:	4a e1       	ldi	r20, 0x1A	; 26
    4cbe:	57 e0       	ldi	r21, 0x07	; 7
    4cc0:	61 e1       	ldi	r22, 0x11	; 17
    4cc2:	ce 01       	movw	r24, r28
    4cc4:	0e 94 30 19 	call	0x3260	; 0x3260 <_ZN4UTFT18LCD_Write_COM_DATAEci>
    4cc8:	6a e0       	ldi	r22, 0x0A	; 10
    4cca:	70 e0       	ldi	r23, 0x00	; 0
    4ccc:	80 e0       	ldi	r24, 0x00	; 0
    4cce:	90 e0       	ldi	r25, 0x00	; 0
    4cd0:	0e 94 41 36 	call	0x6c82	; 0x6c82 <delay>
    4cd4:	4a e1       	ldi	r20, 0x1A	; 26
    4cd6:	5f e0       	ldi	r21, 0x0F	; 15
    4cd8:	61 e1       	ldi	r22, 0x11	; 17
    4cda:	ce 01       	movw	r24, r28
    4cdc:	0e 94 30 19 	call	0x3260	; 0x3260 <_ZN4UTFT18LCD_Write_COM_DATAEci>
    4ce0:	6a e0       	ldi	r22, 0x0A	; 10
    4ce2:	70 e0       	ldi	r23, 0x00	; 0
    4ce4:	80 e0       	ldi	r24, 0x00	; 0
    4ce6:	90 e0       	ldi	r25, 0x00	; 0
    4ce8:	0e 94 41 36 	call	0x6c82	; 0x6c82 <delay>
    4cec:	4a e3       	ldi	r20, 0x3A	; 58
    4cee:	5f e0       	ldi	r21, 0x0F	; 15
    4cf0:	61 e1       	ldi	r22, 0x11	; 17
    4cf2:	ce 01       	movw	r24, r28
    4cf4:	0e 94 30 19 	call	0x3260	; 0x3260 <_ZN4UTFT18LCD_Write_COM_DATAEci>
    4cf8:	6e e1       	ldi	r22, 0x1E	; 30
    4cfa:	70 e0       	ldi	r23, 0x00	; 0
    4cfc:	80 e0       	ldi	r24, 0x00	; 0
    4cfe:	90 e0       	ldi	r25, 0x00	; 0
    4d00:	0e 94 41 36 	call	0x6c82	; 0x6c82 <delay>
    4d04:	4c e1       	ldi	r20, 0x1C	; 28
    4d06:	51 e0       	ldi	r21, 0x01	; 1
    4d08:	61 e0       	ldi	r22, 0x01	; 1
    4d0a:	ce 01       	movw	r24, r28
    4d0c:	0e 94 30 19 	call	0x3260	; 0x3260 <_ZN4UTFT18LCD_Write_COM_DATAEci>
    4d10:	40 e0       	ldi	r20, 0x00	; 0
    4d12:	51 e0       	ldi	r21, 0x01	; 1
    4d14:	62 e0       	ldi	r22, 0x02	; 2
    4d16:	ce 01       	movw	r24, r28
    4d18:	0e 94 30 19 	call	0x3260	; 0x3260 <_ZN4UTFT18LCD_Write_COM_DATAEci>
    4d1c:	40 e3       	ldi	r20, 0x30	; 48
    4d1e:	50 e1       	ldi	r21, 0x10	; 16
    4d20:	63 e0       	ldi	r22, 0x03	; 3
    4d22:	ce 01       	movw	r24, r28
    4d24:	0e 94 30 19 	call	0x3260	; 0x3260 <_ZN4UTFT18LCD_Write_COM_DATAEci>
    4d28:	40 e0       	ldi	r20, 0x00	; 0
    4d2a:	50 e0       	ldi	r21, 0x00	; 0
    4d2c:	67 e0       	ldi	r22, 0x07	; 7
    4d2e:	ce 01       	movw	r24, r28
    4d30:	0e 94 30 19 	call	0x3260	; 0x3260 <_ZN4UTFT18LCD_Write_COM_DATAEci>
    4d34:	48 e0       	ldi	r20, 0x08	; 8
    4d36:	58 e0       	ldi	r21, 0x08	; 8
    4d38:	68 e0       	ldi	r22, 0x08	; 8
    4d3a:	ce 01       	movw	r24, r28
    4d3c:	0e 94 30 19 	call	0x3260	; 0x3260 <_ZN4UTFT18LCD_Write_COM_DATAEci>
    4d40:	40 e0       	ldi	r20, 0x00	; 0
    4d42:	51 e1       	ldi	r21, 0x11	; 17
    4d44:	6b e0       	ldi	r22, 0x0B	; 11
    4d46:	ce 01       	movw	r24, r28
    4d48:	0e 94 30 19 	call	0x3260	; 0x3260 <_ZN4UTFT18LCD_Write_COM_DATAEci>
    4d4c:	40 e0       	ldi	r20, 0x00	; 0
    4d4e:	50 e0       	ldi	r21, 0x00	; 0
    4d50:	6c e0       	ldi	r22, 0x0C	; 12
    4d52:	ce 01       	movw	r24, r28
    4d54:	0e 94 30 19 	call	0x3260	; 0x3260 <_ZN4UTFT18LCD_Write_COM_DATAEci>
    4d58:	41 e0       	ldi	r20, 0x01	; 1
    4d5a:	54 e1       	ldi	r21, 0x14	; 20
    4d5c:	6f e0       	ldi	r22, 0x0F	; 15
    4d5e:	ce 01       	movw	r24, r28
    4d60:	0e 94 30 19 	call	0x3260	; 0x3260 <_ZN4UTFT18LCD_Write_COM_DATAEci>
    4d64:	40 e0       	ldi	r20, 0x00	; 0
    4d66:	50 e0       	ldi	r21, 0x00	; 0
    4d68:	65 e1       	ldi	r22, 0x15	; 21
    4d6a:	ce 01       	movw	r24, r28
    4d6c:	0e 94 30 19 	call	0x3260	; 0x3260 <_ZN4UTFT18LCD_Write_COM_DATAEci>
    4d70:	40 e0       	ldi	r20, 0x00	; 0
    4d72:	50 e0       	ldi	r21, 0x00	; 0
    4d74:	60 e2       	ldi	r22, 0x20	; 32
    4d76:	ce 01       	movw	r24, r28
    4d78:	0e 94 30 19 	call	0x3260	; 0x3260 <_ZN4UTFT18LCD_Write_COM_DATAEci>
    4d7c:	40 e0       	ldi	r20, 0x00	; 0
    4d7e:	50 e0       	ldi	r21, 0x00	; 0
    4d80:	61 e2       	ldi	r22, 0x21	; 33
    4d82:	ce 01       	movw	r24, r28
    4d84:	0e 94 30 19 	call	0x3260	; 0x3260 <_ZN4UTFT18LCD_Write_COM_DATAEci>
    4d88:	4f ea       	ldi	r20, 0xAF	; 175
    4d8a:	50 e0       	ldi	r21, 0x00	; 0
    4d8c:	66 e3       	ldi	r22, 0x36	; 54
    4d8e:	ce 01       	movw	r24, r28
    4d90:	0e 94 30 19 	call	0x3260	; 0x3260 <_ZN4UTFT18LCD_Write_COM_DATAEci>
    4d94:	40 e0       	ldi	r20, 0x00	; 0
    4d96:	50 e0       	ldi	r21, 0x00	; 0
    4d98:	67 e3       	ldi	r22, 0x37	; 55
    4d9a:	ce 01       	movw	r24, r28
    4d9c:	0e 94 30 19 	call	0x3260	; 0x3260 <_ZN4UTFT18LCD_Write_COM_DATAEci>
    4da0:	4b ed       	ldi	r20, 0xDB	; 219
    4da2:	50 e0       	ldi	r21, 0x00	; 0
    4da4:	68 e3       	ldi	r22, 0x38	; 56
    4da6:	ce 01       	movw	r24, r28
    4da8:	0e 94 30 19 	call	0x3260	; 0x3260 <_ZN4UTFT18LCD_Write_COM_DATAEci>
    4dac:	40 e0       	ldi	r20, 0x00	; 0
    4dae:	50 e0       	ldi	r21, 0x00	; 0
    4db0:	69 e3       	ldi	r22, 0x39	; 57
    4db2:	ce 01       	movw	r24, r28
    4db4:	0e 94 30 19 	call	0x3260	; 0x3260 <_ZN4UTFT18LCD_Write_COM_DATAEci>
    4db8:	41 e0       	ldi	r20, 0x01	; 1
    4dba:	5b e0       	ldi	r21, 0x0B	; 11
    4dbc:	6f e0       	ldi	r22, 0x0F	; 15
    4dbe:	ce 01       	movw	r24, r28
    4dc0:	0e 94 30 19 	call	0x3260	; 0x3260 <_ZN4UTFT18LCD_Write_COM_DATAEci>
    4dc4:	46 e1       	ldi	r20, 0x16	; 22
    4dc6:	50 e0       	ldi	r21, 0x00	; 0
    4dc8:	67 e0       	ldi	r22, 0x07	; 7
    4dca:	ce 01       	movw	r24, r28
    4dcc:	0e 94 30 19 	call	0x3260	; 0x3260 <_ZN4UTFT18LCD_Write_COM_DATAEci>
    4dd0:	47 e1       	ldi	r20, 0x17	; 23
    4dd2:	50 e0       	ldi	r21, 0x00	; 0
    4dd4:	67 e0       	ldi	r22, 0x07	; 7
    4dd6:	ce 01       	movw	r24, r28
    4dd8:	0e 94 30 19 	call	0x3260	; 0x3260 <_ZN4UTFT18LCD_Write_COM_DATAEci>
    4ddc:	0c 94 79 1e 	jmp	0x3cf2	; 0x3cf2 <_ZN4UTFT7InitLCDEh+0x7f2>
    4de0:	61 e1       	ldi	r22, 0x11	; 17
    4de2:	ce 01       	movw	r24, r28
    4de4:	0e 94 dc 18 	call	0x31b8	; 0x31b8 <_ZN4UTFT13LCD_Write_COMEc>
    4de8:	68 e7       	ldi	r22, 0x78	; 120
    4dea:	70 e0       	ldi	r23, 0x00	; 0
    4dec:	80 e0       	ldi	r24, 0x00	; 0
    4dee:	90 e0       	ldi	r25, 0x00	; 0
    4df0:	0e 94 41 36 	call	0x6c82	; 0x6c82 <delay>
    4df4:	61 eb       	ldi	r22, 0xB1	; 177
    4df6:	ce 01       	movw	r24, r28
    4df8:	0e 94 dc 18 	call	0x31b8	; 0x31b8 <_ZN4UTFT13LCD_Write_COMEc>
    4dfc:	65 e0       	ldi	r22, 0x05	; 5
    4dfe:	ce 01       	movw	r24, r28
    4e00:	0e 94 18 19 	call	0x3230	; 0x3230 <_ZN4UTFT14LCD_Write_DATAEc>
    4e04:	6c e3       	ldi	r22, 0x3C	; 60
    4e06:	ce 01       	movw	r24, r28
    4e08:	0e 94 18 19 	call	0x3230	; 0x3230 <_ZN4UTFT14LCD_Write_DATAEc>
    4e0c:	6c e3       	ldi	r22, 0x3C	; 60
    4e0e:	ce 01       	movw	r24, r28
    4e10:	0e 94 18 19 	call	0x3230	; 0x3230 <_ZN4UTFT14LCD_Write_DATAEc>
    4e14:	62 eb       	ldi	r22, 0xB2	; 178
    4e16:	ce 01       	movw	r24, r28
    4e18:	0e 94 dc 18 	call	0x31b8	; 0x31b8 <_ZN4UTFT13LCD_Write_COMEc>
    4e1c:	65 e0       	ldi	r22, 0x05	; 5
    4e1e:	ce 01       	movw	r24, r28
    4e20:	0e 94 18 19 	call	0x3230	; 0x3230 <_ZN4UTFT14LCD_Write_DATAEc>
    4e24:	6c e3       	ldi	r22, 0x3C	; 60
    4e26:	ce 01       	movw	r24, r28
    4e28:	0e 94 18 19 	call	0x3230	; 0x3230 <_ZN4UTFT14LCD_Write_DATAEc>
    4e2c:	6c e3       	ldi	r22, 0x3C	; 60
    4e2e:	ce 01       	movw	r24, r28
    4e30:	0e 94 18 19 	call	0x3230	; 0x3230 <_ZN4UTFT14LCD_Write_DATAEc>
    4e34:	63 eb       	ldi	r22, 0xB3	; 179
    4e36:	ce 01       	movw	r24, r28
    4e38:	0e 94 dc 18 	call	0x31b8	; 0x31b8 <_ZN4UTFT13LCD_Write_COMEc>
    4e3c:	65 e0       	ldi	r22, 0x05	; 5
    4e3e:	ce 01       	movw	r24, r28
    4e40:	0e 94 18 19 	call	0x3230	; 0x3230 <_ZN4UTFT14LCD_Write_DATAEc>
    4e44:	6c e3       	ldi	r22, 0x3C	; 60
    4e46:	ce 01       	movw	r24, r28
    4e48:	0e 94 18 19 	call	0x3230	; 0x3230 <_ZN4UTFT14LCD_Write_DATAEc>
    4e4c:	6c e3       	ldi	r22, 0x3C	; 60
    4e4e:	ce 01       	movw	r24, r28
    4e50:	0e 94 18 19 	call	0x3230	; 0x3230 <_ZN4UTFT14LCD_Write_DATAEc>
    4e54:	65 e0       	ldi	r22, 0x05	; 5
    4e56:	ce 01       	movw	r24, r28
    4e58:	0e 94 18 19 	call	0x3230	; 0x3230 <_ZN4UTFT14LCD_Write_DATAEc>
    4e5c:	6c e3       	ldi	r22, 0x3C	; 60
    4e5e:	ce 01       	movw	r24, r28
    4e60:	0e 94 18 19 	call	0x3230	; 0x3230 <_ZN4UTFT14LCD_Write_DATAEc>
    4e64:	6c e3       	ldi	r22, 0x3C	; 60
    4e66:	ce 01       	movw	r24, r28
    4e68:	0e 94 18 19 	call	0x3230	; 0x3230 <_ZN4UTFT14LCD_Write_DATAEc>
    4e6c:	64 eb       	ldi	r22, 0xB4	; 180
    4e6e:	ce 01       	movw	r24, r28
    4e70:	0e 94 dc 18 	call	0x31b8	; 0x31b8 <_ZN4UTFT13LCD_Write_COMEc>
    4e74:	63 e0       	ldi	r22, 0x03	; 3
    4e76:	ce 01       	movw	r24, r28
    4e78:	0e 94 18 19 	call	0x3230	; 0x3230 <_ZN4UTFT14LCD_Write_DATAEc>
    4e7c:	60 ec       	ldi	r22, 0xC0	; 192
    4e7e:	ce 01       	movw	r24, r28
    4e80:	0e 94 dc 18 	call	0x31b8	; 0x31b8 <_ZN4UTFT13LCD_Write_COMEc>
    4e84:	68 e2       	ldi	r22, 0x28	; 40
    4e86:	ce 01       	movw	r24, r28
    4e88:	0e 94 18 19 	call	0x3230	; 0x3230 <_ZN4UTFT14LCD_Write_DATAEc>
    4e8c:	68 e0       	ldi	r22, 0x08	; 8
    4e8e:	ce 01       	movw	r24, r28
    4e90:	0e 94 18 19 	call	0x3230	; 0x3230 <_ZN4UTFT14LCD_Write_DATAEc>
    4e94:	64 e0       	ldi	r22, 0x04	; 4
    4e96:	ce 01       	movw	r24, r28
    4e98:	0e 94 18 19 	call	0x3230	; 0x3230 <_ZN4UTFT14LCD_Write_DATAEc>
    4e9c:	61 ec       	ldi	r22, 0xC1	; 193
    4e9e:	ce 01       	movw	r24, r28
    4ea0:	0e 94 dc 18 	call	0x31b8	; 0x31b8 <_ZN4UTFT13LCD_Write_COMEc>
    4ea4:	60 ec       	ldi	r22, 0xC0	; 192
    4ea6:	ce 01       	movw	r24, r28
    4ea8:	0e 94 18 19 	call	0x3230	; 0x3230 <_ZN4UTFT14LCD_Write_DATAEc>
    4eac:	62 ec       	ldi	r22, 0xC2	; 194
    4eae:	ce 01       	movw	r24, r28
    4eb0:	0e 94 dc 18 	call	0x31b8	; 0x31b8 <_ZN4UTFT13LCD_Write_COMEc>
    4eb4:	6d e0       	ldi	r22, 0x0D	; 13
    4eb6:	ce 01       	movw	r24, r28
    4eb8:	0e 94 18 19 	call	0x3230	; 0x3230 <_ZN4UTFT14LCD_Write_DATAEc>
    4ebc:	60 e0       	ldi	r22, 0x00	; 0
    4ebe:	ce 01       	movw	r24, r28
    4ec0:	0e 94 18 19 	call	0x3230	; 0x3230 <_ZN4UTFT14LCD_Write_DATAEc>
    4ec4:	63 ec       	ldi	r22, 0xC3	; 195
    4ec6:	ce 01       	movw	r24, r28
    4ec8:	0e 94 dc 18 	call	0x31b8	; 0x31b8 <_ZN4UTFT13LCD_Write_COMEc>
    4ecc:	6d e8       	ldi	r22, 0x8D	; 141
    4ece:	ce 01       	movw	r24, r28
    4ed0:	0e 94 18 19 	call	0x3230	; 0x3230 <_ZN4UTFT14LCD_Write_DATAEc>
    4ed4:	6a e2       	ldi	r22, 0x2A	; 42
    4ed6:	ce 01       	movw	r24, r28
    4ed8:	0e 94 18 19 	call	0x3230	; 0x3230 <_ZN4UTFT14LCD_Write_DATAEc>
    4edc:	64 ec       	ldi	r22, 0xC4	; 196
    4ede:	ce 01       	movw	r24, r28
    4ee0:	0e 94 dc 18 	call	0x31b8	; 0x31b8 <_ZN4UTFT13LCD_Write_COMEc>
    4ee4:	6d e8       	ldi	r22, 0x8D	; 141
    4ee6:	ce 01       	movw	r24, r28
    4ee8:	0e 94 18 19 	call	0x3230	; 0x3230 <_ZN4UTFT14LCD_Write_DATAEc>
    4eec:	6e ee       	ldi	r22, 0xEE	; 238
    4eee:	ce 01       	movw	r24, r28
    4ef0:	0e 94 18 19 	call	0x3230	; 0x3230 <_ZN4UTFT14LCD_Write_DATAEc>
    4ef4:	65 ec       	ldi	r22, 0xC5	; 197
    4ef6:	ce 01       	movw	r24, r28
    4ef8:	0e 94 dc 18 	call	0x31b8	; 0x31b8 <_ZN4UTFT13LCD_Write_COMEc>
    4efc:	6a e1       	ldi	r22, 0x1A	; 26
    4efe:	ce 01       	movw	r24, r28
    4f00:	0e 94 18 19 	call	0x3230	; 0x3230 <_ZN4UTFT14LCD_Write_DATAEc>
    4f04:	66 e3       	ldi	r22, 0x36	; 54
    4f06:	ce 01       	movw	r24, r28
    4f08:	0e 94 dc 18 	call	0x31b8	; 0x31b8 <_ZN4UTFT13LCD_Write_COMEc>
    4f0c:	60 ec       	ldi	r22, 0xC0	; 192
    4f0e:	ce 01       	movw	r24, r28
    4f10:	0e 94 18 19 	call	0x3230	; 0x3230 <_ZN4UTFT14LCD_Write_DATAEc>
    4f14:	60 ee       	ldi	r22, 0xE0	; 224
    4f16:	ce 01       	movw	r24, r28
    4f18:	0e 94 dc 18 	call	0x31b8	; 0x31b8 <_ZN4UTFT13LCD_Write_COMEc>
    4f1c:	63 e0       	ldi	r22, 0x03	; 3
    4f1e:	ce 01       	movw	r24, r28
    4f20:	0e 94 18 19 	call	0x3230	; 0x3230 <_ZN4UTFT14LCD_Write_DATAEc>
    4f24:	62 e2       	ldi	r22, 0x22	; 34
    4f26:	ce 01       	movw	r24, r28
    4f28:	0e 94 18 19 	call	0x3230	; 0x3230 <_ZN4UTFT14LCD_Write_DATAEc>
    4f2c:	67 e0       	ldi	r22, 0x07	; 7
    4f2e:	ce 01       	movw	r24, r28
    4f30:	0e 94 18 19 	call	0x3230	; 0x3230 <_ZN4UTFT14LCD_Write_DATAEc>
    4f34:	6a e0       	ldi	r22, 0x0A	; 10
    4f36:	ce 01       	movw	r24, r28
    4f38:	0e 94 18 19 	call	0x3230	; 0x3230 <_ZN4UTFT14LCD_Write_DATAEc>
    4f3c:	6e e2       	ldi	r22, 0x2E	; 46
    4f3e:	ce 01       	movw	r24, r28
    4f40:	0e 94 18 19 	call	0x3230	; 0x3230 <_ZN4UTFT14LCD_Write_DATAEc>
    4f44:	60 e3       	ldi	r22, 0x30	; 48
    4f46:	ce 01       	movw	r24, r28
    4f48:	0e 94 18 19 	call	0x3230	; 0x3230 <_ZN4UTFT14LCD_Write_DATAEc>
    4f4c:	65 e2       	ldi	r22, 0x25	; 37
    4f4e:	ce 01       	movw	r24, r28
    4f50:	0e 94 18 19 	call	0x3230	; 0x3230 <_ZN4UTFT14LCD_Write_DATAEc>
    4f54:	6a e2       	ldi	r22, 0x2A	; 42
    4f56:	ce 01       	movw	r24, r28
    4f58:	0e 94 18 19 	call	0x3230	; 0x3230 <_ZN4UTFT14LCD_Write_DATAEc>
    4f5c:	68 e2       	ldi	r22, 0x28	; 40
    4f5e:	ce 01       	movw	r24, r28
    4f60:	0e 94 18 19 	call	0x3230	; 0x3230 <_ZN4UTFT14LCD_Write_DATAEc>
    4f64:	66 e2       	ldi	r22, 0x26	; 38
    4f66:	ce 01       	movw	r24, r28
    4f68:	0e 94 18 19 	call	0x3230	; 0x3230 <_ZN4UTFT14LCD_Write_DATAEc>
    4f6c:	6e e2       	ldi	r22, 0x2E	; 46
    4f6e:	ce 01       	movw	r24, r28
    4f70:	0e 94 18 19 	call	0x3230	; 0x3230 <_ZN4UTFT14LCD_Write_DATAEc>
    4f74:	6a e3       	ldi	r22, 0x3A	; 58
    4f76:	ce 01       	movw	r24, r28
    4f78:	0e 94 18 19 	call	0x3230	; 0x3230 <_ZN4UTFT14LCD_Write_DATAEc>
    4f7c:	60 e0       	ldi	r22, 0x00	; 0
    4f7e:	ce 01       	movw	r24, r28
    4f80:	0e 94 18 19 	call	0x3230	; 0x3230 <_ZN4UTFT14LCD_Write_DATAEc>
    4f84:	61 e0       	ldi	r22, 0x01	; 1
    4f86:	ce 01       	movw	r24, r28
    4f88:	0e 94 18 19 	call	0x3230	; 0x3230 <_ZN4UTFT14LCD_Write_DATAEc>
    4f8c:	63 e0       	ldi	r22, 0x03	; 3
    4f8e:	ce 01       	movw	r24, r28
    4f90:	0e 94 18 19 	call	0x3230	; 0x3230 <_ZN4UTFT14LCD_Write_DATAEc>
    4f94:	63 e1       	ldi	r22, 0x13	; 19
    4f96:	ce 01       	movw	r24, r28
    4f98:	0e 94 18 19 	call	0x3230	; 0x3230 <_ZN4UTFT14LCD_Write_DATAEc>
    4f9c:	61 ee       	ldi	r22, 0xE1	; 225
    4f9e:	ce 01       	movw	r24, r28
    4fa0:	0e 94 dc 18 	call	0x31b8	; 0x31b8 <_ZN4UTFT13LCD_Write_COMEc>
    4fa4:	64 e0       	ldi	r22, 0x04	; 4
    4fa6:	ce 01       	movw	r24, r28
    4fa8:	0e 94 18 19 	call	0x3230	; 0x3230 <_ZN4UTFT14LCD_Write_DATAEc>
    4fac:	66 e1       	ldi	r22, 0x16	; 22
    4fae:	ce 01       	movw	r24, r28
    4fb0:	0e 94 18 19 	call	0x3230	; 0x3230 <_ZN4UTFT14LCD_Write_DATAEc>
    4fb4:	66 e0       	ldi	r22, 0x06	; 6
    4fb6:	ce 01       	movw	r24, r28
    4fb8:	0e 94 18 19 	call	0x3230	; 0x3230 <_ZN4UTFT14LCD_Write_DATAEc>
    4fbc:	6d e0       	ldi	r22, 0x0D	; 13
    4fbe:	ce 01       	movw	r24, r28
    4fc0:	0e 94 18 19 	call	0x3230	; 0x3230 <_ZN4UTFT14LCD_Write_DATAEc>
    4fc4:	6d e2       	ldi	r22, 0x2D	; 45
    4fc6:	ce 01       	movw	r24, r28
    4fc8:	0e 94 18 19 	call	0x3230	; 0x3230 <_ZN4UTFT14LCD_Write_DATAEc>
    4fcc:	66 e2       	ldi	r22, 0x26	; 38
    4fce:	ce 01       	movw	r24, r28
    4fd0:	0e 94 18 19 	call	0x3230	; 0x3230 <_ZN4UTFT14LCD_Write_DATAEc>
    4fd4:	63 e2       	ldi	r22, 0x23	; 35
    4fd6:	ce 01       	movw	r24, r28
    4fd8:	0e 94 18 19 	call	0x3230	; 0x3230 <_ZN4UTFT14LCD_Write_DATAEc>
    4fdc:	67 e2       	ldi	r22, 0x27	; 39
    4fde:	ce 01       	movw	r24, r28
    4fe0:	0e 94 18 19 	call	0x3230	; 0x3230 <_ZN4UTFT14LCD_Write_DATAEc>
    4fe4:	67 e2       	ldi	r22, 0x27	; 39
    4fe6:	ce 01       	movw	r24, r28
    4fe8:	0e 94 18 19 	call	0x3230	; 0x3230 <_ZN4UTFT14LCD_Write_DATAEc>
    4fec:	65 e2       	ldi	r22, 0x25	; 37
    4fee:	ce 01       	movw	r24, r28
    4ff0:	0e 94 18 19 	call	0x3230	; 0x3230 <_ZN4UTFT14LCD_Write_DATAEc>
    4ff4:	6d e2       	ldi	r22, 0x2D	; 45
    4ff6:	ce 01       	movw	r24, r28
    4ff8:	0e 94 18 19 	call	0x3230	; 0x3230 <_ZN4UTFT14LCD_Write_DATAEc>
    4ffc:	6b e3       	ldi	r22, 0x3B	; 59
    4ffe:	ce 01       	movw	r24, r28
    5000:	0e 94 18 19 	call	0x3230	; 0x3230 <_ZN4UTFT14LCD_Write_DATAEc>
    5004:	60 e0       	ldi	r22, 0x00	; 0
    5006:	ce 01       	movw	r24, r28
    5008:	0e 94 18 19 	call	0x3230	; 0x3230 <_ZN4UTFT14LCD_Write_DATAEc>
    500c:	61 e0       	ldi	r22, 0x01	; 1
    500e:	ce 01       	movw	r24, r28
    5010:	0e 94 18 19 	call	0x3230	; 0x3230 <_ZN4UTFT14LCD_Write_DATAEc>
    5014:	64 e0       	ldi	r22, 0x04	; 4
    5016:	ce 01       	movw	r24, r28
    5018:	0e 94 18 19 	call	0x3230	; 0x3230 <_ZN4UTFT14LCD_Write_DATAEc>
    501c:	63 e1       	ldi	r22, 0x13	; 19
    501e:	ce 01       	movw	r24, r28
    5020:	0e 94 18 19 	call	0x3230	; 0x3230 <_ZN4UTFT14LCD_Write_DATAEc>
    5024:	6a e3       	ldi	r22, 0x3A	; 58
    5026:	ce 01       	movw	r24, r28
    5028:	0e 94 dc 18 	call	0x31b8	; 0x31b8 <_ZN4UTFT13LCD_Write_COMEc>
    502c:	65 e0       	ldi	r22, 0x05	; 5
    502e:	ce 01       	movw	r24, r28
    5030:	0e 94 18 19 	call	0x3230	; 0x3230 <_ZN4UTFT14LCD_Write_DATAEc>
    5034:	69 e2       	ldi	r22, 0x29	; 41
    5036:	0c 94 7a 1e 	jmp	0x3cf4	; 0x3cf4 <_ZN4UTFT7InitLCDEh+0x7f4>
    503a:	61 e1       	ldi	r22, 0x11	; 17
    503c:	ce 01       	movw	r24, r28
    503e:	0e 94 dc 18 	call	0x31b8	; 0x31b8 <_ZN4UTFT13LCD_Write_COMEc>
    5042:	64 e1       	ldi	r22, 0x14	; 20
    5044:	70 e0       	ldi	r23, 0x00	; 0
    5046:	80 e0       	ldi	r24, 0x00	; 0
    5048:	90 e0       	ldi	r25, 0x00	; 0
    504a:	0e 94 41 36 	call	0x6c82	; 0x6c82 <delay>
    504e:	68 e2       	ldi	r22, 0x28	; 40
    5050:	ce 01       	movw	r24, r28
    5052:	0e 94 dc 18 	call	0x31b8	; 0x31b8 <_ZN4UTFT13LCD_Write_COMEc>
    5056:	65 e0       	ldi	r22, 0x05	; 5
    5058:	70 e0       	ldi	r23, 0x00	; 0
    505a:	80 e0       	ldi	r24, 0x00	; 0
    505c:	90 e0       	ldi	r25, 0x00	; 0
    505e:	0e 94 41 36 	call	0x6c82	; 0x6c82 <delay>
    5062:	6f ec       	ldi	r22, 0xCF	; 207
    5064:	ce 01       	movw	r24, r28
    5066:	0e 94 dc 18 	call	0x31b8	; 0x31b8 <_ZN4UTFT13LCD_Write_COMEc>
    506a:	60 e0       	ldi	r22, 0x00	; 0
    506c:	ce 01       	movw	r24, r28
    506e:	0e 94 18 19 	call	0x3230	; 0x3230 <_ZN4UTFT14LCD_Write_DATAEc>
    5072:	63 e8       	ldi	r22, 0x83	; 131
    5074:	ce 01       	movw	r24, r28
    5076:	0e 94 18 19 	call	0x3230	; 0x3230 <_ZN4UTFT14LCD_Write_DATAEc>
    507a:	60 e3       	ldi	r22, 0x30	; 48
    507c:	ce 01       	movw	r24, r28
    507e:	0e 94 18 19 	call	0x3230	; 0x3230 <_ZN4UTFT14LCD_Write_DATAEc>
    5082:	6d ee       	ldi	r22, 0xED	; 237
    5084:	ce 01       	movw	r24, r28
    5086:	0e 94 dc 18 	call	0x31b8	; 0x31b8 <_ZN4UTFT13LCD_Write_COMEc>
    508a:	64 e6       	ldi	r22, 0x64	; 100
    508c:	ce 01       	movw	r24, r28
    508e:	0e 94 18 19 	call	0x3230	; 0x3230 <_ZN4UTFT14LCD_Write_DATAEc>
    5092:	63 e0       	ldi	r22, 0x03	; 3
    5094:	ce 01       	movw	r24, r28
    5096:	0e 94 18 19 	call	0x3230	; 0x3230 <_ZN4UTFT14LCD_Write_DATAEc>
    509a:	62 e1       	ldi	r22, 0x12	; 18
    509c:	ce 01       	movw	r24, r28
    509e:	0e 94 18 19 	call	0x3230	; 0x3230 <_ZN4UTFT14LCD_Write_DATAEc>
    50a2:	61 e8       	ldi	r22, 0x81	; 129
    50a4:	ce 01       	movw	r24, r28
    50a6:	0e 94 18 19 	call	0x3230	; 0x3230 <_ZN4UTFT14LCD_Write_DATAEc>
    50aa:	68 ee       	ldi	r22, 0xE8	; 232
    50ac:	ce 01       	movw	r24, r28
    50ae:	0e 94 dc 18 	call	0x31b8	; 0x31b8 <_ZN4UTFT13LCD_Write_COMEc>
    50b2:	65 e8       	ldi	r22, 0x85	; 133
    50b4:	ce 01       	movw	r24, r28
    50b6:	0e 94 18 19 	call	0x3230	; 0x3230 <_ZN4UTFT14LCD_Write_DATAEc>
    50ba:	61 e0       	ldi	r22, 0x01	; 1
    50bc:	ce 01       	movw	r24, r28
    50be:	0e 94 18 19 	call	0x3230	; 0x3230 <_ZN4UTFT14LCD_Write_DATAEc>
    50c2:	69 e7       	ldi	r22, 0x79	; 121
    50c4:	ce 01       	movw	r24, r28
    50c6:	0e 94 18 19 	call	0x3230	; 0x3230 <_ZN4UTFT14LCD_Write_DATAEc>
    50ca:	6b ec       	ldi	r22, 0xCB	; 203
    50cc:	ce 01       	movw	r24, r28
    50ce:	0e 94 dc 18 	call	0x31b8	; 0x31b8 <_ZN4UTFT13LCD_Write_COMEc>
    50d2:	69 e3       	ldi	r22, 0x39	; 57
    50d4:	ce 01       	movw	r24, r28
    50d6:	0e 94 18 19 	call	0x3230	; 0x3230 <_ZN4UTFT14LCD_Write_DATAEc>
    50da:	6c e2       	ldi	r22, 0x2C	; 44
    50dc:	ce 01       	movw	r24, r28
    50de:	0e 94 18 19 	call	0x3230	; 0x3230 <_ZN4UTFT14LCD_Write_DATAEc>
    50e2:	60 e0       	ldi	r22, 0x00	; 0
    50e4:	ce 01       	movw	r24, r28
    50e6:	0e 94 18 19 	call	0x3230	; 0x3230 <_ZN4UTFT14LCD_Write_DATAEc>
    50ea:	64 e3       	ldi	r22, 0x34	; 52
    50ec:	ce 01       	movw	r24, r28
    50ee:	0e 94 18 19 	call	0x3230	; 0x3230 <_ZN4UTFT14LCD_Write_DATAEc>
    50f2:	62 e0       	ldi	r22, 0x02	; 2
    50f4:	ce 01       	movw	r24, r28
    50f6:	0e 94 18 19 	call	0x3230	; 0x3230 <_ZN4UTFT14LCD_Write_DATAEc>
    50fa:	67 ef       	ldi	r22, 0xF7	; 247
    50fc:	ce 01       	movw	r24, r28
    50fe:	0e 94 dc 18 	call	0x31b8	; 0x31b8 <_ZN4UTFT13LCD_Write_COMEc>
    5102:	60 e2       	ldi	r22, 0x20	; 32
    5104:	ce 01       	movw	r24, r28
    5106:	0e 94 18 19 	call	0x3230	; 0x3230 <_ZN4UTFT14LCD_Write_DATAEc>
    510a:	6a ee       	ldi	r22, 0xEA	; 234
    510c:	ce 01       	movw	r24, r28
    510e:	0e 94 dc 18 	call	0x31b8	; 0x31b8 <_ZN4UTFT13LCD_Write_COMEc>
    5112:	60 e0       	ldi	r22, 0x00	; 0
    5114:	ce 01       	movw	r24, r28
    5116:	0e 94 18 19 	call	0x3230	; 0x3230 <_ZN4UTFT14LCD_Write_DATAEc>
    511a:	60 e0       	ldi	r22, 0x00	; 0
    511c:	ce 01       	movw	r24, r28
    511e:	0e 94 18 19 	call	0x3230	; 0x3230 <_ZN4UTFT14LCD_Write_DATAEc>
    5122:	60 ec       	ldi	r22, 0xC0	; 192
    5124:	ce 01       	movw	r24, r28
    5126:	0e 94 dc 18 	call	0x31b8	; 0x31b8 <_ZN4UTFT13LCD_Write_COMEc>
    512a:	66 e2       	ldi	r22, 0x26	; 38
    512c:	ce 01       	movw	r24, r28
    512e:	0e 94 18 19 	call	0x3230	; 0x3230 <_ZN4UTFT14LCD_Write_DATAEc>
    5132:	61 ec       	ldi	r22, 0xC1	; 193
    5134:	ce 01       	movw	r24, r28
    5136:	0e 94 dc 18 	call	0x31b8	; 0x31b8 <_ZN4UTFT13LCD_Write_COMEc>
    513a:	61 e1       	ldi	r22, 0x11	; 17
    513c:	ce 01       	movw	r24, r28
    513e:	0e 94 18 19 	call	0x3230	; 0x3230 <_ZN4UTFT14LCD_Write_DATAEc>
    5142:	65 ec       	ldi	r22, 0xC5	; 197
    5144:	ce 01       	movw	r24, r28
    5146:	0e 94 dc 18 	call	0x31b8	; 0x31b8 <_ZN4UTFT13LCD_Write_COMEc>
    514a:	65 e3       	ldi	r22, 0x35	; 53
    514c:	ce 01       	movw	r24, r28
    514e:	0e 94 18 19 	call	0x3230	; 0x3230 <_ZN4UTFT14LCD_Write_DATAEc>
    5152:	6e e3       	ldi	r22, 0x3E	; 62
    5154:	ce 01       	movw	r24, r28
    5156:	0e 94 18 19 	call	0x3230	; 0x3230 <_ZN4UTFT14LCD_Write_DATAEc>
    515a:	67 ec       	ldi	r22, 0xC7	; 199
    515c:	ce 01       	movw	r24, r28
    515e:	0e 94 dc 18 	call	0x31b8	; 0x31b8 <_ZN4UTFT13LCD_Write_COMEc>
    5162:	6e eb       	ldi	r22, 0xBE	; 190
    5164:	ce 01       	movw	r24, r28
    5166:	0e 94 18 19 	call	0x3230	; 0x3230 <_ZN4UTFT14LCD_Write_DATAEc>
    516a:	61 eb       	ldi	r22, 0xB1	; 177
    516c:	ce 01       	movw	r24, r28
    516e:	0e 94 dc 18 	call	0x31b8	; 0x31b8 <_ZN4UTFT13LCD_Write_COMEc>
    5172:	60 e0       	ldi	r22, 0x00	; 0
    5174:	ce 01       	movw	r24, r28
    5176:	0e 94 18 19 	call	0x3230	; 0x3230 <_ZN4UTFT14LCD_Write_DATAEc>
    517a:	6b e1       	ldi	r22, 0x1B	; 27
    517c:	ce 01       	movw	r24, r28
    517e:	0e 94 18 19 	call	0x3230	; 0x3230 <_ZN4UTFT14LCD_Write_DATAEc>
    5182:	66 eb       	ldi	r22, 0xB6	; 182
    5184:	ce 01       	movw	r24, r28
    5186:	0e 94 dc 18 	call	0x31b8	; 0x31b8 <_ZN4UTFT13LCD_Write_COMEc>
    518a:	6a e0       	ldi	r22, 0x0A	; 10
    518c:	ce 01       	movw	r24, r28
    518e:	0e 94 18 19 	call	0x3230	; 0x3230 <_ZN4UTFT14LCD_Write_DATAEc>
    5192:	62 e8       	ldi	r22, 0x82	; 130
    5194:	ce 01       	movw	r24, r28
    5196:	0e 94 18 19 	call	0x3230	; 0x3230 <_ZN4UTFT14LCD_Write_DATAEc>
    519a:	67 e2       	ldi	r22, 0x27	; 39
    519c:	ce 01       	movw	r24, r28
    519e:	0e 94 18 19 	call	0x3230	; 0x3230 <_ZN4UTFT14LCD_Write_DATAEc>
    51a2:	60 e0       	ldi	r22, 0x00	; 0
    51a4:	ce 01       	movw	r24, r28
    51a6:	0e 94 18 19 	call	0x3230	; 0x3230 <_ZN4UTFT14LCD_Write_DATAEc>
    51aa:	67 eb       	ldi	r22, 0xB7	; 183
    51ac:	ce 01       	movw	r24, r28
    51ae:	0e 94 dc 18 	call	0x31b8	; 0x31b8 <_ZN4UTFT13LCD_Write_COMEc>
    51b2:	67 e0       	ldi	r22, 0x07	; 7
    51b4:	ce 01       	movw	r24, r28
    51b6:	0e 94 18 19 	call	0x3230	; 0x3230 <_ZN4UTFT14LCD_Write_DATAEc>
    51ba:	6a e3       	ldi	r22, 0x3A	; 58
    51bc:	ce 01       	movw	r24, r28
    51be:	0e 94 dc 18 	call	0x31b8	; 0x31b8 <_ZN4UTFT13LCD_Write_COMEc>
    51c2:	65 e5       	ldi	r22, 0x55	; 85
    51c4:	ce 01       	movw	r24, r28
    51c6:	0e 94 18 19 	call	0x3230	; 0x3230 <_ZN4UTFT14LCD_Write_DATAEc>
    51ca:	66 e3       	ldi	r22, 0x36	; 54
    51cc:	ce 01       	movw	r24, r28
    51ce:	0e 94 dc 18 	call	0x31b8	; 0x31b8 <_ZN4UTFT13LCD_Write_COMEc>
    51d2:	68 e4       	ldi	r22, 0x48	; 72
    51d4:	ce 01       	movw	r24, r28
    51d6:	0e 94 18 19 	call	0x3230	; 0x3230 <_ZN4UTFT14LCD_Write_DATAEc>
    51da:	69 e2       	ldi	r22, 0x29	; 41
    51dc:	ce 01       	movw	r24, r28
    51de:	0e 94 dc 18 	call	0x31b8	; 0x31b8 <_ZN4UTFT13LCD_Write_COMEc>
    51e2:	65 e0       	ldi	r22, 0x05	; 5
    51e4:	70 e0       	ldi	r23, 0x00	; 0
    51e6:	80 e0       	ldi	r24, 0x00	; 0
    51e8:	90 e0       	ldi	r25, 0x00	; 0
    51ea:	5b c4       	rjmp	.+2230   	; 0x5aa2 <_ZN4UTFT7InitLCDEh+0x25a2>
    51ec:	6b ec       	ldi	r22, 0xCB	; 203
    51ee:	ce 01       	movw	r24, r28
    51f0:	0e 94 dc 18 	call	0x31b8	; 0x31b8 <_ZN4UTFT13LCD_Write_COMEc>
    51f4:	69 e3       	ldi	r22, 0x39	; 57
    51f6:	ce 01       	movw	r24, r28
    51f8:	0e 94 18 19 	call	0x3230	; 0x3230 <_ZN4UTFT14LCD_Write_DATAEc>
    51fc:	6c e2       	ldi	r22, 0x2C	; 44
    51fe:	ce 01       	movw	r24, r28
    5200:	0e 94 18 19 	call	0x3230	; 0x3230 <_ZN4UTFT14LCD_Write_DATAEc>
    5204:	60 e0       	ldi	r22, 0x00	; 0
    5206:	ce 01       	movw	r24, r28
    5208:	0e 94 18 19 	call	0x3230	; 0x3230 <_ZN4UTFT14LCD_Write_DATAEc>
    520c:	64 e3       	ldi	r22, 0x34	; 52
    520e:	ce 01       	movw	r24, r28
    5210:	0e 94 18 19 	call	0x3230	; 0x3230 <_ZN4UTFT14LCD_Write_DATAEc>
    5214:	62 e0       	ldi	r22, 0x02	; 2
    5216:	ce 01       	movw	r24, r28
    5218:	0e 94 18 19 	call	0x3230	; 0x3230 <_ZN4UTFT14LCD_Write_DATAEc>
    521c:	6f ec       	ldi	r22, 0xCF	; 207
    521e:	ce 01       	movw	r24, r28
    5220:	0e 94 dc 18 	call	0x31b8	; 0x31b8 <_ZN4UTFT13LCD_Write_COMEc>
    5224:	60 e0       	ldi	r22, 0x00	; 0
    5226:	ce 01       	movw	r24, r28
    5228:	0e 94 18 19 	call	0x3230	; 0x3230 <_ZN4UTFT14LCD_Write_DATAEc>
    522c:	61 ec       	ldi	r22, 0xC1	; 193
    522e:	ce 01       	movw	r24, r28
    5230:	0e 94 18 19 	call	0x3230	; 0x3230 <_ZN4UTFT14LCD_Write_DATAEc>
    5234:	60 e3       	ldi	r22, 0x30	; 48
    5236:	ce 01       	movw	r24, r28
    5238:	0e 94 18 19 	call	0x3230	; 0x3230 <_ZN4UTFT14LCD_Write_DATAEc>
    523c:	68 ee       	ldi	r22, 0xE8	; 232
    523e:	ce 01       	movw	r24, r28
    5240:	0e 94 dc 18 	call	0x31b8	; 0x31b8 <_ZN4UTFT13LCD_Write_COMEc>
    5244:	65 e8       	ldi	r22, 0x85	; 133
    5246:	ce 01       	movw	r24, r28
    5248:	0e 94 18 19 	call	0x3230	; 0x3230 <_ZN4UTFT14LCD_Write_DATAEc>
    524c:	60 e0       	ldi	r22, 0x00	; 0
    524e:	ce 01       	movw	r24, r28
    5250:	0e 94 18 19 	call	0x3230	; 0x3230 <_ZN4UTFT14LCD_Write_DATAEc>
    5254:	68 e7       	ldi	r22, 0x78	; 120
    5256:	ce 01       	movw	r24, r28
    5258:	0e 94 18 19 	call	0x3230	; 0x3230 <_ZN4UTFT14LCD_Write_DATAEc>
    525c:	6a ee       	ldi	r22, 0xEA	; 234
    525e:	ce 01       	movw	r24, r28
    5260:	0e 94 dc 18 	call	0x31b8	; 0x31b8 <_ZN4UTFT13LCD_Write_COMEc>
    5264:	60 e0       	ldi	r22, 0x00	; 0
    5266:	ce 01       	movw	r24, r28
    5268:	0e 94 18 19 	call	0x3230	; 0x3230 <_ZN4UTFT14LCD_Write_DATAEc>
    526c:	60 e0       	ldi	r22, 0x00	; 0
    526e:	ce 01       	movw	r24, r28
    5270:	0e 94 18 19 	call	0x3230	; 0x3230 <_ZN4UTFT14LCD_Write_DATAEc>
    5274:	6d ee       	ldi	r22, 0xED	; 237
    5276:	ce 01       	movw	r24, r28
    5278:	0e 94 dc 18 	call	0x31b8	; 0x31b8 <_ZN4UTFT13LCD_Write_COMEc>
    527c:	64 e6       	ldi	r22, 0x64	; 100
    527e:	ce 01       	movw	r24, r28
    5280:	0e 94 18 19 	call	0x3230	; 0x3230 <_ZN4UTFT14LCD_Write_DATAEc>
    5284:	63 e0       	ldi	r22, 0x03	; 3
    5286:	ce 01       	movw	r24, r28
    5288:	0e 94 18 19 	call	0x3230	; 0x3230 <_ZN4UTFT14LCD_Write_DATAEc>
    528c:	62 e1       	ldi	r22, 0x12	; 18
    528e:	ce 01       	movw	r24, r28
    5290:	0e 94 18 19 	call	0x3230	; 0x3230 <_ZN4UTFT14LCD_Write_DATAEc>
    5294:	61 e8       	ldi	r22, 0x81	; 129
    5296:	ce 01       	movw	r24, r28
    5298:	0e 94 18 19 	call	0x3230	; 0x3230 <_ZN4UTFT14LCD_Write_DATAEc>
    529c:	67 ef       	ldi	r22, 0xF7	; 247
    529e:	ce 01       	movw	r24, r28
    52a0:	0e 94 dc 18 	call	0x31b8	; 0x31b8 <_ZN4UTFT13LCD_Write_COMEc>
    52a4:	60 e2       	ldi	r22, 0x20	; 32
    52a6:	ce 01       	movw	r24, r28
    52a8:	0e 94 18 19 	call	0x3230	; 0x3230 <_ZN4UTFT14LCD_Write_DATAEc>
    52ac:	60 ec       	ldi	r22, 0xC0	; 192
    52ae:	ce 01       	movw	r24, r28
    52b0:	0e 94 dc 18 	call	0x31b8	; 0x31b8 <_ZN4UTFT13LCD_Write_COMEc>
    52b4:	63 e2       	ldi	r22, 0x23	; 35
    52b6:	ce 01       	movw	r24, r28
    52b8:	0e 94 18 19 	call	0x3230	; 0x3230 <_ZN4UTFT14LCD_Write_DATAEc>
    52bc:	61 ec       	ldi	r22, 0xC1	; 193
    52be:	ce 01       	movw	r24, r28
    52c0:	0e 94 dc 18 	call	0x31b8	; 0x31b8 <_ZN4UTFT13LCD_Write_COMEc>
    52c4:	60 e1       	ldi	r22, 0x10	; 16
    52c6:	ce 01       	movw	r24, r28
    52c8:	0e 94 18 19 	call	0x3230	; 0x3230 <_ZN4UTFT14LCD_Write_DATAEc>
    52cc:	65 ec       	ldi	r22, 0xC5	; 197
    52ce:	ce 01       	movw	r24, r28
    52d0:	0e 94 dc 18 	call	0x31b8	; 0x31b8 <_ZN4UTFT13LCD_Write_COMEc>
    52d4:	6e e3       	ldi	r22, 0x3E	; 62
    52d6:	ce 01       	movw	r24, r28
    52d8:	0e 94 18 19 	call	0x3230	; 0x3230 <_ZN4UTFT14LCD_Write_DATAEc>
    52dc:	68 e2       	ldi	r22, 0x28	; 40
    52de:	ce 01       	movw	r24, r28
    52e0:	0e 94 18 19 	call	0x3230	; 0x3230 <_ZN4UTFT14LCD_Write_DATAEc>
    52e4:	67 ec       	ldi	r22, 0xC7	; 199
    52e6:	ce 01       	movw	r24, r28
    52e8:	0e 94 dc 18 	call	0x31b8	; 0x31b8 <_ZN4UTFT13LCD_Write_COMEc>
    52ec:	66 e8       	ldi	r22, 0x86	; 134
    52ee:	ce 01       	movw	r24, r28
    52f0:	0e 94 18 19 	call	0x3230	; 0x3230 <_ZN4UTFT14LCD_Write_DATAEc>
    52f4:	66 e3       	ldi	r22, 0x36	; 54
    52f6:	ce 01       	movw	r24, r28
    52f8:	0e 94 dc 18 	call	0x31b8	; 0x31b8 <_ZN4UTFT13LCD_Write_COMEc>
    52fc:	68 e4       	ldi	r22, 0x48	; 72
    52fe:	ce 01       	movw	r24, r28
    5300:	0e 94 18 19 	call	0x3230	; 0x3230 <_ZN4UTFT14LCD_Write_DATAEc>
    5304:	6a e3       	ldi	r22, 0x3A	; 58
    5306:	ce 01       	movw	r24, r28
    5308:	0e 94 dc 18 	call	0x31b8	; 0x31b8 <_ZN4UTFT13LCD_Write_COMEc>
    530c:	65 e5       	ldi	r22, 0x55	; 85
    530e:	ce 01       	movw	r24, r28
    5310:	0e 94 18 19 	call	0x3230	; 0x3230 <_ZN4UTFT14LCD_Write_DATAEc>
    5314:	61 eb       	ldi	r22, 0xB1	; 177
    5316:	ce 01       	movw	r24, r28
    5318:	0e 94 dc 18 	call	0x31b8	; 0x31b8 <_ZN4UTFT13LCD_Write_COMEc>
    531c:	60 e0       	ldi	r22, 0x00	; 0
    531e:	ce 01       	movw	r24, r28
    5320:	0e 94 18 19 	call	0x3230	; 0x3230 <_ZN4UTFT14LCD_Write_DATAEc>
    5324:	68 e1       	ldi	r22, 0x18	; 24
    5326:	ce 01       	movw	r24, r28
    5328:	0e 94 18 19 	call	0x3230	; 0x3230 <_ZN4UTFT14LCD_Write_DATAEc>
    532c:	66 eb       	ldi	r22, 0xB6	; 182
    532e:	ce 01       	movw	r24, r28
    5330:	0e 94 dc 18 	call	0x31b8	; 0x31b8 <_ZN4UTFT13LCD_Write_COMEc>
    5334:	68 e0       	ldi	r22, 0x08	; 8
    5336:	ce 01       	movw	r24, r28
    5338:	0e 94 18 19 	call	0x3230	; 0x3230 <_ZN4UTFT14LCD_Write_DATAEc>
    533c:	62 e8       	ldi	r22, 0x82	; 130
    533e:	ce 01       	movw	r24, r28
    5340:	0e 94 18 19 	call	0x3230	; 0x3230 <_ZN4UTFT14LCD_Write_DATAEc>
    5344:	67 e2       	ldi	r22, 0x27	; 39
    5346:	ce 01       	movw	r24, r28
    5348:	0e 94 18 19 	call	0x3230	; 0x3230 <_ZN4UTFT14LCD_Write_DATAEc>
    534c:	61 e1       	ldi	r22, 0x11	; 17
    534e:	ce 01       	movw	r24, r28
    5350:	0e 94 dc 18 	call	0x31b8	; 0x31b8 <_ZN4UTFT13LCD_Write_COMEc>
    5354:	68 e7       	ldi	r22, 0x78	; 120
    5356:	70 e0       	ldi	r23, 0x00	; 0
    5358:	80 e0       	ldi	r24, 0x00	; 0
    535a:	90 e0       	ldi	r25, 0x00	; 0
    535c:	9d c2       	rjmp	.+1338   	; 0x5898 <_ZN4UTFT7InitLCDEh+0x2398>
    535e:	60 eb       	ldi	r22, 0xB0	; 176
    5360:	ce 01       	movw	r24, r28
    5362:	0e 94 dc 18 	call	0x31b8	; 0x31b8 <_ZN4UTFT13LCD_Write_COMEc>
    5366:	6e e1       	ldi	r22, 0x1E	; 30
    5368:	ce 01       	movw	r24, r28
    536a:	0e 94 18 19 	call	0x3230	; 0x3230 <_ZN4UTFT14LCD_Write_DATAEc>
    536e:	60 eb       	ldi	r22, 0xB0	; 176
    5370:	ce 01       	movw	r24, r28
    5372:	0e 94 dc 18 	call	0x31b8	; 0x31b8 <_ZN4UTFT13LCD_Write_COMEc>
    5376:	60 e0       	ldi	r22, 0x00	; 0
    5378:	ce 01       	movw	r24, r28
    537a:	0e 94 18 19 	call	0x3230	; 0x3230 <_ZN4UTFT14LCD_Write_DATAEc>
    537e:	63 eb       	ldi	r22, 0xB3	; 179
    5380:	ce 01       	movw	r24, r28
    5382:	0e 94 dc 18 	call	0x31b8	; 0x31b8 <_ZN4UTFT13LCD_Write_COMEc>
    5386:	62 e0       	ldi	r22, 0x02	; 2
    5388:	ce 01       	movw	r24, r28
    538a:	0e 94 18 19 	call	0x3230	; 0x3230 <_ZN4UTFT14LCD_Write_DATAEc>
    538e:	60 e0       	ldi	r22, 0x00	; 0
    5390:	ce 01       	movw	r24, r28
    5392:	0e 94 18 19 	call	0x3230	; 0x3230 <_ZN4UTFT14LCD_Write_DATAEc>
    5396:	60 e0       	ldi	r22, 0x00	; 0
    5398:	ce 01       	movw	r24, r28
    539a:	0e 94 18 19 	call	0x3230	; 0x3230 <_ZN4UTFT14LCD_Write_DATAEc>
    539e:	60 e1       	ldi	r22, 0x10	; 16
    53a0:	ce 01       	movw	r24, r28
    53a2:	0e 94 18 19 	call	0x3230	; 0x3230 <_ZN4UTFT14LCD_Write_DATAEc>
    53a6:	64 eb       	ldi	r22, 0xB4	; 180
    53a8:	ce 01       	movw	r24, r28
    53aa:	0e 94 dc 18 	call	0x31b8	; 0x31b8 <_ZN4UTFT13LCD_Write_COMEc>
    53ae:	60 e0       	ldi	r22, 0x00	; 0
    53b0:	ce 01       	movw	r24, r28
    53b2:	0e 94 18 19 	call	0x3230	; 0x3230 <_ZN4UTFT14LCD_Write_DATAEc>
    53b6:	60 ec       	ldi	r22, 0xC0	; 192
    53b8:	ce 01       	movw	r24, r28
    53ba:	0e 94 dc 18 	call	0x31b8	; 0x31b8 <_ZN4UTFT13LCD_Write_COMEc>
    53be:	63 e0       	ldi	r22, 0x03	; 3
    53c0:	ce 01       	movw	r24, r28
    53c2:	0e 94 18 19 	call	0x3230	; 0x3230 <_ZN4UTFT14LCD_Write_DATAEc>
    53c6:	6b e3       	ldi	r22, 0x3B	; 59
    53c8:	ce 01       	movw	r24, r28
    53ca:	0e 94 18 19 	call	0x3230	; 0x3230 <_ZN4UTFT14LCD_Write_DATAEc>
    53ce:	60 e0       	ldi	r22, 0x00	; 0
    53d0:	ce 01       	movw	r24, r28
    53d2:	0e 94 18 19 	call	0x3230	; 0x3230 <_ZN4UTFT14LCD_Write_DATAEc>
    53d6:	60 e0       	ldi	r22, 0x00	; 0
    53d8:	ce 01       	movw	r24, r28
    53da:	0e 94 18 19 	call	0x3230	; 0x3230 <_ZN4UTFT14LCD_Write_DATAEc>
    53de:	60 e0       	ldi	r22, 0x00	; 0
    53e0:	ce 01       	movw	r24, r28
    53e2:	0e 94 18 19 	call	0x3230	; 0x3230 <_ZN4UTFT14LCD_Write_DATAEc>
    53e6:	61 e0       	ldi	r22, 0x01	; 1
    53e8:	ce 01       	movw	r24, r28
    53ea:	0e 94 18 19 	call	0x3230	; 0x3230 <_ZN4UTFT14LCD_Write_DATAEc>
    53ee:	60 e0       	ldi	r22, 0x00	; 0
    53f0:	ce 01       	movw	r24, r28
    53f2:	0e 94 18 19 	call	0x3230	; 0x3230 <_ZN4UTFT14LCD_Write_DATAEc>
    53f6:	63 e4       	ldi	r22, 0x43	; 67
    53f8:	ce 01       	movw	r24, r28
    53fa:	0e 94 18 19 	call	0x3230	; 0x3230 <_ZN4UTFT14LCD_Write_DATAEc>
    53fe:	61 ec       	ldi	r22, 0xC1	; 193
    5400:	ce 01       	movw	r24, r28
    5402:	0e 94 dc 18 	call	0x31b8	; 0x31b8 <_ZN4UTFT13LCD_Write_COMEc>
    5406:	68 e0       	ldi	r22, 0x08	; 8
    5408:	ce 01       	movw	r24, r28
    540a:	0e 94 18 19 	call	0x3230	; 0x3230 <_ZN4UTFT14LCD_Write_DATAEc>
    540e:	65 e1       	ldi	r22, 0x15	; 21
    5410:	ce 01       	movw	r24, r28
    5412:	0e 94 18 19 	call	0x3230	; 0x3230 <_ZN4UTFT14LCD_Write_DATAEc>
    5416:	68 e0       	ldi	r22, 0x08	; 8
    5418:	ce 01       	movw	r24, r28
    541a:	0e 94 18 19 	call	0x3230	; 0x3230 <_ZN4UTFT14LCD_Write_DATAEc>
    541e:	68 e0       	ldi	r22, 0x08	; 8
    5420:	ce 01       	movw	r24, r28
    5422:	0e 94 18 19 	call	0x3230	; 0x3230 <_ZN4UTFT14LCD_Write_DATAEc>
    5426:	64 ec       	ldi	r22, 0xC4	; 196
    5428:	ce 01       	movw	r24, r28
    542a:	0e 94 dc 18 	call	0x31b8	; 0x31b8 <_ZN4UTFT13LCD_Write_COMEc>
    542e:	65 e1       	ldi	r22, 0x15	; 21
    5430:	ce 01       	movw	r24, r28
    5432:	0e 94 18 19 	call	0x3230	; 0x3230 <_ZN4UTFT14LCD_Write_DATAEc>
    5436:	63 e0       	ldi	r22, 0x03	; 3
    5438:	ce 01       	movw	r24, r28
    543a:	0e 94 18 19 	call	0x3230	; 0x3230 <_ZN4UTFT14LCD_Write_DATAEc>
    543e:	63 e0       	ldi	r22, 0x03	; 3
    5440:	ce 01       	movw	r24, r28
    5442:	0e 94 18 19 	call	0x3230	; 0x3230 <_ZN4UTFT14LCD_Write_DATAEc>
    5446:	61 e0       	ldi	r22, 0x01	; 1
    5448:	ce 01       	movw	r24, r28
    544a:	0e 94 18 19 	call	0x3230	; 0x3230 <_ZN4UTFT14LCD_Write_DATAEc>
    544e:	66 ec       	ldi	r22, 0xC6	; 198
    5450:	ce 01       	movw	r24, r28
    5452:	0e 94 dc 18 	call	0x31b8	; 0x31b8 <_ZN4UTFT13LCD_Write_COMEc>
    5456:	62 e0       	ldi	r22, 0x02	; 2
    5458:	ce 01       	movw	r24, r28
    545a:	0e 94 18 19 	call	0x3230	; 0x3230 <_ZN4UTFT14LCD_Write_DATAEc>
    545e:	68 ec       	ldi	r22, 0xC8	; 200
    5460:	ce 01       	movw	r24, r28
    5462:	0e 94 dc 18 	call	0x31b8	; 0x31b8 <_ZN4UTFT13LCD_Write_COMEc>
    5466:	6c e0       	ldi	r22, 0x0C	; 12
    5468:	ce 01       	movw	r24, r28
    546a:	0e 94 18 19 	call	0x3230	; 0x3230 <_ZN4UTFT14LCD_Write_DATAEc>
    546e:	65 e0       	ldi	r22, 0x05	; 5
    5470:	ce 01       	movw	r24, r28
    5472:	0e 94 18 19 	call	0x3230	; 0x3230 <_ZN4UTFT14LCD_Write_DATAEc>
    5476:	6a e0       	ldi	r22, 0x0A	; 10
    5478:	ce 01       	movw	r24, r28
    547a:	0e 94 18 19 	call	0x3230	; 0x3230 <_ZN4UTFT14LCD_Write_DATAEc>
    547e:	6b e6       	ldi	r22, 0x6B	; 107
    5480:	ce 01       	movw	r24, r28
    5482:	0e 94 18 19 	call	0x3230	; 0x3230 <_ZN4UTFT14LCD_Write_DATAEc>
    5486:	64 e0       	ldi	r22, 0x04	; 4
    5488:	ce 01       	movw	r24, r28
    548a:	0e 94 18 19 	call	0x3230	; 0x3230 <_ZN4UTFT14LCD_Write_DATAEc>
    548e:	66 e0       	ldi	r22, 0x06	; 6
    5490:	ce 01       	movw	r24, r28
    5492:	0e 94 18 19 	call	0x3230	; 0x3230 <_ZN4UTFT14LCD_Write_DATAEc>
    5496:	65 e1       	ldi	r22, 0x15	; 21
    5498:	ce 01       	movw	r24, r28
    549a:	0e 94 18 19 	call	0x3230	; 0x3230 <_ZN4UTFT14LCD_Write_DATAEc>
    549e:	60 e1       	ldi	r22, 0x10	; 16
    54a0:	ce 01       	movw	r24, r28
    54a2:	0e 94 18 19 	call	0x3230	; 0x3230 <_ZN4UTFT14LCD_Write_DATAEc>
    54a6:	60 e0       	ldi	r22, 0x00	; 0
    54a8:	ce 01       	movw	r24, r28
    54aa:	0e 94 18 19 	call	0x3230	; 0x3230 <_ZN4UTFT14LCD_Write_DATAEc>
    54ae:	60 e6       	ldi	r22, 0x60	; 96
    54b0:	ce 01       	movw	r24, r28
    54b2:	0e 94 18 19 	call	0x3230	; 0x3230 <_ZN4UTFT14LCD_Write_DATAEc>
    54b6:	66 e3       	ldi	r22, 0x36	; 54
    54b8:	ce 01       	movw	r24, r28
    54ba:	0e 94 dc 18 	call	0x31b8	; 0x31b8 <_ZN4UTFT13LCD_Write_COMEc>
    54be:	6a e0       	ldi	r22, 0x0A	; 10
    54c0:	ce 01       	movw	r24, r28
    54c2:	0e 94 18 19 	call	0x3230	; 0x3230 <_ZN4UTFT14LCD_Write_DATAEc>
    54c6:	6c e0       	ldi	r22, 0x0C	; 12
    54c8:	ce 01       	movw	r24, r28
    54ca:	0e 94 dc 18 	call	0x31b8	; 0x31b8 <_ZN4UTFT13LCD_Write_COMEc>
    54ce:	65 e5       	ldi	r22, 0x55	; 85
    54d0:	ce 01       	movw	r24, r28
    54d2:	0e 94 18 19 	call	0x3230	; 0x3230 <_ZN4UTFT14LCD_Write_DATAEc>
    54d6:	6a e3       	ldi	r22, 0x3A	; 58
    54d8:	ce 01       	movw	r24, r28
    54da:	0e 94 dc 18 	call	0x31b8	; 0x31b8 <_ZN4UTFT13LCD_Write_COMEc>
    54de:	65 e5       	ldi	r22, 0x55	; 85
    54e0:	ce 01       	movw	r24, r28
    54e2:	0e 94 18 19 	call	0x3230	; 0x3230 <_ZN4UTFT14LCD_Write_DATAEc>
    54e6:	68 e3       	ldi	r22, 0x38	; 56
    54e8:	ce 01       	movw	r24, r28
    54ea:	0e 94 dc 18 	call	0x31b8	; 0x31b8 <_ZN4UTFT13LCD_Write_COMEc>
    54ee:	60 ed       	ldi	r22, 0xD0	; 208
    54f0:	ce 01       	movw	r24, r28
    54f2:	0e 94 dc 18 	call	0x31b8	; 0x31b8 <_ZN4UTFT13LCD_Write_COMEc>
    54f6:	67 e0       	ldi	r22, 0x07	; 7
    54f8:	ce 01       	movw	r24, r28
    54fa:	0e 94 18 19 	call	0x3230	; 0x3230 <_ZN4UTFT14LCD_Write_DATAEc>
    54fe:	67 e0       	ldi	r22, 0x07	; 7
    5500:	ce 01       	movw	r24, r28
    5502:	0e 94 18 19 	call	0x3230	; 0x3230 <_ZN4UTFT14LCD_Write_DATAEc>
    5506:	64 e1       	ldi	r22, 0x14	; 20
    5508:	ce 01       	movw	r24, r28
    550a:	0e 94 18 19 	call	0x3230	; 0x3230 <_ZN4UTFT14LCD_Write_DATAEc>
    550e:	62 ea       	ldi	r22, 0xA2	; 162
    5510:	ce 01       	movw	r24, r28
    5512:	0e 94 18 19 	call	0x3230	; 0x3230 <_ZN4UTFT14LCD_Write_DATAEc>
    5516:	61 ed       	ldi	r22, 0xD1	; 209
    5518:	ce 01       	movw	r24, r28
    551a:	0e 94 dc 18 	call	0x31b8	; 0x31b8 <_ZN4UTFT13LCD_Write_COMEc>
    551e:	63 e0       	ldi	r22, 0x03	; 3
    5520:	ce 01       	movw	r24, r28
    5522:	0e 94 18 19 	call	0x3230	; 0x3230 <_ZN4UTFT14LCD_Write_DATAEc>
    5526:	6a e5       	ldi	r22, 0x5A	; 90
    5528:	ce 01       	movw	r24, r28
    552a:	0e 94 18 19 	call	0x3230	; 0x3230 <_ZN4UTFT14LCD_Write_DATAEc>
    552e:	60 e1       	ldi	r22, 0x10	; 16
    5530:	ce 01       	movw	r24, r28
    5532:	0e 94 18 19 	call	0x3230	; 0x3230 <_ZN4UTFT14LCD_Write_DATAEc>
    5536:	62 ed       	ldi	r22, 0xD2	; 210
    5538:	ce 01       	movw	r24, r28
    553a:	0e 94 dc 18 	call	0x31b8	; 0x31b8 <_ZN4UTFT13LCD_Write_COMEc>
    553e:	63 e0       	ldi	r22, 0x03	; 3
    5540:	ce 01       	movw	r24, r28
    5542:	0e 94 18 19 	call	0x3230	; 0x3230 <_ZN4UTFT14LCD_Write_DATAEc>
    5546:	64 e0       	ldi	r22, 0x04	; 4
    5548:	ce 01       	movw	r24, r28
    554a:	0e 94 18 19 	call	0x3230	; 0x3230 <_ZN4UTFT14LCD_Write_DATAEc>
    554e:	64 e0       	ldi	r22, 0x04	; 4
    5550:	ce 01       	movw	r24, r28
    5552:	0e 94 18 19 	call	0x3230	; 0x3230 <_ZN4UTFT14LCD_Write_DATAEc>
    5556:	61 e1       	ldi	r22, 0x11	; 17
    5558:	ce 01       	movw	r24, r28
    555a:	0e 94 dc 18 	call	0x31b8	; 0x31b8 <_ZN4UTFT13LCD_Write_COMEc>
    555e:	66 e9       	ldi	r22, 0x96	; 150
    5560:	70 e0       	ldi	r23, 0x00	; 0
    5562:	80 e0       	ldi	r24, 0x00	; 0
    5564:	90 e0       	ldi	r25, 0x00	; 0
    5566:	0e 94 41 36 	call	0x6c82	; 0x6c82 <delay>
    556a:	6a e2       	ldi	r22, 0x2A	; 42
    556c:	ce 01       	movw	r24, r28
    556e:	0e 94 dc 18 	call	0x31b8	; 0x31b8 <_ZN4UTFT13LCD_Write_COMEc>
    5572:	60 e0       	ldi	r22, 0x00	; 0
    5574:	ce 01       	movw	r24, r28
    5576:	0e 94 18 19 	call	0x3230	; 0x3230 <_ZN4UTFT14LCD_Write_DATAEc>
    557a:	60 e0       	ldi	r22, 0x00	; 0
    557c:	ce 01       	movw	r24, r28
    557e:	0e 94 18 19 	call	0x3230	; 0x3230 <_ZN4UTFT14LCD_Write_DATAEc>
    5582:	61 e0       	ldi	r22, 0x01	; 1
    5584:	ce 01       	movw	r24, r28
    5586:	0e 94 18 19 	call	0x3230	; 0x3230 <_ZN4UTFT14LCD_Write_DATAEc>
    558a:	6f ed       	ldi	r22, 0xDF	; 223
    558c:	ce 01       	movw	r24, r28
    558e:	0e 94 18 19 	call	0x3230	; 0x3230 <_ZN4UTFT14LCD_Write_DATAEc>
    5592:	6b e2       	ldi	r22, 0x2B	; 43
    5594:	ce 01       	movw	r24, r28
    5596:	0e 94 dc 18 	call	0x31b8	; 0x31b8 <_ZN4UTFT13LCD_Write_COMEc>
    559a:	60 e0       	ldi	r22, 0x00	; 0
    559c:	ce 01       	movw	r24, r28
    559e:	0e 94 18 19 	call	0x3230	; 0x3230 <_ZN4UTFT14LCD_Write_DATAEc>
    55a2:	60 e0       	ldi	r22, 0x00	; 0
    55a4:	ce 01       	movw	r24, r28
    55a6:	0e 94 18 19 	call	0x3230	; 0x3230 <_ZN4UTFT14LCD_Write_DATAEc>
    55aa:	61 e0       	ldi	r22, 0x01	; 1
    55ac:	ce 01       	movw	r24, r28
    55ae:	0e 94 18 19 	call	0x3230	; 0x3230 <_ZN4UTFT14LCD_Write_DATAEc>
    55b2:	6f e3       	ldi	r22, 0x3F	; 63
    55b4:	ce 01       	movw	r24, r28
    55b6:	0e 94 18 19 	call	0x3230	; 0x3230 <_ZN4UTFT14LCD_Write_DATAEc>
    55ba:	64 e6       	ldi	r22, 0x64	; 100
    55bc:	70 e0       	ldi	r23, 0x00	; 0
    55be:	80 e0       	ldi	r24, 0x00	; 0
    55c0:	90 e0       	ldi	r25, 0x00	; 0
    55c2:	0e 94 41 36 	call	0x6c82	; 0x6c82 <delay>
    55c6:	69 e2       	ldi	r22, 0x29	; 41
    55c8:	ce 01       	movw	r24, r28
    55ca:	0e 94 dc 18 	call	0x31b8	; 0x31b8 <_ZN4UTFT13LCD_Write_COMEc>
    55ce:	6e e1       	ldi	r22, 0x1E	; 30
    55d0:	70 e0       	ldi	r23, 0x00	; 0
    55d2:	80 e0       	ldi	r24, 0x00	; 0
    55d4:	90 e0       	ldi	r25, 0x00	; 0
    55d6:	0e 94 41 36 	call	0x6c82	; 0x6c82 <delay>
    55da:	6c e2       	ldi	r22, 0x2C	; 44
    55dc:	ce 01       	movw	r24, r28
    55de:	0e 94 dc 18 	call	0x31b8	; 0x31b8 <_ZN4UTFT13LCD_Write_COMEc>
    55e2:	6e e1       	ldi	r22, 0x1E	; 30
    55e4:	70 e0       	ldi	r23, 0x00	; 0
    55e6:	80 e0       	ldi	r24, 0x00	; 0
    55e8:	90 e0       	ldi	r25, 0x00	; 0
    55ea:	5b c2       	rjmp	.+1206   	; 0x5aa2 <_ZN4UTFT7InitLCDEh+0x25a2>
    55ec:	61 e1       	ldi	r22, 0x11	; 17
    55ee:	ce 01       	movw	r24, r28
    55f0:	0e 94 dc 18 	call	0x31b8	; 0x31b8 <_ZN4UTFT13LCD_Write_COMEc>
    55f4:	62 e3       	ldi	r22, 0x32	; 50
    55f6:	70 e0       	ldi	r23, 0x00	; 0
    55f8:	80 e0       	ldi	r24, 0x00	; 0
    55fa:	90 e0       	ldi	r25, 0x00	; 0
    55fc:	0e 94 41 36 	call	0x6c82	; 0x6c82 <delay>
    5600:	62 ef       	ldi	r22, 0xF2	; 242
    5602:	ce 01       	movw	r24, r28
    5604:	0e 94 dc 18 	call	0x31b8	; 0x31b8 <_ZN4UTFT13LCD_Write_COMEc>
    5608:	6c e1       	ldi	r22, 0x1C	; 28
    560a:	ce 01       	movw	r24, r28
    560c:	0e 94 18 19 	call	0x3230	; 0x3230 <_ZN4UTFT14LCD_Write_DATAEc>
    5610:	63 ea       	ldi	r22, 0xA3	; 163
    5612:	ce 01       	movw	r24, r28
    5614:	0e 94 18 19 	call	0x3230	; 0x3230 <_ZN4UTFT14LCD_Write_DATAEc>
    5618:	62 e3       	ldi	r22, 0x32	; 50
    561a:	ce 01       	movw	r24, r28
    561c:	0e 94 18 19 	call	0x3230	; 0x3230 <_ZN4UTFT14LCD_Write_DATAEc>
    5620:	62 e0       	ldi	r22, 0x02	; 2
    5622:	ce 01       	movw	r24, r28
    5624:	0e 94 18 19 	call	0x3230	; 0x3230 <_ZN4UTFT14LCD_Write_DATAEc>
    5628:	62 eb       	ldi	r22, 0xB2	; 178
    562a:	ce 01       	movw	r24, r28
    562c:	0e 94 18 19 	call	0x3230	; 0x3230 <_ZN4UTFT14LCD_Write_DATAEc>
    5630:	62 e1       	ldi	r22, 0x12	; 18
    5632:	ce 01       	movw	r24, r28
    5634:	0e 94 18 19 	call	0x3230	; 0x3230 <_ZN4UTFT14LCD_Write_DATAEc>
    5638:	6f ef       	ldi	r22, 0xFF	; 255
    563a:	ce 01       	movw	r24, r28
    563c:	0e 94 18 19 	call	0x3230	; 0x3230 <_ZN4UTFT14LCD_Write_DATAEc>
    5640:	62 e1       	ldi	r22, 0x12	; 18
    5642:	ce 01       	movw	r24, r28
    5644:	0e 94 18 19 	call	0x3230	; 0x3230 <_ZN4UTFT14LCD_Write_DATAEc>
    5648:	60 e0       	ldi	r22, 0x00	; 0
    564a:	ce 01       	movw	r24, r28
    564c:	0e 94 18 19 	call	0x3230	; 0x3230 <_ZN4UTFT14LCD_Write_DATAEc>
    5650:	61 ef       	ldi	r22, 0xF1	; 241
    5652:	ce 01       	movw	r24, r28
    5654:	0e 94 dc 18 	call	0x31b8	; 0x31b8 <_ZN4UTFT13LCD_Write_COMEc>
    5658:	66 e3       	ldi	r22, 0x36	; 54
    565a:	ce 01       	movw	r24, r28
    565c:	0e 94 18 19 	call	0x3230	; 0x3230 <_ZN4UTFT14LCD_Write_DATAEc>
    5660:	64 ea       	ldi	r22, 0xA4	; 164
    5662:	ce 01       	movw	r24, r28
    5664:	0e 94 18 19 	call	0x3230	; 0x3230 <_ZN4UTFT14LCD_Write_DATAEc>
    5668:	68 ef       	ldi	r22, 0xF8	; 248
    566a:	ce 01       	movw	r24, r28
    566c:	0e 94 dc 18 	call	0x31b8	; 0x31b8 <_ZN4UTFT13LCD_Write_COMEc>
    5670:	61 e2       	ldi	r22, 0x21	; 33
    5672:	ce 01       	movw	r24, r28
    5674:	0e 94 18 19 	call	0x3230	; 0x3230 <_ZN4UTFT14LCD_Write_DATAEc>
    5678:	64 e0       	ldi	r22, 0x04	; 4
    567a:	ce 01       	movw	r24, r28
    567c:	0e 94 18 19 	call	0x3230	; 0x3230 <_ZN4UTFT14LCD_Write_DATAEc>
    5680:	69 ef       	ldi	r22, 0xF9	; 249
    5682:	ce 01       	movw	r24, r28
    5684:	0e 94 dc 18 	call	0x31b8	; 0x31b8 <_ZN4UTFT13LCD_Write_COMEc>
    5688:	60 e0       	ldi	r22, 0x00	; 0
    568a:	ce 01       	movw	r24, r28
    568c:	0e 94 18 19 	call	0x3230	; 0x3230 <_ZN4UTFT14LCD_Write_DATAEc>
    5690:	68 e0       	ldi	r22, 0x08	; 8
    5692:	ce 01       	movw	r24, r28
    5694:	0e 94 18 19 	call	0x3230	; 0x3230 <_ZN4UTFT14LCD_Write_DATAEc>
    5698:	60 ec       	ldi	r22, 0xC0	; 192
    569a:	ce 01       	movw	r24, r28
    569c:	0e 94 dc 18 	call	0x31b8	; 0x31b8 <_ZN4UTFT13LCD_Write_COMEc>
    56a0:	6d e0       	ldi	r22, 0x0D	; 13
    56a2:	ce 01       	movw	r24, r28
    56a4:	0e 94 18 19 	call	0x3230	; 0x3230 <_ZN4UTFT14LCD_Write_DATAEc>
    56a8:	6d e0       	ldi	r22, 0x0D	; 13
    56aa:	ce 01       	movw	r24, r28
    56ac:	0e 94 18 19 	call	0x3230	; 0x3230 <_ZN4UTFT14LCD_Write_DATAEc>
    56b0:	61 ec       	ldi	r22, 0xC1	; 193
    56b2:	ce 01       	movw	r24, r28
    56b4:	0e 94 dc 18 	call	0x31b8	; 0x31b8 <_ZN4UTFT13LCD_Write_COMEc>
    56b8:	63 e4       	ldi	r22, 0x43	; 67
    56ba:	ce 01       	movw	r24, r28
    56bc:	0e 94 18 19 	call	0x3230	; 0x3230 <_ZN4UTFT14LCD_Write_DATAEc>
    56c0:	60 e0       	ldi	r22, 0x00	; 0
    56c2:	ce 01       	movw	r24, r28
    56c4:	0e 94 18 19 	call	0x3230	; 0x3230 <_ZN4UTFT14LCD_Write_DATAEc>
    56c8:	62 ec       	ldi	r22, 0xC2	; 194
    56ca:	ce 01       	movw	r24, r28
    56cc:	0e 94 dc 18 	call	0x31b8	; 0x31b8 <_ZN4UTFT13LCD_Write_COMEc>
    56d0:	60 e0       	ldi	r22, 0x00	; 0
    56d2:	ce 01       	movw	r24, r28
    56d4:	0e 94 18 19 	call	0x3230	; 0x3230 <_ZN4UTFT14LCD_Write_DATAEc>
    56d8:	65 ec       	ldi	r22, 0xC5	; 197
    56da:	ce 01       	movw	r24, r28
    56dc:	0e 94 dc 18 	call	0x31b8	; 0x31b8 <_ZN4UTFT13LCD_Write_COMEc>
    56e0:	60 e0       	ldi	r22, 0x00	; 0
    56e2:	ce 01       	movw	r24, r28
    56e4:	0e 94 18 19 	call	0x3230	; 0x3230 <_ZN4UTFT14LCD_Write_DATAEc>
    56e8:	68 e4       	ldi	r22, 0x48	; 72
    56ea:	ce 01       	movw	r24, r28
    56ec:	0e 94 18 19 	call	0x3230	; 0x3230 <_ZN4UTFT14LCD_Write_DATAEc>
    56f0:	66 eb       	ldi	r22, 0xB6	; 182
    56f2:	ce 01       	movw	r24, r28
    56f4:	0e 94 dc 18 	call	0x31b8	; 0x31b8 <_ZN4UTFT13LCD_Write_COMEc>
    56f8:	60 e0       	ldi	r22, 0x00	; 0
    56fa:	ce 01       	movw	r24, r28
    56fc:	0e 94 18 19 	call	0x3230	; 0x3230 <_ZN4UTFT14LCD_Write_DATAEc>
    5700:	62 e2       	ldi	r22, 0x22	; 34
    5702:	ce 01       	movw	r24, r28
    5704:	0e 94 18 19 	call	0x3230	; 0x3230 <_ZN4UTFT14LCD_Write_DATAEc>
    5708:	6b e3       	ldi	r22, 0x3B	; 59
    570a:	ce 01       	movw	r24, r28
    570c:	0e 94 18 19 	call	0x3230	; 0x3230 <_ZN4UTFT14LCD_Write_DATAEc>
    5710:	60 ee       	ldi	r22, 0xE0	; 224
    5712:	ce 01       	movw	r24, r28
    5714:	0e 94 dc 18 	call	0x31b8	; 0x31b8 <_ZN4UTFT13LCD_Write_COMEc>
    5718:	6f e0       	ldi	r22, 0x0F	; 15
    571a:	ce 01       	movw	r24, r28
    571c:	0e 94 18 19 	call	0x3230	; 0x3230 <_ZN4UTFT14LCD_Write_DATAEc>
    5720:	64 e2       	ldi	r22, 0x24	; 36
    5722:	ce 01       	movw	r24, r28
    5724:	0e 94 18 19 	call	0x3230	; 0x3230 <_ZN4UTFT14LCD_Write_DATAEc>
    5728:	6c e1       	ldi	r22, 0x1C	; 28
    572a:	ce 01       	movw	r24, r28
    572c:	0e 94 18 19 	call	0x3230	; 0x3230 <_ZN4UTFT14LCD_Write_DATAEc>
    5730:	6a e0       	ldi	r22, 0x0A	; 10
    5732:	ce 01       	movw	r24, r28
    5734:	0e 94 18 19 	call	0x3230	; 0x3230 <_ZN4UTFT14LCD_Write_DATAEc>
    5738:	6f e0       	ldi	r22, 0x0F	; 15
    573a:	ce 01       	movw	r24, r28
    573c:	0e 94 18 19 	call	0x3230	; 0x3230 <_ZN4UTFT14LCD_Write_DATAEc>
    5740:	68 e0       	ldi	r22, 0x08	; 8
    5742:	ce 01       	movw	r24, r28
    5744:	0e 94 18 19 	call	0x3230	; 0x3230 <_ZN4UTFT14LCD_Write_DATAEc>
    5748:	63 e4       	ldi	r22, 0x43	; 67
    574a:	ce 01       	movw	r24, r28
    574c:	0e 94 18 19 	call	0x3230	; 0x3230 <_ZN4UTFT14LCD_Write_DATAEc>
    5750:	68 e8       	ldi	r22, 0x88	; 136
    5752:	ce 01       	movw	r24, r28
    5754:	0e 94 18 19 	call	0x3230	; 0x3230 <_ZN4UTFT14LCD_Write_DATAEc>
    5758:	62 e3       	ldi	r22, 0x32	; 50
    575a:	ce 01       	movw	r24, r28
    575c:	0e 94 18 19 	call	0x3230	; 0x3230 <_ZN4UTFT14LCD_Write_DATAEc>
    5760:	6f e0       	ldi	r22, 0x0F	; 15
    5762:	ce 01       	movw	r24, r28
    5764:	0e 94 18 19 	call	0x3230	; 0x3230 <_ZN4UTFT14LCD_Write_DATAEc>
    5768:	60 e1       	ldi	r22, 0x10	; 16
    576a:	ce 01       	movw	r24, r28
    576c:	0e 94 18 19 	call	0x3230	; 0x3230 <_ZN4UTFT14LCD_Write_DATAEc>
    5770:	66 e0       	ldi	r22, 0x06	; 6
    5772:	ce 01       	movw	r24, r28
    5774:	0e 94 18 19 	call	0x3230	; 0x3230 <_ZN4UTFT14LCD_Write_DATAEc>
    5778:	6f e0       	ldi	r22, 0x0F	; 15
    577a:	ce 01       	movw	r24, r28
    577c:	0e 94 18 19 	call	0x3230	; 0x3230 <_ZN4UTFT14LCD_Write_DATAEc>
    5780:	67 e0       	ldi	r22, 0x07	; 7
    5782:	ce 01       	movw	r24, r28
    5784:	0e 94 18 19 	call	0x3230	; 0x3230 <_ZN4UTFT14LCD_Write_DATAEc>
    5788:	60 e0       	ldi	r22, 0x00	; 0
    578a:	ce 01       	movw	r24, r28
    578c:	0e 94 18 19 	call	0x3230	; 0x3230 <_ZN4UTFT14LCD_Write_DATAEc>
    5790:	61 ee       	ldi	r22, 0xE1	; 225
    5792:	ce 01       	movw	r24, r28
    5794:	0e 94 dc 18 	call	0x31b8	; 0x31b8 <_ZN4UTFT13LCD_Write_COMEc>
    5798:	6f e0       	ldi	r22, 0x0F	; 15
    579a:	ce 01       	movw	r24, r28
    579c:	0e 94 18 19 	call	0x3230	; 0x3230 <_ZN4UTFT14LCD_Write_DATAEc>
    57a0:	68 e3       	ldi	r22, 0x38	; 56
    57a2:	ce 01       	movw	r24, r28
    57a4:	0e 94 18 19 	call	0x3230	; 0x3230 <_ZN4UTFT14LCD_Write_DATAEc>
    57a8:	60 e3       	ldi	r22, 0x30	; 48
    57aa:	ce 01       	movw	r24, r28
    57ac:	0e 94 18 19 	call	0x3230	; 0x3230 <_ZN4UTFT14LCD_Write_DATAEc>
    57b0:	69 e0       	ldi	r22, 0x09	; 9
    57b2:	ce 01       	movw	r24, r28
    57b4:	0e 94 18 19 	call	0x3230	; 0x3230 <_ZN4UTFT14LCD_Write_DATAEc>
    57b8:	6f e0       	ldi	r22, 0x0F	; 15
    57ba:	ce 01       	movw	r24, r28
    57bc:	0e 94 18 19 	call	0x3230	; 0x3230 <_ZN4UTFT14LCD_Write_DATAEc>
    57c0:	6f e0       	ldi	r22, 0x0F	; 15
    57c2:	ce 01       	movw	r24, r28
    57c4:	0e 94 18 19 	call	0x3230	; 0x3230 <_ZN4UTFT14LCD_Write_DATAEc>
    57c8:	6e e4       	ldi	r22, 0x4E	; 78
    57ca:	ce 01       	movw	r24, r28
    57cc:	0e 94 18 19 	call	0x3230	; 0x3230 <_ZN4UTFT14LCD_Write_DATAEc>
    57d0:	67 e7       	ldi	r22, 0x77	; 119
    57d2:	ce 01       	movw	r24, r28
    57d4:	0e 94 18 19 	call	0x3230	; 0x3230 <_ZN4UTFT14LCD_Write_DATAEc>
    57d8:	6c e3       	ldi	r22, 0x3C	; 60
    57da:	ce 01       	movw	r24, r28
    57dc:	0e 94 18 19 	call	0x3230	; 0x3230 <_ZN4UTFT14LCD_Write_DATAEc>
    57e0:	67 e0       	ldi	r22, 0x07	; 7
    57e2:	ce 01       	movw	r24, r28
    57e4:	0e 94 18 19 	call	0x3230	; 0x3230 <_ZN4UTFT14LCD_Write_DATAEc>
    57e8:	60 e1       	ldi	r22, 0x10	; 16
    57ea:	ce 01       	movw	r24, r28
    57ec:	0e 94 18 19 	call	0x3230	; 0x3230 <_ZN4UTFT14LCD_Write_DATAEc>
    57f0:	65 e0       	ldi	r22, 0x05	; 5
    57f2:	ce 01       	movw	r24, r28
    57f4:	0e 94 18 19 	call	0x3230	; 0x3230 <_ZN4UTFT14LCD_Write_DATAEc>
    57f8:	63 e2       	ldi	r22, 0x23	; 35
    57fa:	ce 01       	movw	r24, r28
    57fc:	0e 94 18 19 	call	0x3230	; 0x3230 <_ZN4UTFT14LCD_Write_DATAEc>
    5800:	6b e1       	ldi	r22, 0x1B	; 27
    5802:	ce 01       	movw	r24, r28
    5804:	0e 94 18 19 	call	0x3230	; 0x3230 <_ZN4UTFT14LCD_Write_DATAEc>
    5808:	60 e0       	ldi	r22, 0x00	; 0
    580a:	ce 01       	movw	r24, r28
    580c:	0e 94 18 19 	call	0x3230	; 0x3230 <_ZN4UTFT14LCD_Write_DATAEc>
    5810:	60 e2       	ldi	r22, 0x20	; 32
    5812:	ce 01       	movw	r24, r28
    5814:	0e 94 dc 18 	call	0x31b8	; 0x31b8 <_ZN4UTFT13LCD_Write_COMEc>
    5818:	60 e0       	ldi	r22, 0x00	; 0
    581a:	ce 01       	movw	r24, r28
    581c:	0e 94 18 19 	call	0x3230	; 0x3230 <_ZN4UTFT14LCD_Write_DATAEc>
    5820:	66 e3       	ldi	r22, 0x36	; 54
    5822:	ce 01       	movw	r24, r28
    5824:	0e 94 dc 18 	call	0x31b8	; 0x31b8 <_ZN4UTFT13LCD_Write_COMEc>
    5828:	6a e0       	ldi	r22, 0x0A	; 10
    582a:	ce 01       	movw	r24, r28
    582c:	0e 94 18 19 	call	0x3230	; 0x3230 <_ZN4UTFT14LCD_Write_DATAEc>
    5830:	6a e3       	ldi	r22, 0x3A	; 58
    5832:	ce 01       	movw	r24, r28
    5834:	0e 94 dc 18 	call	0x31b8	; 0x31b8 <_ZN4UTFT13LCD_Write_COMEc>
    5838:	65 e5       	ldi	r22, 0x55	; 85
    583a:	ce 01       	movw	r24, r28
    583c:	0e 94 18 19 	call	0x3230	; 0x3230 <_ZN4UTFT14LCD_Write_DATAEc>
    5840:	6a e2       	ldi	r22, 0x2A	; 42
    5842:	ce 01       	movw	r24, r28
    5844:	0e 94 dc 18 	call	0x31b8	; 0x31b8 <_ZN4UTFT13LCD_Write_COMEc>
    5848:	60 e0       	ldi	r22, 0x00	; 0
    584a:	ce 01       	movw	r24, r28
    584c:	0e 94 18 19 	call	0x3230	; 0x3230 <_ZN4UTFT14LCD_Write_DATAEc>
    5850:	60 e0       	ldi	r22, 0x00	; 0
    5852:	ce 01       	movw	r24, r28
    5854:	0e 94 18 19 	call	0x3230	; 0x3230 <_ZN4UTFT14LCD_Write_DATAEc>
    5858:	61 e0       	ldi	r22, 0x01	; 1
    585a:	ce 01       	movw	r24, r28
    585c:	0e 94 18 19 	call	0x3230	; 0x3230 <_ZN4UTFT14LCD_Write_DATAEc>
    5860:	6f ed       	ldi	r22, 0xDF	; 223
    5862:	ce 01       	movw	r24, r28
    5864:	0e 94 18 19 	call	0x3230	; 0x3230 <_ZN4UTFT14LCD_Write_DATAEc>
    5868:	6b e2       	ldi	r22, 0x2B	; 43
    586a:	ce 01       	movw	r24, r28
    586c:	0e 94 dc 18 	call	0x31b8	; 0x31b8 <_ZN4UTFT13LCD_Write_COMEc>
    5870:	60 e0       	ldi	r22, 0x00	; 0
    5872:	ce 01       	movw	r24, r28
    5874:	0e 94 18 19 	call	0x3230	; 0x3230 <_ZN4UTFT14LCD_Write_DATAEc>
    5878:	60 e0       	ldi	r22, 0x00	; 0
    587a:	ce 01       	movw	r24, r28
    587c:	0e 94 18 19 	call	0x3230	; 0x3230 <_ZN4UTFT14LCD_Write_DATAEc>
    5880:	61 e0       	ldi	r22, 0x01	; 1
    5882:	ce 01       	movw	r24, r28
    5884:	0e 94 18 19 	call	0x3230	; 0x3230 <_ZN4UTFT14LCD_Write_DATAEc>
    5888:	6f e3       	ldi	r22, 0x3F	; 63
    588a:	ce 01       	movw	r24, r28
    588c:	0e 94 18 19 	call	0x3230	; 0x3230 <_ZN4UTFT14LCD_Write_DATAEc>
    5890:	62 e3       	ldi	r22, 0x32	; 50
    5892:	70 e0       	ldi	r23, 0x00	; 0
    5894:	80 e0       	ldi	r24, 0x00	; 0
    5896:	90 e0       	ldi	r25, 0x00	; 0
    5898:	0e 94 41 36 	call	0x6c82	; 0x6c82 <delay>
    589c:	69 e2       	ldi	r22, 0x29	; 41
    589e:	ce 01       	movw	r24, r28
    58a0:	0e 94 dc 18 	call	0x31b8	; 0x31b8 <_ZN4UTFT13LCD_Write_COMEc>
    58a4:	6c e2       	ldi	r22, 0x2C	; 44
    58a6:	0c 94 7a 1e 	jmp	0x3cf4	; 0x3cf4 <_ZN4UTFT7InitLCDEh+0x7f4>
    58aa:	8c 81       	ldd	r24, Y+4	; 0x04
    58ac:	81 30       	cpi	r24, 0x01	; 1
    58ae:	11 f4       	brne	.+4      	; 0x58b4 <_ZN4UTFT7InitLCDEh+0x23b4>
    58b0:	1c 82       	std	Y+4, r1	; 0x04
    58b2:	02 c0       	rjmp	.+4      	; 0x58b8 <_ZN4UTFT7InitLCDEh+0x23b8>
    58b4:	81 e0       	ldi	r24, 0x01	; 1
    58b6:	8c 83       	std	Y+4, r24	; 0x04
    58b8:	6f e0       	ldi	r22, 0x0F	; 15
    58ba:	ce 01       	movw	r24, r28
    58bc:	0e 94 dc 18 	call	0x31b8	; 0x31b8 <_ZN4UTFT13LCD_Write_COMEc>
    58c0:	40 e1       	ldi	r20, 0x10	; 16
    58c2:	50 e0       	ldi	r21, 0x00	; 0
    58c4:	61 e0       	ldi	r22, 0x01	; 1
    58c6:	ce 01       	movw	r24, r28
    58c8:	0e 94 30 19 	call	0x3260	; 0x3260 <_ZN4UTFT18LCD_Write_COM_DATAEci>
    58cc:	6f e0       	ldi	r22, 0x0F	; 15
    58ce:	0c 94 7a 1e 	jmp	0x3cf4	; 0x3cf4 <_ZN4UTFT7InitLCDEh+0x7f4>
    58d2:	69 eb       	ldi	r22, 0xB9	; 185
    58d4:	ce 01       	movw	r24, r28
    58d6:	0e 94 dc 18 	call	0x31b8	; 0x31b8 <_ZN4UTFT13LCD_Write_COMEc>
    58da:	6f ef       	ldi	r22, 0xFF	; 255
    58dc:	ce 01       	movw	r24, r28
    58de:	0e 94 18 19 	call	0x3230	; 0x3230 <_ZN4UTFT14LCD_Write_DATAEc>
    58e2:	63 e8       	ldi	r22, 0x83	; 131
    58e4:	ce 01       	movw	r24, r28
    58e6:	0e 94 18 19 	call	0x3230	; 0x3230 <_ZN4UTFT14LCD_Write_DATAEc>
    58ea:	63 e5       	ldi	r22, 0x53	; 83
    58ec:	ce 01       	movw	r24, r28
    58ee:	0e 94 18 19 	call	0x3230	; 0x3230 <_ZN4UTFT14LCD_Write_DATAEc>
    58f2:	60 eb       	ldi	r22, 0xB0	; 176
    58f4:	ce 01       	movw	r24, r28
    58f6:	0e 94 dc 18 	call	0x31b8	; 0x31b8 <_ZN4UTFT13LCD_Write_COMEc>
    58fa:	6c e3       	ldi	r22, 0x3C	; 60
    58fc:	ce 01       	movw	r24, r28
    58fe:	0e 94 18 19 	call	0x3230	; 0x3230 <_ZN4UTFT14LCD_Write_DATAEc>
    5902:	61 e0       	ldi	r22, 0x01	; 1
    5904:	ce 01       	movw	r24, r28
    5906:	0e 94 18 19 	call	0x3230	; 0x3230 <_ZN4UTFT14LCD_Write_DATAEc>
    590a:	66 eb       	ldi	r22, 0xB6	; 182
    590c:	ce 01       	movw	r24, r28
    590e:	0e 94 dc 18 	call	0x31b8	; 0x31b8 <_ZN4UTFT13LCD_Write_COMEc>
    5912:	64 e9       	ldi	r22, 0x94	; 148
    5914:	ce 01       	movw	r24, r28
    5916:	0e 94 18 19 	call	0x3230	; 0x3230 <_ZN4UTFT14LCD_Write_DATAEc>
    591a:	6c e6       	ldi	r22, 0x6C	; 108
    591c:	ce 01       	movw	r24, r28
    591e:	0e 94 18 19 	call	0x3230	; 0x3230 <_ZN4UTFT14LCD_Write_DATAEc>
    5922:	60 e5       	ldi	r22, 0x50	; 80
    5924:	ce 01       	movw	r24, r28
    5926:	0e 94 18 19 	call	0x3230	; 0x3230 <_ZN4UTFT14LCD_Write_DATAEc>
    592a:	61 eb       	ldi	r22, 0xB1	; 177
    592c:	ce 01       	movw	r24, r28
    592e:	0e 94 dc 18 	call	0x31b8	; 0x31b8 <_ZN4UTFT13LCD_Write_COMEc>
    5932:	60 e0       	ldi	r22, 0x00	; 0
    5934:	ce 01       	movw	r24, r28
    5936:	0e 94 18 19 	call	0x3230	; 0x3230 <_ZN4UTFT14LCD_Write_DATAEc>
    593a:	61 e0       	ldi	r22, 0x01	; 1
    593c:	ce 01       	movw	r24, r28
    593e:	0e 94 18 19 	call	0x3230	; 0x3230 <_ZN4UTFT14LCD_Write_DATAEc>
    5942:	6b e1       	ldi	r22, 0x1B	; 27
    5944:	ce 01       	movw	r24, r28
    5946:	0e 94 18 19 	call	0x3230	; 0x3230 <_ZN4UTFT14LCD_Write_DATAEc>
    594a:	63 e0       	ldi	r22, 0x03	; 3
    594c:	ce 01       	movw	r24, r28
    594e:	0e 94 18 19 	call	0x3230	; 0x3230 <_ZN4UTFT14LCD_Write_DATAEc>
    5952:	61 e0       	ldi	r22, 0x01	; 1
    5954:	ce 01       	movw	r24, r28
    5956:	0e 94 18 19 	call	0x3230	; 0x3230 <_ZN4UTFT14LCD_Write_DATAEc>
    595a:	68 e0       	ldi	r22, 0x08	; 8
    595c:	ce 01       	movw	r24, r28
    595e:	0e 94 18 19 	call	0x3230	; 0x3230 <_ZN4UTFT14LCD_Write_DATAEc>
    5962:	67 e7       	ldi	r22, 0x77	; 119
    5964:	ce 01       	movw	r24, r28
    5966:	0e 94 18 19 	call	0x3230	; 0x3230 <_ZN4UTFT14LCD_Write_DATAEc>
    596a:	69 e8       	ldi	r22, 0x89	; 137
    596c:	ce 01       	movw	r24, r28
    596e:	0e 94 18 19 	call	0x3230	; 0x3230 <_ZN4UTFT14LCD_Write_DATAEc>
    5972:	60 ee       	ldi	r22, 0xE0	; 224
    5974:	ce 01       	movw	r24, r28
    5976:	0e 94 dc 18 	call	0x31b8	; 0x31b8 <_ZN4UTFT13LCD_Write_COMEc>
    597a:	60 e5       	ldi	r22, 0x50	; 80
    597c:	ce 01       	movw	r24, r28
    597e:	0e 94 18 19 	call	0x3230	; 0x3230 <_ZN4UTFT14LCD_Write_DATAEc>
    5982:	67 e7       	ldi	r22, 0x77	; 119
    5984:	ce 01       	movw	r24, r28
    5986:	0e 94 18 19 	call	0x3230	; 0x3230 <_ZN4UTFT14LCD_Write_DATAEc>
    598a:	60 e4       	ldi	r22, 0x40	; 64
    598c:	ce 01       	movw	r24, r28
    598e:	0e 94 18 19 	call	0x3230	; 0x3230 <_ZN4UTFT14LCD_Write_DATAEc>
    5992:	68 e0       	ldi	r22, 0x08	; 8
    5994:	ce 01       	movw	r24, r28
    5996:	0e 94 18 19 	call	0x3230	; 0x3230 <_ZN4UTFT14LCD_Write_DATAEc>
    599a:	6f eb       	ldi	r22, 0xBF	; 191
    599c:	ce 01       	movw	r24, r28
    599e:	0e 94 18 19 	call	0x3230	; 0x3230 <_ZN4UTFT14LCD_Write_DATAEc>
    59a2:	60 e0       	ldi	r22, 0x00	; 0
    59a4:	ce 01       	movw	r24, r28
    59a6:	0e 94 18 19 	call	0x3230	; 0x3230 <_ZN4UTFT14LCD_Write_DATAEc>
    59aa:	63 e0       	ldi	r22, 0x03	; 3
    59ac:	ce 01       	movw	r24, r28
    59ae:	0e 94 18 19 	call	0x3230	; 0x3230 <_ZN4UTFT14LCD_Write_DATAEc>
    59b2:	6f e0       	ldi	r22, 0x0F	; 15
    59b4:	ce 01       	movw	r24, r28
    59b6:	0e 94 18 19 	call	0x3230	; 0x3230 <_ZN4UTFT14LCD_Write_DATAEc>
    59ba:	60 e0       	ldi	r22, 0x00	; 0
    59bc:	ce 01       	movw	r24, r28
    59be:	0e 94 18 19 	call	0x3230	; 0x3230 <_ZN4UTFT14LCD_Write_DATAEc>
    59c2:	61 e0       	ldi	r22, 0x01	; 1
    59c4:	ce 01       	movw	r24, r28
    59c6:	0e 94 18 19 	call	0x3230	; 0x3230 <_ZN4UTFT14LCD_Write_DATAEc>
    59ca:	63 e7       	ldi	r22, 0x73	; 115
    59cc:	ce 01       	movw	r24, r28
    59ce:	0e 94 18 19 	call	0x3230	; 0x3230 <_ZN4UTFT14LCD_Write_DATAEc>
    59d2:	60 e0       	ldi	r22, 0x00	; 0
    59d4:	ce 01       	movw	r24, r28
    59d6:	0e 94 18 19 	call	0x3230	; 0x3230 <_ZN4UTFT14LCD_Write_DATAEc>
    59da:	62 e7       	ldi	r22, 0x72	; 114
    59dc:	ce 01       	movw	r24, r28
    59de:	0e 94 18 19 	call	0x3230	; 0x3230 <_ZN4UTFT14LCD_Write_DATAEc>
    59e2:	63 e0       	ldi	r22, 0x03	; 3
    59e4:	ce 01       	movw	r24, r28
    59e6:	0e 94 18 19 	call	0x3230	; 0x3230 <_ZN4UTFT14LCD_Write_DATAEc>
    59ea:	60 eb       	ldi	r22, 0xB0	; 176
    59ec:	ce 01       	movw	r24, r28
    59ee:	0e 94 18 19 	call	0x3230	; 0x3230 <_ZN4UTFT14LCD_Write_DATAEc>
    59f2:	6f e0       	ldi	r22, 0x0F	; 15
    59f4:	ce 01       	movw	r24, r28
    59f6:	0e 94 18 19 	call	0x3230	; 0x3230 <_ZN4UTFT14LCD_Write_DATAEc>
    59fa:	68 e0       	ldi	r22, 0x08	; 8
    59fc:	ce 01       	movw	r24, r28
    59fe:	0e 94 18 19 	call	0x3230	; 0x3230 <_ZN4UTFT14LCD_Write_DATAEc>
    5a02:	60 e0       	ldi	r22, 0x00	; 0
    5a04:	ce 01       	movw	r24, r28
    5a06:	0e 94 18 19 	call	0x3230	; 0x3230 <_ZN4UTFT14LCD_Write_DATAEc>
    5a0a:	6f e0       	ldi	r22, 0x0F	; 15
    5a0c:	ce 01       	movw	r24, r28
    5a0e:	0e 94 18 19 	call	0x3230	; 0x3230 <_ZN4UTFT14LCD_Write_DATAEc>
    5a12:	6a e3       	ldi	r22, 0x3A	; 58
    5a14:	ce 01       	movw	r24, r28
    5a16:	0e 94 dc 18 	call	0x31b8	; 0x31b8 <_ZN4UTFT13LCD_Write_COMEc>
    5a1a:	65 e0       	ldi	r22, 0x05	; 5
    5a1c:	ce 01       	movw	r24, r28
    5a1e:	0e 94 18 19 	call	0x3230	; 0x3230 <_ZN4UTFT14LCD_Write_DATAEc>
    5a22:	66 e3       	ldi	r22, 0x36	; 54
    5a24:	ce 01       	movw	r24, r28
    5a26:	0e 94 dc 18 	call	0x31b8	; 0x31b8 <_ZN4UTFT13LCD_Write_COMEc>
    5a2a:	60 ec       	ldi	r22, 0xC0	; 192
    5a2c:	ce 01       	movw	r24, r28
    5a2e:	0e 94 18 19 	call	0x3230	; 0x3230 <_ZN4UTFT14LCD_Write_DATAEc>
    5a32:	61 e1       	ldi	r22, 0x11	; 17
    5a34:	ce 01       	movw	r24, r28
    5a36:	0e 94 dc 18 	call	0x31b8	; 0x31b8 <_ZN4UTFT13LCD_Write_COMEc>
    5a3a:	66 e9       	ldi	r22, 0x96	; 150
    5a3c:	70 e0       	ldi	r23, 0x00	; 0
    5a3e:	80 e0       	ldi	r24, 0x00	; 0
    5a40:	90 e0       	ldi	r25, 0x00	; 0
    5a42:	0e 94 41 36 	call	0x6c82	; 0x6c82 <delay>
    5a46:	69 e2       	ldi	r22, 0x29	; 41
    5a48:	ce 01       	movw	r24, r28
    5a4a:	0e 94 dc 18 	call	0x31b8	; 0x31b8 <_ZN4UTFT13LCD_Write_COMEc>
    5a4e:	66 e9       	ldi	r22, 0x96	; 150
    5a50:	70 e0       	ldi	r23, 0x00	; 0
    5a52:	80 e0       	ldi	r24, 0x00	; 0
    5a54:	90 e0       	ldi	r25, 0x00	; 0
    5a56:	0e 94 41 36 	call	0x6c82	; 0x6c82 <delay>
    5a5a:	6d e2       	ldi	r22, 0x2D	; 45
    5a5c:	ce 01       	movw	r24, r28
    5a5e:	0e 94 dc 18 	call	0x31b8	; 0x31b8 <_ZN4UTFT13LCD_Write_COMEc>
    5a62:	10 e0       	ldi	r17, 0x00	; 0
    5a64:	61 2f       	mov	r22, r17
    5a66:	ce 01       	movw	r24, r28
    5a68:	0e 94 18 19 	call	0x3230	; 0x3230 <_ZN4UTFT14LCD_Write_DATAEc>
    5a6c:	1e 5f       	subi	r17, 0xFE	; 254
    5a6e:	10 34       	cpi	r17, 0x40	; 64
    5a70:	c9 f7       	brne	.-14     	; 0x5a64 <_ZN4UTFT7InitLCDEh+0x2564>
    5a72:	10 e0       	ldi	r17, 0x00	; 0
    5a74:	61 2f       	mov	r22, r17
    5a76:	ce 01       	movw	r24, r28
    5a78:	0e 94 18 19 	call	0x3230	; 0x3230 <_ZN4UTFT14LCD_Write_DATAEc>
    5a7c:	1f 5f       	subi	r17, 0xFF	; 255
    5a7e:	10 34       	cpi	r17, 0x40	; 64
    5a80:	c9 f7       	brne	.-14     	; 0x5a74 <_ZN4UTFT7InitLCDEh+0x2574>
    5a82:	10 e0       	ldi	r17, 0x00	; 0
    5a84:	61 2f       	mov	r22, r17
    5a86:	ce 01       	movw	r24, r28
    5a88:	0e 94 18 19 	call	0x3230	; 0x3230 <_ZN4UTFT14LCD_Write_DATAEc>
    5a8c:	1e 5f       	subi	r17, 0xFE	; 254
    5a8e:	10 34       	cpi	r17, 0x40	; 64
    5a90:	c9 f7       	brne	.-14     	; 0x5a84 <_ZN4UTFT7InitLCDEh+0x2584>
    5a92:	6c e2       	ldi	r22, 0x2C	; 44
    5a94:	ce 01       	movw	r24, r28
    5a96:	0e 94 dc 18 	call	0x31b8	; 0x31b8 <_ZN4UTFT13LCD_Write_COMEc>
    5a9a:	66 e9       	ldi	r22, 0x96	; 150
    5a9c:	70 e0       	ldi	r23, 0x00	; 0
    5a9e:	80 e0       	ldi	r24, 0x00	; 0
    5aa0:	90 e0       	ldi	r25, 0x00	; 0
    5aa2:	0e 94 41 36 	call	0x6c82	; 0x6c82 <delay>
    5aa6:	ec 89       	ldd	r30, Y+20	; 0x14
    5aa8:	fd 89       	ldd	r31, Y+21	; 0x15
    5aaa:	90 81       	ld	r25, Z
    5aac:	88 a1       	ldd	r24, Y+32	; 0x20
    5aae:	89 2b       	or	r24, r25
    5ab0:	80 83       	st	Z, r24
    5ab2:	8f ef       	ldi	r24, 0xFF	; 255
    5ab4:	88 83       	st	Y, r24
    5ab6:	89 83       	std	Y+1, r24	; 0x01
    5ab8:	1a 82       	std	Y+2, r1	; 0x02
    5aba:	1b 82       	std	Y+3, r1	; 0x03
    5abc:	18 aa       	std	Y+48, r1	; 0x30
    5abe:	1b a6       	std	Y+43, r1	; 0x2b
    5ac0:	1a a6       	std	Y+42, r1	; 0x2a
    5ac2:	df 91       	pop	r29
    5ac4:	cf 91       	pop	r28
    5ac6:	1f 91       	pop	r17
    5ac8:	0f 91       	pop	r16
    5aca:	08 95       	ret

00005acc <_ZN4UTFT5clrXYEv>:
    5acc:	0f 93       	push	r16
    5ace:	1f 93       	push	r17
    5ad0:	fc 01       	movw	r30, r24
    5ad2:	64 81       	ldd	r22, Z+4	; 0x04
    5ad4:	21 85       	ldd	r18, Z+9	; 0x09
    5ad6:	32 85       	ldd	r19, Z+10	; 0x0a
    5ad8:	45 81       	ldd	r20, Z+5	; 0x05
    5ada:	56 81       	ldd	r21, Z+6	; 0x06
    5adc:	61 11       	cpse	r22, r1
    5ade:	03 c0       	rjmp	.+6      	; 0x5ae6 <_ZN4UTFT5clrXYEv+0x1a>
    5ae0:	89 01       	movw	r16, r18
    5ae2:	9a 01       	movw	r18, r20
    5ae4:	01 c0       	rjmp	.+2      	; 0x5ae8 <_ZN4UTFT5clrXYEv+0x1c>
    5ae6:	8a 01       	movw	r16, r20
    5ae8:	40 e0       	ldi	r20, 0x00	; 0
    5aea:	50 e0       	ldi	r21, 0x00	; 0
    5aec:	60 e0       	ldi	r22, 0x00	; 0
    5aee:	70 e0       	ldi	r23, 0x00	; 0
    5af0:	0e 94 3f 19 	call	0x327e	; 0x327e <_ZN4UTFT5setXYEjjjj>
    5af4:	1f 91       	pop	r17
    5af6:	0f 91       	pop	r16
    5af8:	08 95       	ret

00005afa <_ZN4UTFT6clrScrEv>:
    5afa:	cf 92       	push	r12
    5afc:	df 92       	push	r13
    5afe:	ef 92       	push	r14
    5b00:	ff 92       	push	r15
    5b02:	0f 93       	push	r16
    5b04:	1f 93       	push	r17
    5b06:	cf 93       	push	r28
    5b08:	df 93       	push	r29
    5b0a:	ec 01       	movw	r28, r24
    5b0c:	ec 89       	ldd	r30, Y+20	; 0x14
    5b0e:	fd 89       	ldd	r31, Y+21	; 0x15
    5b10:	90 81       	ld	r25, Z
    5b12:	88 a1       	ldd	r24, Y+32	; 0x20
    5b14:	80 95       	com	r24
    5b16:	89 23       	and	r24, r25
    5b18:	80 83       	st	Z, r24
    5b1a:	ce 01       	movw	r24, r28
    5b1c:	d7 df       	rcall	.-82     	; 0x5acc <_ZN4UTFT5clrXYEv>
    5b1e:	8e 85       	ldd	r24, Y+14	; 0x0e
    5b20:	81 30       	cpi	r24, 0x01	; 1
    5b22:	31 f0       	breq	.+12     	; 0x5b30 <_ZN4UTFT6clrScrEv+0x36>
    5b24:	e8 89       	ldd	r30, Y+16	; 0x10
    5b26:	f9 89       	ldd	r31, Y+17	; 0x11
    5b28:	90 81       	ld	r25, Z
    5b2a:	8e 8d       	ldd	r24, Y+30	; 0x1e
    5b2c:	89 2b       	or	r24, r25
    5b2e:	80 83       	st	Z, r24
    5b30:	ee 85       	ldd	r30, Y+14	; 0x0e
    5b32:	4d 81       	ldd	r20, Y+5	; 0x05
    5b34:	5e 81       	ldd	r21, Y+6	; 0x06
    5b36:	6f 81       	ldd	r22, Y+7	; 0x07
    5b38:	78 85       	ldd	r23, Y+8	; 0x08
    5b3a:	89 85       	ldd	r24, Y+9	; 0x09
    5b3c:	9a 85       	ldd	r25, Y+10	; 0x0a
    5b3e:	ab 85       	ldd	r26, Y+11	; 0x0b
    5b40:	bc 85       	ldd	r27, Y+12	; 0x0c
    5b42:	e0 31       	cpi	r30, 0x10	; 16
    5b44:	c1 f4       	brne	.+48     	; 0x5b76 <_ZN4UTFT6clrScrEv+0x7c>
    5b46:	9a 01       	movw	r18, r20
    5b48:	ab 01       	movw	r20, r22
    5b4a:	2f 5f       	subi	r18, 0xFF	; 255
    5b4c:	3f 4f       	sbci	r19, 0xFF	; 255
    5b4e:	4f 4f       	sbci	r20, 0xFF	; 255
    5b50:	5f 4f       	sbci	r21, 0xFF	; 255
    5b52:	bc 01       	movw	r22, r24
    5b54:	cd 01       	movw	r24, r26
    5b56:	6f 5f       	subi	r22, 0xFF	; 255
    5b58:	7f 4f       	sbci	r23, 0xFF	; 255
    5b5a:	8f 4f       	sbci	r24, 0xFF	; 255
    5b5c:	9f 4f       	sbci	r25, 0xFF	; 255
    5b5e:	0e 94 4a 38 	call	0x7094	; 0x7094 <__mulsi3>
    5b62:	8b 01       	movw	r16, r22
    5b64:	9c 01       	movw	r18, r24
    5b66:	40 e0       	ldi	r20, 0x00	; 0
    5b68:	50 e0       	ldi	r21, 0x00	; 0
    5b6a:	60 e0       	ldi	r22, 0x00	; 0
    5b6c:	70 e0       	ldi	r23, 0x00	; 0
    5b6e:	ce 01       	movw	r24, r28
    5b70:	0e 94 f4 13 	call	0x27e8	; 0x27e8 <_ZN4UTFT13_fast_fill_16Eiil>
    5b74:	4f c0       	rjmp	.+158    	; 0x5c14 <_ZN4UTFT6clrScrEv+0x11a>
    5b76:	e8 30       	cpi	r30, 0x08	; 8
    5b78:	21 f0       	breq	.+8      	; 0x5b82 <_ZN4UTFT6clrScrEv+0x88>
    5b7a:	c1 2c       	mov	r12, r1
    5b7c:	d1 2c       	mov	r13, r1
    5b7e:	76 01       	movw	r14, r12
    5b80:	23 c0       	rjmp	.+70     	; 0x5bc8 <_ZN4UTFT6clrScrEv+0xce>
    5b82:	9a 01       	movw	r18, r20
    5b84:	ab 01       	movw	r20, r22
    5b86:	2f 5f       	subi	r18, 0xFF	; 255
    5b88:	3f 4f       	sbci	r19, 0xFF	; 255
    5b8a:	4f 4f       	sbci	r20, 0xFF	; 255
    5b8c:	5f 4f       	sbci	r21, 0xFF	; 255
    5b8e:	bc 01       	movw	r22, r24
    5b90:	cd 01       	movw	r24, r26
    5b92:	6f 5f       	subi	r22, 0xFF	; 255
    5b94:	7f 4f       	sbci	r23, 0xFF	; 255
    5b96:	8f 4f       	sbci	r24, 0xFF	; 255
    5b98:	9f 4f       	sbci	r25, 0xFF	; 255
    5b9a:	0e 94 4a 38 	call	0x7094	; 0x7094 <__mulsi3>
    5b9e:	9b 01       	movw	r18, r22
    5ba0:	ac 01       	movw	r20, r24
    5ba2:	60 e0       	ldi	r22, 0x00	; 0
    5ba4:	70 e0       	ldi	r23, 0x00	; 0
    5ba6:	ce 01       	movw	r24, r28
    5ba8:	0e 94 26 15 	call	0x2a4c	; 0x2a4c <_ZN4UTFT12_fast_fill_8Eil>
    5bac:	33 c0       	rjmp	.+102    	; 0x5c14 <_ZN4UTFT6clrScrEv+0x11a>
    5bae:	2e 85       	ldd	r18, Y+14	; 0x0e
    5bb0:	21 30       	cpi	r18, 0x01	; 1
    5bb2:	31 f1       	breq	.+76     	; 0x5c00 <_ZN4UTFT6clrScrEv+0x106>
    5bb4:	40 e0       	ldi	r20, 0x00	; 0
    5bb6:	60 e0       	ldi	r22, 0x00	; 0
    5bb8:	ce 01       	movw	r24, r28
    5bba:	0e 94 4d 12 	call	0x249a	; 0x249a <_ZN4UTFT12LCD_Writ_BusEcch>
    5bbe:	8f ef       	ldi	r24, 0xFF	; 255
    5bc0:	c8 1a       	sub	r12, r24
    5bc2:	d8 0a       	sbc	r13, r24
    5bc4:	e8 0a       	sbc	r14, r24
    5bc6:	f8 0a       	sbc	r15, r24
    5bc8:	8d 81       	ldd	r24, Y+5	; 0x05
    5bca:	9e 81       	ldd	r25, Y+6	; 0x06
    5bcc:	af 81       	ldd	r26, Y+7	; 0x07
    5bce:	b8 85       	ldd	r27, Y+8	; 0x08
    5bd0:	9c 01       	movw	r18, r24
    5bd2:	ad 01       	movw	r20, r26
    5bd4:	2f 5f       	subi	r18, 0xFF	; 255
    5bd6:	3f 4f       	sbci	r19, 0xFF	; 255
    5bd8:	4f 4f       	sbci	r20, 0xFF	; 255
    5bda:	5f 4f       	sbci	r21, 0xFF	; 255
    5bdc:	89 85       	ldd	r24, Y+9	; 0x09
    5bde:	9a 85       	ldd	r25, Y+10	; 0x0a
    5be0:	ab 85       	ldd	r26, Y+11	; 0x0b
    5be2:	bc 85       	ldd	r27, Y+12	; 0x0c
    5be4:	bc 01       	movw	r22, r24
    5be6:	cd 01       	movw	r24, r26
    5be8:	6f 5f       	subi	r22, 0xFF	; 255
    5bea:	7f 4f       	sbci	r23, 0xFF	; 255
    5bec:	8f 4f       	sbci	r24, 0xFF	; 255
    5bee:	9f 4f       	sbci	r25, 0xFF	; 255
    5bf0:	0e 94 4a 38 	call	0x7094	; 0x7094 <__mulsi3>
    5bf4:	c6 16       	cp	r12, r22
    5bf6:	d7 06       	cpc	r13, r23
    5bf8:	e8 06       	cpc	r14, r24
    5bfa:	f9 06       	cpc	r15, r25
    5bfc:	c4 f2       	brlt	.-80     	; 0x5bae <_ZN4UTFT6clrScrEv+0xb4>
    5bfe:	0a c0       	rjmp	.+20     	; 0x5c14 <_ZN4UTFT6clrScrEv+0x11a>
    5c00:	21 e0       	ldi	r18, 0x01	; 1
    5c02:	40 e0       	ldi	r20, 0x00	; 0
    5c04:	61 e0       	ldi	r22, 0x01	; 1
    5c06:	ce 01       	movw	r24, r28
    5c08:	0e 94 4d 12 	call	0x249a	; 0x249a <_ZN4UTFT12LCD_Writ_BusEcch>
    5c0c:	2e 85       	ldd	r18, Y+14	; 0x0e
    5c0e:	40 e0       	ldi	r20, 0x00	; 0
    5c10:	61 e0       	ldi	r22, 0x01	; 1
    5c12:	d2 cf       	rjmp	.-92     	; 0x5bb8 <_ZN4UTFT6clrScrEv+0xbe>
    5c14:	ec 89       	ldd	r30, Y+20	; 0x14
    5c16:	fd 89       	ldd	r31, Y+21	; 0x15
    5c18:	90 81       	ld	r25, Z
    5c1a:	88 a1       	ldd	r24, Y+32	; 0x20
    5c1c:	89 2b       	or	r24, r25
    5c1e:	80 83       	st	Z, r24
    5c20:	df 91       	pop	r29
    5c22:	cf 91       	pop	r28
    5c24:	1f 91       	pop	r17
    5c26:	0f 91       	pop	r16
    5c28:	ff 90       	pop	r15
    5c2a:	ef 90       	pop	r14
    5c2c:	df 90       	pop	r13
    5c2e:	cf 90       	pop	r12
    5c30:	08 95       	ret

00005c32 <_ZN4UTFT8setColorEj>:
    5c32:	fc 01       	movw	r30, r24
    5c34:	70 83       	st	Z, r23
    5c36:	61 83       	std	Z+1, r22	; 0x01
    5c38:	08 95       	ret

00005c3a <_ZN4UTFT9drawHLineEiii>:
    5c3a:	ef 92       	push	r14
    5c3c:	ff 92       	push	r15
    5c3e:	0f 93       	push	r16
    5c40:	1f 93       	push	r17
    5c42:	cf 93       	push	r28
    5c44:	df 93       	push	r29
    5c46:	ec 01       	movw	r28, r24
    5c48:	79 01       	movw	r14, r18
    5c4a:	37 ff       	sbrs	r19, 7
    5c4c:	05 c0       	rjmp	.+10     	; 0x5c58 <_ZN4UTFT9drawHLineEiii+0x1e>
    5c4e:	62 0f       	add	r22, r18
    5c50:	73 1f       	adc	r23, r19
    5c52:	f1 94       	neg	r15
    5c54:	e1 94       	neg	r14
    5c56:	f1 08       	sbc	r15, r1
    5c58:	ec 89       	ldd	r30, Y+20	; 0x14
    5c5a:	fd 89       	ldd	r31, Y+21	; 0x15
    5c5c:	90 81       	ld	r25, Z
    5c5e:	88 a1       	ldd	r24, Y+32	; 0x20
    5c60:	80 95       	com	r24
    5c62:	89 23       	and	r24, r25
    5c64:	80 83       	st	Z, r24
    5c66:	9b 01       	movw	r18, r22
    5c68:	2e 0d       	add	r18, r14
    5c6a:	3f 1d       	adc	r19, r15
    5c6c:	8a 01       	movw	r16, r20
    5c6e:	ce 01       	movw	r24, r28
    5c70:	0e 94 3f 19 	call	0x327e	; 0x327e <_ZN4UTFT5setXYEjjjj>
    5c74:	8e 85       	ldd	r24, Y+14	; 0x0e
    5c76:	80 31       	cpi	r24, 0x10	; 16
    5c78:	91 f4       	brne	.+36     	; 0x5c9e <_ZN4UTFT9drawHLineEiii+0x64>
    5c7a:	e8 89       	ldd	r30, Y+16	; 0x10
    5c7c:	f9 89       	ldd	r31, Y+17	; 0x11
    5c7e:	90 81       	ld	r25, Z
    5c80:	8e 8d       	ldd	r24, Y+30	; 0x1e
    5c82:	89 2b       	or	r24, r25
    5c84:	80 83       	st	Z, r24
    5c86:	87 01       	movw	r16, r14
    5c88:	ff 0c       	add	r15, r15
    5c8a:	22 0b       	sbc	r18, r18
    5c8c:	33 0b       	sbc	r19, r19
    5c8e:	49 81       	ldd	r20, Y+1	; 0x01
    5c90:	50 e0       	ldi	r21, 0x00	; 0
    5c92:	68 81       	ld	r22, Y
    5c94:	70 e0       	ldi	r23, 0x00	; 0
    5c96:	ce 01       	movw	r24, r28
    5c98:	0e 94 f4 13 	call	0x27e8	; 0x27e8 <_ZN4UTFT13_fast_fill_16Eiil>
    5c9c:	22 c0       	rjmp	.+68     	; 0x5ce2 <_ZN4UTFT9drawHLineEiii+0xa8>
    5c9e:	88 30       	cpi	r24, 0x08	; 8
    5ca0:	a1 f4       	brne	.+40     	; 0x5cca <_ZN4UTFT9drawHLineEiii+0x90>
    5ca2:	98 81       	ld	r25, Y
    5ca4:	89 81       	ldd	r24, Y+1	; 0x01
    5ca6:	98 13       	cpse	r25, r24
    5ca8:	10 c0       	rjmp	.+32     	; 0x5cca <_ZN4UTFT9drawHLineEiii+0x90>
    5caa:	e8 89       	ldd	r30, Y+16	; 0x10
    5cac:	f9 89       	ldd	r31, Y+17	; 0x11
    5cae:	90 81       	ld	r25, Z
    5cb0:	8e 8d       	ldd	r24, Y+30	; 0x1e
    5cb2:	89 2b       	or	r24, r25
    5cb4:	80 83       	st	Z, r24
    5cb6:	97 01       	movw	r18, r14
    5cb8:	ff 0c       	add	r15, r15
    5cba:	44 0b       	sbc	r20, r20
    5cbc:	55 0b       	sbc	r21, r21
    5cbe:	68 81       	ld	r22, Y
    5cc0:	70 e0       	ldi	r23, 0x00	; 0
    5cc2:	ce 01       	movw	r24, r28
    5cc4:	0e 94 26 15 	call	0x2a4c	; 0x2a4c <_ZN4UTFT12_fast_fill_8Eil>
    5cc8:	0c c0       	rjmp	.+24     	; 0x5ce2 <_ZN4UTFT9drawHLineEiii+0xa8>
    5cca:	00 e0       	ldi	r16, 0x00	; 0
    5ccc:	10 e0       	ldi	r17, 0x00	; 0
    5cce:	49 81       	ldd	r20, Y+1	; 0x01
    5cd0:	68 81       	ld	r22, Y
    5cd2:	ce 01       	movw	r24, r28
    5cd4:	0e 94 f4 18 	call	0x31e8	; 0x31e8 <_ZN4UTFT14LCD_Write_DATAEcc>
    5cd8:	0f 5f       	subi	r16, 0xFF	; 255
    5cda:	1f 4f       	sbci	r17, 0xFF	; 255
    5cdc:	e0 16       	cp	r14, r16
    5cde:	f1 06       	cpc	r15, r17
    5ce0:	b4 f7       	brge	.-20     	; 0x5cce <_ZN4UTFT9drawHLineEiii+0x94>
    5ce2:	ec 89       	ldd	r30, Y+20	; 0x14
    5ce4:	fd 89       	ldd	r31, Y+21	; 0x15
    5ce6:	90 81       	ld	r25, Z
    5ce8:	88 a1       	ldd	r24, Y+32	; 0x20
    5cea:	89 2b       	or	r24, r25
    5cec:	80 83       	st	Z, r24
    5cee:	ce 01       	movw	r24, r28
    5cf0:	df 91       	pop	r29
    5cf2:	cf 91       	pop	r28
    5cf4:	1f 91       	pop	r17
    5cf6:	0f 91       	pop	r16
    5cf8:	ff 90       	pop	r15
    5cfa:	ef 90       	pop	r14
    5cfc:	e7 ce       	rjmp	.-562    	; 0x5acc <_ZN4UTFT5clrXYEv>

00005cfe <_ZN4UTFT9drawVLineEiii>:
    5cfe:	ef 92       	push	r14
    5d00:	ff 92       	push	r15
    5d02:	0f 93       	push	r16
    5d04:	1f 93       	push	r17
    5d06:	cf 93       	push	r28
    5d08:	df 93       	push	r29
    5d0a:	ec 01       	movw	r28, r24
    5d0c:	79 01       	movw	r14, r18
    5d0e:	37 ff       	sbrs	r19, 7
    5d10:	05 c0       	rjmp	.+10     	; 0x5d1c <_ZN4UTFT9drawVLineEiii+0x1e>
    5d12:	42 0f       	add	r20, r18
    5d14:	53 1f       	adc	r21, r19
    5d16:	f1 94       	neg	r15
    5d18:	e1 94       	neg	r14
    5d1a:	f1 08       	sbc	r15, r1
    5d1c:	ec 89       	ldd	r30, Y+20	; 0x14
    5d1e:	fd 89       	ldd	r31, Y+21	; 0x15
    5d20:	90 81       	ld	r25, Z
    5d22:	88 a1       	ldd	r24, Y+32	; 0x20
    5d24:	80 95       	com	r24
    5d26:	89 23       	and	r24, r25
    5d28:	80 83       	st	Z, r24
    5d2a:	8a 01       	movw	r16, r20
    5d2c:	0e 0d       	add	r16, r14
    5d2e:	1f 1d       	adc	r17, r15
    5d30:	9b 01       	movw	r18, r22
    5d32:	ce 01       	movw	r24, r28
    5d34:	0e 94 3f 19 	call	0x327e	; 0x327e <_ZN4UTFT5setXYEjjjj>
    5d38:	8e 85       	ldd	r24, Y+14	; 0x0e
    5d3a:	80 31       	cpi	r24, 0x10	; 16
    5d3c:	91 f4       	brne	.+36     	; 0x5d62 <_ZN4UTFT9drawVLineEiii+0x64>
    5d3e:	e8 89       	ldd	r30, Y+16	; 0x10
    5d40:	f9 89       	ldd	r31, Y+17	; 0x11
    5d42:	90 81       	ld	r25, Z
    5d44:	8e 8d       	ldd	r24, Y+30	; 0x1e
    5d46:	89 2b       	or	r24, r25
    5d48:	80 83       	st	Z, r24
    5d4a:	87 01       	movw	r16, r14
    5d4c:	ff 0c       	add	r15, r15
    5d4e:	22 0b       	sbc	r18, r18
    5d50:	33 0b       	sbc	r19, r19
    5d52:	49 81       	ldd	r20, Y+1	; 0x01
    5d54:	50 e0       	ldi	r21, 0x00	; 0
    5d56:	68 81       	ld	r22, Y
    5d58:	70 e0       	ldi	r23, 0x00	; 0
    5d5a:	ce 01       	movw	r24, r28
    5d5c:	0e 94 f4 13 	call	0x27e8	; 0x27e8 <_ZN4UTFT13_fast_fill_16Eiil>
    5d60:	22 c0       	rjmp	.+68     	; 0x5da6 <_ZN4UTFT9drawVLineEiii+0xa8>
    5d62:	88 30       	cpi	r24, 0x08	; 8
    5d64:	a1 f4       	brne	.+40     	; 0x5d8e <_ZN4UTFT9drawVLineEiii+0x90>
    5d66:	98 81       	ld	r25, Y
    5d68:	89 81       	ldd	r24, Y+1	; 0x01
    5d6a:	98 13       	cpse	r25, r24
    5d6c:	10 c0       	rjmp	.+32     	; 0x5d8e <_ZN4UTFT9drawVLineEiii+0x90>
    5d6e:	e8 89       	ldd	r30, Y+16	; 0x10
    5d70:	f9 89       	ldd	r31, Y+17	; 0x11
    5d72:	90 81       	ld	r25, Z
    5d74:	8e 8d       	ldd	r24, Y+30	; 0x1e
    5d76:	89 2b       	or	r24, r25
    5d78:	80 83       	st	Z, r24
    5d7a:	97 01       	movw	r18, r14
    5d7c:	ff 0c       	add	r15, r15
    5d7e:	44 0b       	sbc	r20, r20
    5d80:	55 0b       	sbc	r21, r21
    5d82:	68 81       	ld	r22, Y
    5d84:	70 e0       	ldi	r23, 0x00	; 0
    5d86:	ce 01       	movw	r24, r28
    5d88:	0e 94 26 15 	call	0x2a4c	; 0x2a4c <_ZN4UTFT12_fast_fill_8Eil>
    5d8c:	0c c0       	rjmp	.+24     	; 0x5da6 <_ZN4UTFT9drawVLineEiii+0xa8>
    5d8e:	00 e0       	ldi	r16, 0x00	; 0
    5d90:	10 e0       	ldi	r17, 0x00	; 0
    5d92:	49 81       	ldd	r20, Y+1	; 0x01
    5d94:	68 81       	ld	r22, Y
    5d96:	ce 01       	movw	r24, r28
    5d98:	0e 94 f4 18 	call	0x31e8	; 0x31e8 <_ZN4UTFT14LCD_Write_DATAEcc>
    5d9c:	0f 5f       	subi	r16, 0xFF	; 255
    5d9e:	1f 4f       	sbci	r17, 0xFF	; 255
    5da0:	e0 16       	cp	r14, r16
    5da2:	f1 06       	cpc	r15, r17
    5da4:	b4 f7       	brge	.-20     	; 0x5d92 <_ZN4UTFT9drawVLineEiii+0x94>
    5da6:	ec 89       	ldd	r30, Y+20	; 0x14
    5da8:	fd 89       	ldd	r31, Y+21	; 0x15
    5daa:	90 81       	ld	r25, Z
    5dac:	88 a1       	ldd	r24, Y+32	; 0x20
    5dae:	89 2b       	or	r24, r25
    5db0:	80 83       	st	Z, r24
    5db2:	ce 01       	movw	r24, r28
    5db4:	df 91       	pop	r29
    5db6:	cf 91       	pop	r28
    5db8:	1f 91       	pop	r17
    5dba:	0f 91       	pop	r16
    5dbc:	ff 90       	pop	r15
    5dbe:	ef 90       	pop	r14
    5dc0:	85 ce       	rjmp	.-758    	; 0x5acc <_ZN4UTFT5clrXYEv>

00005dc2 <_ZN4UTFT8fillRectEiiii>:

void UTFT::fillRect(int x1, int y1, int x2, int y2)
{
    5dc2:	6f 92       	push	r6
    5dc4:	7f 92       	push	r7
    5dc6:	8f 92       	push	r8
    5dc8:	9f 92       	push	r9
    5dca:	af 92       	push	r10
    5dcc:	bf 92       	push	r11
    5dce:	cf 92       	push	r12
    5dd0:	df 92       	push	r13
    5dd2:	ef 92       	push	r14
    5dd4:	ff 92       	push	r15
    5dd6:	0f 93       	push	r16
    5dd8:	1f 93       	push	r17
    5dda:	cf 93       	push	r28
    5ddc:	df 93       	push	r29
    5dde:	ec 01       	movw	r28, r24
    5de0:	4b 01       	movw	r8, r22
    5de2:	5a 01       	movw	r10, r20
    5de4:	69 01       	movw	r12, r18
    5de6:	78 01       	movw	r14, r16
	if (x1>x2)
    5de8:	26 17       	cp	r18, r22
    5dea:	37 07       	cpc	r19, r23
    5dec:	24 f4       	brge	.+8      	; 0x5df6 <_ZN4UTFT8fillRectEiiii+0x34>
    5dee:	89 2d       	mov	r24, r9
    5df0:	49 01       	movw	r8, r18
    5df2:	c6 2e       	mov	r12, r22
    5df4:	d8 2e       	mov	r13, r24
	{
		swap(int, x1, x2);
	}
	if (y1>y2)
    5df6:	ea 14       	cp	r14, r10
    5df8:	fb 04       	cpc	r15, r11
    5dfa:	2c f4       	brge	.+10     	; 0x5e06 <_ZN4UTFT8fillRectEiiii+0x44>
    5dfc:	9a 2d       	mov	r25, r10
    5dfe:	8b 2d       	mov	r24, r11
    5e00:	57 01       	movw	r10, r14
    5e02:	e9 2e       	mov	r14, r25
    5e04:	f8 2e       	mov	r15, r24
	{
		swap(int, y1, y2);
	}
	if (display_transfer_mode==16)
    5e06:	8e 85       	ldd	r24, Y+14	; 0x0e
    5e08:	80 31       	cpi	r24, 0x10	; 16
    5e0a:	d9 f5       	brne	.+118    	; 0x5e82 <_ZN4UTFT8fillRectEiiii+0xc0>
	{
		cbi(P_CS, B_CS);
    5e0c:	ec 89       	ldd	r30, Y+20	; 0x14
    5e0e:	fd 89       	ldd	r31, Y+21	; 0x15
    5e10:	90 81       	ld	r25, Z
    5e12:	88 a1       	ldd	r24, Y+32	; 0x20
    5e14:	80 95       	com	r24
    5e16:	89 23       	and	r24, r25
    5e18:	80 83       	st	Z, r24
		setXY(x1, y1, x2, y2);
    5e1a:	87 01       	movw	r16, r14
    5e1c:	96 01       	movw	r18, r12
    5e1e:	a5 01       	movw	r20, r10
    5e20:	b4 01       	movw	r22, r8
    5e22:	ce 01       	movw	r24, r28
    5e24:	0e 94 3f 19 	call	0x327e	; 0x327e <_ZN4UTFT5setXYEjjjj>
		sbi(P_RS, B_RS);
    5e28:	e8 89       	ldd	r30, Y+16	; 0x10
    5e2a:	f9 89       	ldd	r31, Y+17	; 0x11
    5e2c:	90 81       	ld	r25, Z
    5e2e:	8e 8d       	ldd	r24, Y+30	; 0x1e
    5e30:	89 2b       	or	r24, r25
    5e32:	80 83       	st	Z, r24
		_fast_fill_16(fch,fcl,((long(x2-x1)+1)*(long(y2-y1)+1)));
    5e34:	96 01       	movw	r18, r12
    5e36:	28 19       	sub	r18, r8
    5e38:	39 09       	sbc	r19, r9
    5e3a:	c9 01       	movw	r24, r18
    5e3c:	33 0f       	add	r19, r19
    5e3e:	aa 0b       	sbc	r26, r26
    5e40:	bb 0b       	sbc	r27, r27
    5e42:	9c 01       	movw	r18, r24
    5e44:	ad 01       	movw	r20, r26
    5e46:	2f 5f       	subi	r18, 0xFF	; 255
    5e48:	3f 4f       	sbci	r19, 0xFF	; 255
    5e4a:	4f 4f       	sbci	r20, 0xFF	; 255
    5e4c:	5f 4f       	sbci	r21, 0xFF	; 255
    5e4e:	b7 01       	movw	r22, r14
    5e50:	6a 19       	sub	r22, r10
    5e52:	7b 09       	sbc	r23, r11
    5e54:	cb 01       	movw	r24, r22
    5e56:	77 0f       	add	r23, r23
    5e58:	aa 0b       	sbc	r26, r26
    5e5a:	bb 0b       	sbc	r27, r27
    5e5c:	bc 01       	movw	r22, r24
    5e5e:	cd 01       	movw	r24, r26
    5e60:	6f 5f       	subi	r22, 0xFF	; 255
    5e62:	7f 4f       	sbci	r23, 0xFF	; 255
    5e64:	8f 4f       	sbci	r24, 0xFF	; 255
    5e66:	9f 4f       	sbci	r25, 0xFF	; 255
    5e68:	0e 94 4a 38 	call	0x7094	; 0x7094 <__mulsi3>
    5e6c:	8b 01       	movw	r16, r22
    5e6e:	9c 01       	movw	r18, r24
    5e70:	49 81       	ldd	r20, Y+1	; 0x01
    5e72:	50 e0       	ldi	r21, 0x00	; 0
    5e74:	88 81       	ld	r24, Y
    5e76:	68 2f       	mov	r22, r24
    5e78:	70 e0       	ldi	r23, 0x00	; 0
    5e7a:	ce 01       	movw	r24, r28
    5e7c:	0e 94 f4 13 	call	0x27e8	; 0x27e8 <_ZN4UTFT13_fast_fill_16Eiil>
    5e80:	3f c0       	rjmp	.+126    	; 0x5f00 <_ZN4UTFT8fillRectEiiii+0x13e>
		sbi(P_CS, B_CS);
	}
	else if ((display_transfer_mode==8) and (fch==fcl))
    5e82:	88 30       	cpi	r24, 0x08	; 8
    5e84:	09 f0       	breq	.+2      	; 0x5e88 <_ZN4UTFT8fillRectEiiii+0xc6>
    5e86:	43 c0       	rjmp	.+134    	; 0x5f0e <_ZN4UTFT8fillRectEiiii+0x14c>
    5e88:	98 81       	ld	r25, Y
    5e8a:	89 81       	ldd	r24, Y+1	; 0x01
    5e8c:	98 13       	cpse	r25, r24
    5e8e:	3f c0       	rjmp	.+126    	; 0x5f0e <_ZN4UTFT8fillRectEiiii+0x14c>
	{
		cbi(P_CS, B_CS);
    5e90:	ec 89       	ldd	r30, Y+20	; 0x14
    5e92:	fd 89       	ldd	r31, Y+21	; 0x15
    5e94:	90 81       	ld	r25, Z
    5e96:	88 a1       	ldd	r24, Y+32	; 0x20
    5e98:	80 95       	com	r24
    5e9a:	89 23       	and	r24, r25
    5e9c:	80 83       	st	Z, r24
		setXY(x1, y1, x2, y2);
    5e9e:	87 01       	movw	r16, r14
    5ea0:	96 01       	movw	r18, r12
    5ea2:	a5 01       	movw	r20, r10
    5ea4:	b4 01       	movw	r22, r8
    5ea6:	ce 01       	movw	r24, r28
    5ea8:	0e 94 3f 19 	call	0x327e	; 0x327e <_ZN4UTFT5setXYEjjjj>
		sbi(P_RS, B_RS);
    5eac:	e8 89       	ldd	r30, Y+16	; 0x10
    5eae:	f9 89       	ldd	r31, Y+17	; 0x11
    5eb0:	90 81       	ld	r25, Z
    5eb2:	8e 8d       	ldd	r24, Y+30	; 0x1e
    5eb4:	89 2b       	or	r24, r25
    5eb6:	80 83       	st	Z, r24
		_fast_fill_8(fch,((long(x2-x1)+1)*(long(y2-y1)+1)));
    5eb8:	96 01       	movw	r18, r12
    5eba:	28 19       	sub	r18, r8
    5ebc:	39 09       	sbc	r19, r9
    5ebe:	c9 01       	movw	r24, r18
    5ec0:	33 0f       	add	r19, r19
    5ec2:	aa 0b       	sbc	r26, r26
    5ec4:	bb 0b       	sbc	r27, r27
    5ec6:	9c 01       	movw	r18, r24
    5ec8:	ad 01       	movw	r20, r26
    5eca:	2f 5f       	subi	r18, 0xFF	; 255
    5ecc:	3f 4f       	sbci	r19, 0xFF	; 255
    5ece:	4f 4f       	sbci	r20, 0xFF	; 255
    5ed0:	5f 4f       	sbci	r21, 0xFF	; 255
    5ed2:	b7 01       	movw	r22, r14
    5ed4:	6a 19       	sub	r22, r10
    5ed6:	7b 09       	sbc	r23, r11
    5ed8:	cb 01       	movw	r24, r22
    5eda:	77 0f       	add	r23, r23
    5edc:	aa 0b       	sbc	r26, r26
    5ede:	bb 0b       	sbc	r27, r27
    5ee0:	bc 01       	movw	r22, r24
    5ee2:	cd 01       	movw	r24, r26
    5ee4:	6f 5f       	subi	r22, 0xFF	; 255
    5ee6:	7f 4f       	sbci	r23, 0xFF	; 255
    5ee8:	8f 4f       	sbci	r24, 0xFF	; 255
    5eea:	9f 4f       	sbci	r25, 0xFF	; 255
    5eec:	0e 94 4a 38 	call	0x7094	; 0x7094 <__mulsi3>
    5ef0:	9b 01       	movw	r18, r22
    5ef2:	ac 01       	movw	r20, r24
    5ef4:	88 81       	ld	r24, Y
    5ef6:	68 2f       	mov	r22, r24
    5ef8:	70 e0       	ldi	r23, 0x00	; 0
    5efa:	ce 01       	movw	r24, r28
    5efc:	0e 94 26 15 	call	0x2a4c	; 0x2a4c <_ZN4UTFT12_fast_fill_8Eil>
		sbi(P_CS, B_CS);
    5f00:	ec 89       	ldd	r30, Y+20	; 0x14
    5f02:	fd 89       	ldd	r31, Y+21	; 0x15
    5f04:	90 81       	ld	r25, Z
    5f06:	88 a1       	ldd	r24, Y+32	; 0x20
    5f08:	89 2b       	or	r24, r25
    5f0a:	80 83       	st	Z, r24
    5f0c:	47 c0       	rjmp	.+142    	; 0x5f9c <_ZN4UTFT8fillRectEiiii+0x1da>
	}
	else
	{
		if (orient==PORTRAIT)
    5f0e:	8c 81       	ldd	r24, Y+4	; 0x04
    5f10:	81 11       	cpse	r24, r1
    5f12:	22 c0       	rjmp	.+68     	; 0x5f58 <_ZN4UTFT8fillRectEiiii+0x196>
		{
			for (int i=0; i<((y2-y1)/2)+1; i++)
    5f14:	37 01       	movw	r6, r14
    5f16:	6a 18       	sub	r6, r10
    5f18:	7b 08       	sbc	r7, r11
    5f1a:	77 fe       	sbrs	r7, 7
    5f1c:	03 c0       	rjmp	.+6      	; 0x5f24 <_ZN4UTFT8fillRectEiiii+0x162>
    5f1e:	8f ef       	ldi	r24, 0xFF	; 255
    5f20:	68 1a       	sub	r6, r24
    5f22:	78 0a       	sbc	r7, r24
    5f24:	75 94       	asr	r7
    5f26:	67 94       	ror	r6
    5f28:	00 e0       	ldi	r16, 0x00	; 0
    5f2a:	10 e0       	ldi	r17, 0x00	; 0
			{
				drawHLine(x1, y1+i, x2-x1);
    5f2c:	c8 18       	sub	r12, r8
    5f2e:	d9 08       	sbc	r13, r9
	}
	else
	{
		if (orient==PORTRAIT)
		{
			for (int i=0; i<((y2-y1)/2)+1; i++)
    5f30:	60 16       	cp	r6, r16
    5f32:	71 06       	cpc	r7, r17
    5f34:	9c f1       	brlt	.+102    	; 0x5f9c <_ZN4UTFT8fillRectEiiii+0x1da>
			{
				drawHLine(x1, y1+i, x2-x1);
    5f36:	a5 01       	movw	r20, r10
    5f38:	40 0f       	add	r20, r16
    5f3a:	51 1f       	adc	r21, r17
    5f3c:	96 01       	movw	r18, r12
    5f3e:	b4 01       	movw	r22, r8
    5f40:	ce 01       	movw	r24, r28
    5f42:	7b de       	rcall	.-778    	; 0x5c3a <_ZN4UTFT9drawHLineEiii>
				drawHLine(x1, y2-i, x2-x1);
    5f44:	a7 01       	movw	r20, r14
    5f46:	40 1b       	sub	r20, r16
    5f48:	51 0b       	sbc	r21, r17
    5f4a:	96 01       	movw	r18, r12
    5f4c:	b4 01       	movw	r22, r8
    5f4e:	ce 01       	movw	r24, r28
    5f50:	74 de       	rcall	.-792    	; 0x5c3a <_ZN4UTFT9drawHLineEiii>
	}
	else
	{
		if (orient==PORTRAIT)
		{
			for (int i=0; i<((y2-y1)/2)+1; i++)
    5f52:	0f 5f       	subi	r16, 0xFF	; 255
    5f54:	1f 4f       	sbci	r17, 0xFF	; 255
    5f56:	ec cf       	rjmp	.-40     	; 0x5f30 <_ZN4UTFT8fillRectEiiii+0x16e>
				drawHLine(x1, y2-i, x2-x1);
			}
		}
		else
		{
			for (int i=0; i<((x2-x1)/2)+1; i++)
    5f58:	36 01       	movw	r6, r12
    5f5a:	68 18       	sub	r6, r8
    5f5c:	79 08       	sbc	r7, r9
    5f5e:	77 fe       	sbrs	r7, 7
    5f60:	03 c0       	rjmp	.+6      	; 0x5f68 <_ZN4UTFT8fillRectEiiii+0x1a6>
    5f62:	8f ef       	ldi	r24, 0xFF	; 255
    5f64:	68 1a       	sub	r6, r24
    5f66:	78 0a       	sbc	r7, r24
    5f68:	75 94       	asr	r7
    5f6a:	67 94       	ror	r6
    5f6c:	00 e0       	ldi	r16, 0x00	; 0
    5f6e:	10 e0       	ldi	r17, 0x00	; 0
			{
				drawVLine(x1+i, y1, y2-y1);
    5f70:	ea 18       	sub	r14, r10
    5f72:	fb 08       	sbc	r15, r11
				drawHLine(x1, y2-i, x2-x1);
			}
		}
		else
		{
			for (int i=0; i<((x2-x1)/2)+1; i++)
    5f74:	60 16       	cp	r6, r16
    5f76:	71 06       	cpc	r7, r17
    5f78:	8c f0       	brlt	.+34     	; 0x5f9c <_ZN4UTFT8fillRectEiiii+0x1da>
			{
				drawVLine(x1+i, y1, y2-y1);
    5f7a:	b4 01       	movw	r22, r8
    5f7c:	60 0f       	add	r22, r16
    5f7e:	71 1f       	adc	r23, r17
    5f80:	97 01       	movw	r18, r14
    5f82:	a5 01       	movw	r20, r10
    5f84:	ce 01       	movw	r24, r28
    5f86:	bb de       	rcall	.-650    	; 0x5cfe <_ZN4UTFT9drawVLineEiii>
				drawVLine(x2-i, y1, y2-y1);
    5f88:	b6 01       	movw	r22, r12
    5f8a:	60 1b       	sub	r22, r16
    5f8c:	71 0b       	sbc	r23, r17
    5f8e:	97 01       	movw	r18, r14
    5f90:	a5 01       	movw	r20, r10
    5f92:	ce 01       	movw	r24, r28
    5f94:	b4 de       	rcall	.-664    	; 0x5cfe <_ZN4UTFT9drawVLineEiii>
				drawHLine(x1, y2-i, x2-x1);
			}
		}
		else
		{
			for (int i=0; i<((x2-x1)/2)+1; i++)
    5f96:	0f 5f       	subi	r16, 0xFF	; 255
    5f98:	1f 4f       	sbci	r17, 0xFF	; 255
    5f9a:	ec cf       	rjmp	.-40     	; 0x5f74 <_ZN4UTFT8fillRectEiiii+0x1b2>
				drawVLine(x1+i, y1, y2-y1);
				drawVLine(x2-i, y1, y2-y1);
			}
		}
	}
}
    5f9c:	df 91       	pop	r29
    5f9e:	cf 91       	pop	r28
    5fa0:	1f 91       	pop	r17
    5fa2:	0f 91       	pop	r16
    5fa4:	ff 90       	pop	r15
    5fa6:	ef 90       	pop	r14
    5fa8:	df 90       	pop	r13
    5faa:	cf 90       	pop	r12
    5fac:	bf 90       	pop	r11
    5fae:	af 90       	pop	r10
    5fb0:	9f 90       	pop	r9
    5fb2:	8f 90       	pop	r8
    5fb4:	7f 90       	pop	r7
    5fb6:	6f 90       	pop	r6
    5fb8:	08 95       	ret

00005fba <_ZN6WindowC1Ev>:
 * Window implementation
 * 
 * This class draws the window (middle section of the screen) representing synthesis parameters
 */

Window::Window() {
    5fba:	fc 01       	movw	r30, r24
    5fbc:	10 82       	st	Z, r1
    5fbe:	11 82       	std	Z+1, r1	; 0x01
    5fc0:	80 e0       	ldi	r24, 0x00	; 0
    5fc2:	90 e0       	ldi	r25, 0x00	; 0
    5fc4:	ac e5       	ldi	r26, 0x5C	; 92
    5fc6:	b3 e4       	ldi	r27, 0x43	; 67
    5fc8:	82 83       	std	Z+2, r24	; 0x02
    5fca:	93 83       	std	Z+3, r25	; 0x03
    5fcc:	a4 83       	std	Z+4, r26	; 0x04
    5fce:	b5 83       	std	Z+5, r27	; 0x05
    5fd0:	16 82       	std	Z+6, r1	; 0x06
    5fd2:	80 e0       	ldi	r24, 0x00	; 0
    5fd4:	90 e0       	ldi	r25, 0x00	; 0
    5fd6:	a0 e8       	ldi	r26, 0x80	; 128
    5fd8:	b0 e4       	ldi	r27, 0x40	; 64
    5fda:	87 83       	std	Z+7, r24	; 0x07
    5fdc:	90 87       	std	Z+8, r25	; 0x08
    5fde:	a1 87       	std	Z+9, r26	; 0x09
    5fe0:	b2 87       	std	Z+10, r27	; 0x0a
    5fe2:	13 86       	std	Z+11, r1	; 0x0b
    5fe4:	80 e0       	ldi	r24, 0x00	; 0
    5fe6:	90 e8       	ldi	r25, 0x80	; 128
    5fe8:	ab e3       	ldi	r26, 0x3B	; 59
    5fea:	b6 e4       	ldi	r27, 0x46	; 70
    5fec:	84 87       	std	Z+12, r24	; 0x0c
    5fee:	95 87       	std	Z+13, r25	; 0x0d
    5ff0:	a6 87       	std	Z+14, r26	; 0x0e
    5ff2:	b7 87       	std	Z+15, r27	; 0x0f
    5ff4:	88 e2       	ldi	r24, 0x28	; 40
    5ff6:	80 8b       	std	Z+16, r24	; 0x10
    5ff8:	11 8a       	std	Z+17, r1	; 0x11
    5ffa:	12 8a       	std	Z+18, r1	; 0x12
    5ffc:	13 8a       	std	Z+19, r1	; 0x13
    5ffe:	14 8a       	std	Z+20, r1	; 0x14
    6000:	15 8a       	std	Z+21, r1	; 0x15
    6002:	80 e0       	ldi	r24, 0x00	; 0
    6004:	90 e0       	ldi	r25, 0x00	; 0
    6006:	a8 e4       	ldi	r26, 0x48	; 72
    6008:	b3 e4       	ldi	r27, 0x43	; 67
    600a:	86 8b       	std	Z+22, r24	; 0x16
    600c:	97 8b       	std	Z+23, r25	; 0x17
    600e:	a0 8f       	std	Z+24, r26	; 0x18
    6010:	b1 8f       	std	Z+25, r27	; 0x19
    6012:	84 eb       	ldi	r24, 0xB4	; 180
    6014:	82 8f       	std	Z+26, r24	; 0x1a
    6016:	80 e0       	ldi	r24, 0x00	; 0
    6018:	90 e0       	ldi	r25, 0x00	; 0
    601a:	aa e7       	ldi	r26, 0x7A	; 122
    601c:	b3 e4       	ldi	r27, 0x43	; 67
    601e:	83 8f       	std	Z+27, r24	; 0x1b
    6020:	94 8f       	std	Z+28, r25	; 0x1c
    6022:	a5 8f       	std	Z+29, r26	; 0x1d
    6024:	b6 8f       	std	Z+30, r27	; 0x1e
    6026:	17 8e       	std	Z+31, r1	; 0x1f
    6028:	10 a2       	std	Z+32, r1	; 0x20
    602a:	11 a2       	std	Z+33, r1	; 0x21
    602c:	12 a2       	std	Z+34, r1	; 0x22
    602e:	13 a2       	std	Z+35, r1	; 0x23
    6030:	8f ef       	ldi	r24, 0xFF	; 255
    6032:	84 a3       	std	Z+36, r24	; 0x24
    6034:	15 a2       	std	Z+37, r1	; 0x25
    6036:	16 a2       	std	Z+38, r1	; 0x26
    6038:	08 95       	ret

0000603a <__subsf3>:
    603a:	50 58       	subi	r21, 0x80	; 128

0000603c <__addsf3>:
    603c:	bb 27       	eor	r27, r27
    603e:	aa 27       	eor	r26, r26
    6040:	0e d0       	rcall	.+28     	; 0x605e <__addsf3x>
    6042:	9f c0       	rjmp	.+318    	; 0x6182 <__fp_round>
    6044:	90 d0       	rcall	.+288    	; 0x6166 <__fp_pscA>
    6046:	30 f0       	brcs	.+12     	; 0x6054 <__addsf3+0x18>
    6048:	95 d0       	rcall	.+298    	; 0x6174 <__fp_pscB>
    604a:	20 f0       	brcs	.+8      	; 0x6054 <__addsf3+0x18>
    604c:	31 f4       	brne	.+12     	; 0x605a <__addsf3+0x1e>
    604e:	9f 3f       	cpi	r25, 0xFF	; 255
    6050:	11 f4       	brne	.+4      	; 0x6056 <__addsf3+0x1a>
    6052:	1e f4       	brtc	.+6      	; 0x605a <__addsf3+0x1e>
    6054:	85 c0       	rjmp	.+266    	; 0x6160 <__fp_nan>
    6056:	0e f4       	brtc	.+2      	; 0x605a <__addsf3+0x1e>
    6058:	e0 95       	com	r30
    605a:	e7 fb       	bst	r30, 7
    605c:	7b c0       	rjmp	.+246    	; 0x6154 <__fp_inf>

0000605e <__addsf3x>:
    605e:	e9 2f       	mov	r30, r25
    6060:	a1 d0       	rcall	.+322    	; 0x61a4 <__fp_split3>
    6062:	80 f3       	brcs	.-32     	; 0x6044 <__addsf3+0x8>
    6064:	ba 17       	cp	r27, r26
    6066:	62 07       	cpc	r22, r18
    6068:	73 07       	cpc	r23, r19
    606a:	84 07       	cpc	r24, r20
    606c:	95 07       	cpc	r25, r21
    606e:	18 f0       	brcs	.+6      	; 0x6076 <__addsf3x+0x18>
    6070:	71 f4       	brne	.+28     	; 0x608e <__addsf3x+0x30>
    6072:	9e f5       	brtc	.+102    	; 0x60da <__addsf3x+0x7c>
    6074:	b9 c0       	rjmp	.+370    	; 0x61e8 <__fp_zero>
    6076:	0e f4       	brtc	.+2      	; 0x607a <__addsf3x+0x1c>
    6078:	e0 95       	com	r30
    607a:	0b 2e       	mov	r0, r27
    607c:	ba 2f       	mov	r27, r26
    607e:	a0 2d       	mov	r26, r0
    6080:	0b 01       	movw	r0, r22
    6082:	b9 01       	movw	r22, r18
    6084:	90 01       	movw	r18, r0
    6086:	0c 01       	movw	r0, r24
    6088:	ca 01       	movw	r24, r20
    608a:	a0 01       	movw	r20, r0
    608c:	11 24       	eor	r1, r1
    608e:	ff 27       	eor	r31, r31
    6090:	59 1b       	sub	r21, r25
    6092:	99 f0       	breq	.+38     	; 0x60ba <__addsf3x+0x5c>
    6094:	59 3f       	cpi	r21, 0xF9	; 249
    6096:	50 f4       	brcc	.+20     	; 0x60ac <__addsf3x+0x4e>
    6098:	50 3e       	cpi	r21, 0xE0	; 224
    609a:	68 f1       	brcs	.+90     	; 0x60f6 <__addsf3x+0x98>
    609c:	1a 16       	cp	r1, r26
    609e:	f0 40       	sbci	r31, 0x00	; 0
    60a0:	a2 2f       	mov	r26, r18
    60a2:	23 2f       	mov	r18, r19
    60a4:	34 2f       	mov	r19, r20
    60a6:	44 27       	eor	r20, r20
    60a8:	58 5f       	subi	r21, 0xF8	; 248
    60aa:	f3 cf       	rjmp	.-26     	; 0x6092 <__addsf3x+0x34>
    60ac:	46 95       	lsr	r20
    60ae:	37 95       	ror	r19
    60b0:	27 95       	ror	r18
    60b2:	a7 95       	ror	r26
    60b4:	f0 40       	sbci	r31, 0x00	; 0
    60b6:	53 95       	inc	r21
    60b8:	c9 f7       	brne	.-14     	; 0x60ac <__addsf3x+0x4e>
    60ba:	7e f4       	brtc	.+30     	; 0x60da <__addsf3x+0x7c>
    60bc:	1f 16       	cp	r1, r31
    60be:	ba 0b       	sbc	r27, r26
    60c0:	62 0b       	sbc	r22, r18
    60c2:	73 0b       	sbc	r23, r19
    60c4:	84 0b       	sbc	r24, r20
    60c6:	ba f0       	brmi	.+46     	; 0x60f6 <__addsf3x+0x98>
    60c8:	91 50       	subi	r25, 0x01	; 1
    60ca:	a1 f0       	breq	.+40     	; 0x60f4 <__addsf3x+0x96>
    60cc:	ff 0f       	add	r31, r31
    60ce:	bb 1f       	adc	r27, r27
    60d0:	66 1f       	adc	r22, r22
    60d2:	77 1f       	adc	r23, r23
    60d4:	88 1f       	adc	r24, r24
    60d6:	c2 f7       	brpl	.-16     	; 0x60c8 <__addsf3x+0x6a>
    60d8:	0e c0       	rjmp	.+28     	; 0x60f6 <__addsf3x+0x98>
    60da:	ba 0f       	add	r27, r26
    60dc:	62 1f       	adc	r22, r18
    60de:	73 1f       	adc	r23, r19
    60e0:	84 1f       	adc	r24, r20
    60e2:	48 f4       	brcc	.+18     	; 0x60f6 <__addsf3x+0x98>
    60e4:	87 95       	ror	r24
    60e6:	77 95       	ror	r23
    60e8:	67 95       	ror	r22
    60ea:	b7 95       	ror	r27
    60ec:	f7 95       	ror	r31
    60ee:	9e 3f       	cpi	r25, 0xFE	; 254
    60f0:	08 f0       	brcs	.+2      	; 0x60f4 <__addsf3x+0x96>
    60f2:	b3 cf       	rjmp	.-154    	; 0x605a <__addsf3+0x1e>
    60f4:	93 95       	inc	r25
    60f6:	88 0f       	add	r24, r24
    60f8:	08 f0       	brcs	.+2      	; 0x60fc <__addsf3x+0x9e>
    60fa:	99 27       	eor	r25, r25
    60fc:	ee 0f       	add	r30, r30
    60fe:	97 95       	ror	r25
    6100:	87 95       	ror	r24
    6102:	08 95       	ret

00006104 <__cmpsf2>:
    6104:	03 d0       	rcall	.+6      	; 0x610c <__fp_cmp>
    6106:	08 f4       	brcc	.+2      	; 0x610a <__cmpsf2+0x6>
    6108:	81 e0       	ldi	r24, 0x01	; 1
    610a:	08 95       	ret

0000610c <__fp_cmp>:
    610c:	99 0f       	add	r25, r25
    610e:	00 08       	sbc	r0, r0
    6110:	55 0f       	add	r21, r21
    6112:	aa 0b       	sbc	r26, r26
    6114:	e0 e8       	ldi	r30, 0x80	; 128
    6116:	fe ef       	ldi	r31, 0xFE	; 254
    6118:	16 16       	cp	r1, r22
    611a:	17 06       	cpc	r1, r23
    611c:	e8 07       	cpc	r30, r24
    611e:	f9 07       	cpc	r31, r25
    6120:	c0 f0       	brcs	.+48     	; 0x6152 <__fp_cmp+0x46>
    6122:	12 16       	cp	r1, r18
    6124:	13 06       	cpc	r1, r19
    6126:	e4 07       	cpc	r30, r20
    6128:	f5 07       	cpc	r31, r21
    612a:	98 f0       	brcs	.+38     	; 0x6152 <__fp_cmp+0x46>
    612c:	62 1b       	sub	r22, r18
    612e:	73 0b       	sbc	r23, r19
    6130:	84 0b       	sbc	r24, r20
    6132:	95 0b       	sbc	r25, r21
    6134:	39 f4       	brne	.+14     	; 0x6144 <__fp_cmp+0x38>
    6136:	0a 26       	eor	r0, r26
    6138:	61 f0       	breq	.+24     	; 0x6152 <__fp_cmp+0x46>
    613a:	23 2b       	or	r18, r19
    613c:	24 2b       	or	r18, r20
    613e:	25 2b       	or	r18, r21
    6140:	21 f4       	brne	.+8      	; 0x614a <__fp_cmp+0x3e>
    6142:	08 95       	ret
    6144:	0a 26       	eor	r0, r26
    6146:	09 f4       	brne	.+2      	; 0x614a <__fp_cmp+0x3e>
    6148:	a1 40       	sbci	r26, 0x01	; 1
    614a:	a6 95       	lsr	r26
    614c:	8f ef       	ldi	r24, 0xFF	; 255
    614e:	81 1d       	adc	r24, r1
    6150:	81 1d       	adc	r24, r1
    6152:	08 95       	ret

00006154 <__fp_inf>:
    6154:	97 f9       	bld	r25, 7
    6156:	9f 67       	ori	r25, 0x7F	; 127
    6158:	80 e8       	ldi	r24, 0x80	; 128
    615a:	70 e0       	ldi	r23, 0x00	; 0
    615c:	60 e0       	ldi	r22, 0x00	; 0
    615e:	08 95       	ret

00006160 <__fp_nan>:
    6160:	9f ef       	ldi	r25, 0xFF	; 255
    6162:	80 ec       	ldi	r24, 0xC0	; 192
    6164:	08 95       	ret

00006166 <__fp_pscA>:
    6166:	00 24       	eor	r0, r0
    6168:	0a 94       	dec	r0
    616a:	16 16       	cp	r1, r22
    616c:	17 06       	cpc	r1, r23
    616e:	18 06       	cpc	r1, r24
    6170:	09 06       	cpc	r0, r25
    6172:	08 95       	ret

00006174 <__fp_pscB>:
    6174:	00 24       	eor	r0, r0
    6176:	0a 94       	dec	r0
    6178:	12 16       	cp	r1, r18
    617a:	13 06       	cpc	r1, r19
    617c:	14 06       	cpc	r1, r20
    617e:	05 06       	cpc	r0, r21
    6180:	08 95       	ret

00006182 <__fp_round>:
    6182:	09 2e       	mov	r0, r25
    6184:	03 94       	inc	r0
    6186:	00 0c       	add	r0, r0
    6188:	11 f4       	brne	.+4      	; 0x618e <__fp_round+0xc>
    618a:	88 23       	and	r24, r24
    618c:	52 f0       	brmi	.+20     	; 0x61a2 <__fp_round+0x20>
    618e:	bb 0f       	add	r27, r27
    6190:	40 f4       	brcc	.+16     	; 0x61a2 <__fp_round+0x20>
    6192:	bf 2b       	or	r27, r31
    6194:	11 f4       	brne	.+4      	; 0x619a <__fp_round+0x18>
    6196:	60 ff       	sbrs	r22, 0
    6198:	04 c0       	rjmp	.+8      	; 0x61a2 <__fp_round+0x20>
    619a:	6f 5f       	subi	r22, 0xFF	; 255
    619c:	7f 4f       	sbci	r23, 0xFF	; 255
    619e:	8f 4f       	sbci	r24, 0xFF	; 255
    61a0:	9f 4f       	sbci	r25, 0xFF	; 255
    61a2:	08 95       	ret

000061a4 <__fp_split3>:
    61a4:	57 fd       	sbrc	r21, 7
    61a6:	90 58       	subi	r25, 0x80	; 128
    61a8:	44 0f       	add	r20, r20
    61aa:	55 1f       	adc	r21, r21
    61ac:	59 f0       	breq	.+22     	; 0x61c4 <__fp_splitA+0x10>
    61ae:	5f 3f       	cpi	r21, 0xFF	; 255
    61b0:	71 f0       	breq	.+28     	; 0x61ce <__fp_splitA+0x1a>
    61b2:	47 95       	ror	r20

000061b4 <__fp_splitA>:
    61b4:	88 0f       	add	r24, r24
    61b6:	97 fb       	bst	r25, 7
    61b8:	99 1f       	adc	r25, r25
    61ba:	61 f0       	breq	.+24     	; 0x61d4 <__fp_splitA+0x20>
    61bc:	9f 3f       	cpi	r25, 0xFF	; 255
    61be:	79 f0       	breq	.+30     	; 0x61de <__fp_splitA+0x2a>
    61c0:	87 95       	ror	r24
    61c2:	08 95       	ret
    61c4:	12 16       	cp	r1, r18
    61c6:	13 06       	cpc	r1, r19
    61c8:	14 06       	cpc	r1, r20
    61ca:	55 1f       	adc	r21, r21
    61cc:	f2 cf       	rjmp	.-28     	; 0x61b2 <__fp_split3+0xe>
    61ce:	46 95       	lsr	r20
    61d0:	f1 df       	rcall	.-30     	; 0x61b4 <__fp_splitA>
    61d2:	08 c0       	rjmp	.+16     	; 0x61e4 <__fp_splitA+0x30>
    61d4:	16 16       	cp	r1, r22
    61d6:	17 06       	cpc	r1, r23
    61d8:	18 06       	cpc	r1, r24
    61da:	99 1f       	adc	r25, r25
    61dc:	f1 cf       	rjmp	.-30     	; 0x61c0 <__fp_splitA+0xc>
    61de:	86 95       	lsr	r24
    61e0:	71 05       	cpc	r23, r1
    61e2:	61 05       	cpc	r22, r1
    61e4:	08 94       	sec
    61e6:	08 95       	ret

000061e8 <__fp_zero>:
    61e8:	e8 94       	clt

000061ea <__fp_szero>:
    61ea:	bb 27       	eor	r27, r27
    61ec:	66 27       	eor	r22, r22
    61ee:	77 27       	eor	r23, r23
    61f0:	cb 01       	movw	r24, r22
    61f2:	97 f9       	bld	r25, 7
    61f4:	08 95       	ret

000061f6 <__gesf2>:
    61f6:	8a df       	rcall	.-236    	; 0x610c <__fp_cmp>
    61f8:	08 f4       	brcc	.+2      	; 0x61fc <__gesf2+0x6>
    61fa:	8f ef       	ldi	r24, 0xFF	; 255
    61fc:	08 95       	ret

000061fe <__mulsf3>:
    61fe:	0b d0       	rcall	.+22     	; 0x6216 <__mulsf3x>
    6200:	c0 cf       	rjmp	.-128    	; 0x6182 <__fp_round>
    6202:	b1 df       	rcall	.-158    	; 0x6166 <__fp_pscA>
    6204:	28 f0       	brcs	.+10     	; 0x6210 <__mulsf3+0x12>
    6206:	b6 df       	rcall	.-148    	; 0x6174 <__fp_pscB>
    6208:	18 f0       	brcs	.+6      	; 0x6210 <__mulsf3+0x12>
    620a:	95 23       	and	r25, r21
    620c:	09 f0       	breq	.+2      	; 0x6210 <__mulsf3+0x12>
    620e:	a2 cf       	rjmp	.-188    	; 0x6154 <__fp_inf>
    6210:	a7 cf       	rjmp	.-178    	; 0x6160 <__fp_nan>
    6212:	11 24       	eor	r1, r1
    6214:	ea cf       	rjmp	.-44     	; 0x61ea <__fp_szero>

00006216 <__mulsf3x>:
    6216:	c6 df       	rcall	.-116    	; 0x61a4 <__fp_split3>
    6218:	a0 f3       	brcs	.-24     	; 0x6202 <__mulsf3+0x4>

0000621a <__mulsf3_pse>:
    621a:	95 9f       	mul	r25, r21
    621c:	d1 f3       	breq	.-12     	; 0x6212 <__mulsf3+0x14>
    621e:	95 0f       	add	r25, r21
    6220:	50 e0       	ldi	r21, 0x00	; 0
    6222:	55 1f       	adc	r21, r21
    6224:	62 9f       	mul	r22, r18
    6226:	f0 01       	movw	r30, r0
    6228:	72 9f       	mul	r23, r18
    622a:	bb 27       	eor	r27, r27
    622c:	f0 0d       	add	r31, r0
    622e:	b1 1d       	adc	r27, r1
    6230:	63 9f       	mul	r22, r19
    6232:	aa 27       	eor	r26, r26
    6234:	f0 0d       	add	r31, r0
    6236:	b1 1d       	adc	r27, r1
    6238:	aa 1f       	adc	r26, r26
    623a:	64 9f       	mul	r22, r20
    623c:	66 27       	eor	r22, r22
    623e:	b0 0d       	add	r27, r0
    6240:	a1 1d       	adc	r26, r1
    6242:	66 1f       	adc	r22, r22
    6244:	82 9f       	mul	r24, r18
    6246:	22 27       	eor	r18, r18
    6248:	b0 0d       	add	r27, r0
    624a:	a1 1d       	adc	r26, r1
    624c:	62 1f       	adc	r22, r18
    624e:	73 9f       	mul	r23, r19
    6250:	b0 0d       	add	r27, r0
    6252:	a1 1d       	adc	r26, r1
    6254:	62 1f       	adc	r22, r18
    6256:	83 9f       	mul	r24, r19
    6258:	a0 0d       	add	r26, r0
    625a:	61 1d       	adc	r22, r1
    625c:	22 1f       	adc	r18, r18
    625e:	74 9f       	mul	r23, r20
    6260:	33 27       	eor	r19, r19
    6262:	a0 0d       	add	r26, r0
    6264:	61 1d       	adc	r22, r1
    6266:	23 1f       	adc	r18, r19
    6268:	84 9f       	mul	r24, r20
    626a:	60 0d       	add	r22, r0
    626c:	21 1d       	adc	r18, r1
    626e:	82 2f       	mov	r24, r18
    6270:	76 2f       	mov	r23, r22
    6272:	6a 2f       	mov	r22, r26
    6274:	11 24       	eor	r1, r1
    6276:	9f 57       	subi	r25, 0x7F	; 127
    6278:	50 40       	sbci	r21, 0x00	; 0
    627a:	8a f0       	brmi	.+34     	; 0x629e <__mulsf3_pse+0x84>
    627c:	e1 f0       	breq	.+56     	; 0x62b6 <__mulsf3_pse+0x9c>
    627e:	88 23       	and	r24, r24
    6280:	4a f0       	brmi	.+18     	; 0x6294 <__mulsf3_pse+0x7a>
    6282:	ee 0f       	add	r30, r30
    6284:	ff 1f       	adc	r31, r31
    6286:	bb 1f       	adc	r27, r27
    6288:	66 1f       	adc	r22, r22
    628a:	77 1f       	adc	r23, r23
    628c:	88 1f       	adc	r24, r24
    628e:	91 50       	subi	r25, 0x01	; 1
    6290:	50 40       	sbci	r21, 0x00	; 0
    6292:	a9 f7       	brne	.-22     	; 0x627e <__mulsf3_pse+0x64>
    6294:	9e 3f       	cpi	r25, 0xFE	; 254
    6296:	51 05       	cpc	r21, r1
    6298:	70 f0       	brcs	.+28     	; 0x62b6 <__mulsf3_pse+0x9c>
    629a:	5c cf       	rjmp	.-328    	; 0x6154 <__fp_inf>
    629c:	a6 cf       	rjmp	.-180    	; 0x61ea <__fp_szero>
    629e:	5f 3f       	cpi	r21, 0xFF	; 255
    62a0:	ec f3       	brlt	.-6      	; 0x629c <__mulsf3_pse+0x82>
    62a2:	98 3e       	cpi	r25, 0xE8	; 232
    62a4:	dc f3       	brlt	.-10     	; 0x629c <__mulsf3_pse+0x82>
    62a6:	86 95       	lsr	r24
    62a8:	77 95       	ror	r23
    62aa:	67 95       	ror	r22
    62ac:	b7 95       	ror	r27
    62ae:	f7 95       	ror	r31
    62b0:	e7 95       	ror	r30
    62b2:	9f 5f       	subi	r25, 0xFF	; 255
    62b4:	c1 f7       	brne	.-16     	; 0x62a6 <__mulsf3_pse+0x8c>
    62b6:	fe 2b       	or	r31, r30
    62b8:	88 0f       	add	r24, r24
    62ba:	91 1d       	adc	r25, r1
    62bc:	96 95       	lsr	r25
    62be:	87 95       	ror	r24
    62c0:	97 f9       	bld	r25, 7
    62c2:	08 95       	ret

000062c4 <_ZN14HardwareSerial9availableEv>:
  // clear any received data
  _rx_buffer_head = _rx_buffer_tail;
}

int HardwareSerial::available(void)
{
    62c4:	fc 01       	movw	r30, r24
  return ((unsigned int)(SERIAL_RX_BUFFER_SIZE + _rx_buffer_head - _rx_buffer_tail)) % SERIAL_RX_BUFFER_SIZE;
    62c6:	91 8d       	ldd	r25, Z+25	; 0x19
    62c8:	22 8d       	ldd	r18, Z+26	; 0x1a
    62ca:	89 2f       	mov	r24, r25
    62cc:	90 e0       	ldi	r25, 0x00	; 0
    62ce:	80 5c       	subi	r24, 0xC0	; 192
    62d0:	9f 4f       	sbci	r25, 0xFF	; 255
    62d2:	82 1b       	sub	r24, r18
    62d4:	91 09       	sbc	r25, r1
}
    62d6:	8f 73       	andi	r24, 0x3F	; 63
    62d8:	99 27       	eor	r25, r25
    62da:	08 95       	ret

000062dc <_ZN14HardwareSerial4peekEv>:

int HardwareSerial::peek(void)
{
    62dc:	fc 01       	movw	r30, r24
  if (_rx_buffer_head == _rx_buffer_tail) {
    62de:	91 8d       	ldd	r25, Z+25	; 0x19
    62e0:	82 8d       	ldd	r24, Z+26	; 0x1a
    62e2:	98 17       	cp	r25, r24
    62e4:	31 f0       	breq	.+12     	; 0x62f2 <_ZN14HardwareSerial4peekEv+0x16>
    return -1;
  } else {
    return _rx_buffer[_rx_buffer_tail];
    62e6:	82 8d       	ldd	r24, Z+26	; 0x1a
    62e8:	e8 0f       	add	r30, r24
    62ea:	f1 1d       	adc	r31, r1
    62ec:	85 8d       	ldd	r24, Z+29	; 0x1d
    62ee:	90 e0       	ldi	r25, 0x00	; 0
    62f0:	08 95       	ret
}

int HardwareSerial::peek(void)
{
  if (_rx_buffer_head == _rx_buffer_tail) {
    return -1;
    62f2:	8f ef       	ldi	r24, 0xFF	; 255
    62f4:	9f ef       	ldi	r25, 0xFF	; 255
  } else {
    return _rx_buffer[_rx_buffer_tail];
  }
}
    62f6:	08 95       	ret

000062f8 <_ZN14HardwareSerial4readEv>:

int HardwareSerial::read(void)
{
    62f8:	fc 01       	movw	r30, r24
  // if the head isn't ahead of the tail, we don't have any characters
  if (_rx_buffer_head == _rx_buffer_tail) {
    62fa:	91 8d       	ldd	r25, Z+25	; 0x19
    62fc:	82 8d       	ldd	r24, Z+26	; 0x1a
    62fe:	98 17       	cp	r25, r24
    6300:	61 f0       	breq	.+24     	; 0x631a <_ZN14HardwareSerial4readEv+0x22>
    return -1;
  } else {
    unsigned char c = _rx_buffer[_rx_buffer_tail];
    6302:	82 8d       	ldd	r24, Z+26	; 0x1a
    6304:	df 01       	movw	r26, r30
    6306:	a8 0f       	add	r26, r24
    6308:	b1 1d       	adc	r27, r1
    630a:	5d 96       	adiw	r26, 0x1d	; 29
    630c:	8c 91       	ld	r24, X
    _rx_buffer_tail = (rx_buffer_index_t)(_rx_buffer_tail + 1) % SERIAL_RX_BUFFER_SIZE;
    630e:	92 8d       	ldd	r25, Z+26	; 0x1a
    6310:	9f 5f       	subi	r25, 0xFF	; 255
    6312:	9f 73       	andi	r25, 0x3F	; 63
    6314:	92 8f       	std	Z+26, r25	; 0x1a
    return c;
    6316:	90 e0       	ldi	r25, 0x00	; 0
    6318:	08 95       	ret

int HardwareSerial::read(void)
{
  // if the head isn't ahead of the tail, we don't have any characters
  if (_rx_buffer_head == _rx_buffer_tail) {
    return -1;
    631a:	8f ef       	ldi	r24, 0xFF	; 255
    631c:	9f ef       	ldi	r25, 0xFF	; 255
  } else {
    unsigned char c = _rx_buffer[_rx_buffer_tail];
    _rx_buffer_tail = (rx_buffer_index_t)(_rx_buffer_tail + 1) % SERIAL_RX_BUFFER_SIZE;
    return c;
  }
}
    631e:	08 95       	ret

00006320 <_Z14serialEventRunv>:
#endif

void serialEventRun(void)
{
#if defined(HAVE_HWSERIAL0)
  if (Serial0_available && serialEvent && Serial0_available()) serialEvent();
    6320:	86 e1       	ldi	r24, 0x16	; 22
    6322:	93 e3       	ldi	r25, 0x33	; 51
    6324:	89 2b       	or	r24, r25
    6326:	39 f0       	breq	.+14     	; 0x6336 <_Z14serialEventRunv+0x16>
    6328:	80 e0       	ldi	r24, 0x00	; 0
    632a:	90 e0       	ldi	r25, 0x00	; 0
    632c:	89 2b       	or	r24, r25
    632e:	19 f0       	breq	.+6      	; 0x6336 <_Z14serialEventRunv+0x16>
    6330:	7d d1       	rcall	.+762    	; 0x662c <_Z17Serial0_availablev>
    6332:	81 11       	cpse	r24, r1
    6334:	25 c0       	rjmp	.+74     	; 0x6380 <_Z14serialEventRunv+0x60>
#endif
#if defined(HAVE_HWSERIAL1)
  if (Serial1_available && serialEvent1 && Serial1_available()) serialEvent1();
    6336:	80 e0       	ldi	r24, 0x00	; 0
    6338:	90 e0       	ldi	r25, 0x00	; 0
    633a:	89 2b       	or	r24, r25
    633c:	41 f0       	breq	.+16     	; 0x634e <_Z14serialEventRunv+0x2e>
    633e:	80 e0       	ldi	r24, 0x00	; 0
    6340:	90 e0       	ldi	r25, 0x00	; 0
    6342:	89 2b       	or	r24, r25
    6344:	21 f0       	breq	.+8      	; 0x634e <_Z14serialEventRunv+0x2e>
    6346:	0e 94 00 00 	call	0	; 0x0 <__vectors>
    634a:	81 11       	cpse	r24, r1
    634c:	1c c0       	rjmp	.+56     	; 0x6386 <_Z14serialEventRunv+0x66>
#endif
#if defined(HAVE_HWSERIAL2)
  if (Serial2_available && serialEvent2 && Serial2_available()) serialEvent2();
    634e:	80 e0       	ldi	r24, 0x00	; 0
    6350:	90 e0       	ldi	r25, 0x00	; 0
    6352:	89 2b       	or	r24, r25
    6354:	41 f0       	breq	.+16     	; 0x6366 <_Z14serialEventRunv+0x46>
    6356:	80 e0       	ldi	r24, 0x00	; 0
    6358:	90 e0       	ldi	r25, 0x00	; 0
    635a:	89 2b       	or	r24, r25
    635c:	21 f0       	breq	.+8      	; 0x6366 <_Z14serialEventRunv+0x46>
    635e:	0e 94 00 00 	call	0	; 0x0 <__vectors>
    6362:	81 11       	cpse	r24, r1
    6364:	13 c0       	rjmp	.+38     	; 0x638c <_Z14serialEventRunv+0x6c>
#endif
#if defined(HAVE_HWSERIAL3)
  if (Serial3_available && serialEvent3 && Serial3_available()) serialEvent3();
    6366:	80 e0       	ldi	r24, 0x00	; 0
    6368:	90 e0       	ldi	r25, 0x00	; 0
    636a:	89 2b       	or	r24, r25
    636c:	a1 f0       	breq	.+40     	; 0x6396 <_Z14serialEventRunv+0x76>
    636e:	80 e0       	ldi	r24, 0x00	; 0
    6370:	90 e0       	ldi	r25, 0x00	; 0
    6372:	89 2b       	or	r24, r25
    6374:	81 f0       	breq	.+32     	; 0x6396 <_Z14serialEventRunv+0x76>
    6376:	0e 94 00 00 	call	0	; 0x0 <__vectors>
    637a:	81 11       	cpse	r24, r1
    637c:	0a c0       	rjmp	.+20     	; 0x6392 <_Z14serialEventRunv+0x72>
    637e:	08 95       	ret
#endif

void serialEventRun(void)
{
#if defined(HAVE_HWSERIAL0)
  if (Serial0_available && serialEvent && Serial0_available()) serialEvent();
    6380:	0e 94 00 00 	call	0	; 0x0 <__vectors>
    6384:	d8 cf       	rjmp	.-80     	; 0x6336 <_Z14serialEventRunv+0x16>
#endif
#if defined(HAVE_HWSERIAL1)
  if (Serial1_available && serialEvent1 && Serial1_available()) serialEvent1();
    6386:	0e 94 00 00 	call	0	; 0x0 <__vectors>
    638a:	e1 cf       	rjmp	.-62     	; 0x634e <_Z14serialEventRunv+0x2e>
#endif
#if defined(HAVE_HWSERIAL2)
  if (Serial2_available && serialEvent2 && Serial2_available()) serialEvent2();
    638c:	0e 94 00 00 	call	0	; 0x0 <__vectors>
    6390:	ea cf       	rjmp	.-44     	; 0x6366 <_Z14serialEventRunv+0x46>
#endif
#if defined(HAVE_HWSERIAL3)
  if (Serial3_available && serialEvent3 && Serial3_available()) serialEvent3();
    6392:	0c 94 00 00 	jmp	0	; 0x0 <__vectors>
    6396:	08 95       	ret

00006398 <_ZN14HardwareSerial17_tx_udr_empty_irqEv>:
}

// Actual interrupt handlers //////////////////////////////////////////////////////////////

void HardwareSerial::_tx_udr_empty_irq(void)
{
    6398:	fc 01       	movw	r30, r24
  // If interrupts are enabled, there must be more data in the output
  // buffer. Send the next byte
  unsigned char c = _tx_buffer[_tx_buffer_tail];
    639a:	84 8d       	ldd	r24, Z+28	; 0x1c
    639c:	df 01       	movw	r26, r30
    639e:	a8 0f       	add	r26, r24
    63a0:	b1 1d       	adc	r27, r1
    63a2:	a3 5a       	subi	r26, 0xA3	; 163
    63a4:	bf 4f       	sbci	r27, 0xFF	; 255
    63a6:	2c 91       	ld	r18, X
  _tx_buffer_tail = (_tx_buffer_tail + 1) % SERIAL_TX_BUFFER_SIZE;
    63a8:	84 8d       	ldd	r24, Z+28	; 0x1c
    63aa:	90 e0       	ldi	r25, 0x00	; 0
    63ac:	01 96       	adiw	r24, 0x01	; 1
    63ae:	8f 73       	andi	r24, 0x3F	; 63
    63b0:	99 27       	eor	r25, r25
    63b2:	84 8f       	std	Z+28, r24	; 0x1c

  *_udr = c;
    63b4:	a6 89       	ldd	r26, Z+22	; 0x16
    63b6:	b7 89       	ldd	r27, Z+23	; 0x17
    63b8:	2c 93       	st	X, r18

  // clear the TXC bit -- "can be cleared by writing a one to its bit
  // location". This makes sure flush() won't return until the bytes
  // actually got written
  sbi(*_ucsra, TXC0);
    63ba:	a0 89       	ldd	r26, Z+16	; 0x10
    63bc:	b1 89       	ldd	r27, Z+17	; 0x11
    63be:	8c 91       	ld	r24, X
    63c0:	80 64       	ori	r24, 0x40	; 64
    63c2:	8c 93       	st	X, r24

  if (_tx_buffer_head == _tx_buffer_tail) {
    63c4:	93 8d       	ldd	r25, Z+27	; 0x1b
    63c6:	84 8d       	ldd	r24, Z+28	; 0x1c
    63c8:	98 13       	cpse	r25, r24
    63ca:	06 c0       	rjmp	.+12     	; 0x63d8 <_ZN14HardwareSerial17_tx_udr_empty_irqEv+0x40>
    // Buffer empty, so disable interrupts
    cbi(*_ucsrb, UDRIE0);
    63cc:	02 88       	ldd	r0, Z+18	; 0x12
    63ce:	f3 89       	ldd	r31, Z+19	; 0x13
    63d0:	e0 2d       	mov	r30, r0
    63d2:	80 81       	ld	r24, Z
    63d4:	8f 7d       	andi	r24, 0xDF	; 223
    63d6:	80 83       	st	Z, r24
    63d8:	08 95       	ret

000063da <_ZN14HardwareSerial5writeEh>:
  // If we get here, nothing is queued anymore (DRIE is disabled) and
  // the hardware finished tranmission (TXC is set).
}

size_t HardwareSerial::write(uint8_t c)
{
    63da:	ef 92       	push	r14
    63dc:	ff 92       	push	r15
    63de:	0f 93       	push	r16
    63e0:	1f 93       	push	r17
    63e2:	cf 93       	push	r28
    63e4:	df 93       	push	r29
    63e6:	ec 01       	movw	r28, r24
  _written = true;
    63e8:	81 e0       	ldi	r24, 0x01	; 1
    63ea:	88 8f       	std	Y+24, r24	; 0x18
  // If the buffer and the data register is empty, just write the byte
  // to the data register and be done. This shortcut helps
  // significantly improve the effective datarate at high (>
  // 500kbit/s) bitrates, where interrupt overhead becomes a slowdown.
  if (_tx_buffer_head == _tx_buffer_tail && bit_is_set(*_ucsra, UDRE0)) {
    63ec:	9b 8d       	ldd	r25, Y+27	; 0x1b
    63ee:	8c 8d       	ldd	r24, Y+28	; 0x1c
    63f0:	98 13       	cpse	r25, r24
    63f2:	05 c0       	rjmp	.+10     	; 0x63fe <_ZN14HardwareSerial5writeEh+0x24>
    63f4:	e8 89       	ldd	r30, Y+16	; 0x10
    63f6:	f9 89       	ldd	r31, Y+17	; 0x11
    63f8:	80 81       	ld	r24, Z
    63fa:	85 fd       	sbrc	r24, 5
    63fc:	23 c0       	rjmp	.+70     	; 0x6444 <_ZN14HardwareSerial5writeEh+0x6a>
    63fe:	f6 2e       	mov	r15, r22
    *_udr = c;
    sbi(*_ucsra, TXC0);
    return 1;
  }
  tx_buffer_index_t i = (_tx_buffer_head + 1) % SERIAL_TX_BUFFER_SIZE;
    6400:	0b 8d       	ldd	r16, Y+27	; 0x1b
    6402:	10 e0       	ldi	r17, 0x00	; 0
    6404:	0f 5f       	subi	r16, 0xFF	; 255
    6406:	1f 4f       	sbci	r17, 0xFF	; 255
    6408:	0f 73       	andi	r16, 0x3F	; 63
    640a:	11 27       	eor	r17, r17
    640c:	e0 2e       	mov	r14, r16
	
  // If the output buffer is full, there's nothing for it other than to 
  // wait for the interrupt handler to empty it a bit
  while (i == _tx_buffer_tail) {
    640e:	8c 8d       	ldd	r24, Y+28	; 0x1c
    6410:	e8 12       	cpse	r14, r24
    6412:	0b c0       	rjmp	.+22     	; 0x642a <_ZN14HardwareSerial5writeEh+0x50>
    if (bit_is_clear(SREG, SREG_I)) {
    6414:	0f b6       	in	r0, 0x3f	; 63
    6416:	07 fc       	sbrc	r0, 7
    6418:	fa cf       	rjmp	.-12     	; 0x640e <_ZN14HardwareSerial5writeEh+0x34>
      // Interrupts are disabled, so we'll have to poll the data
      // register empty flag ourselves. If it is set, pretend an
      // interrupt has happened and call the handler to free up
      // space for us.
      if(bit_is_set(*_ucsra, UDRE0))
    641a:	e8 89       	ldd	r30, Y+16	; 0x10
    641c:	f9 89       	ldd	r31, Y+17	; 0x11
    641e:	80 81       	ld	r24, Z
    6420:	85 ff       	sbrs	r24, 5
    6422:	f5 cf       	rjmp	.-22     	; 0x640e <_ZN14HardwareSerial5writeEh+0x34>
	_tx_udr_empty_irq();
    6424:	ce 01       	movw	r24, r28
    6426:	b8 df       	rcall	.-144    	; 0x6398 <_ZN14HardwareSerial17_tx_udr_empty_irqEv>
    6428:	f2 cf       	rjmp	.-28     	; 0x640e <_ZN14HardwareSerial5writeEh+0x34>
    } else {
      // nop, the interrupt handler will free up space for us
    }
  }

  _tx_buffer[_tx_buffer_head] = c;
    642a:	8b 8d       	ldd	r24, Y+27	; 0x1b
    642c:	fe 01       	movw	r30, r28
    642e:	e8 0f       	add	r30, r24
    6430:	f1 1d       	adc	r31, r1
    6432:	e3 5a       	subi	r30, 0xA3	; 163
    6434:	ff 4f       	sbci	r31, 0xFF	; 255
    6436:	f0 82       	st	Z, r15
  _tx_buffer_head = i;
    6438:	0b 8f       	std	Y+27, r16	; 0x1b
	
  sbi(*_ucsrb, UDRIE0);
    643a:	ea 89       	ldd	r30, Y+18	; 0x12
    643c:	fb 89       	ldd	r31, Y+19	; 0x13
    643e:	80 81       	ld	r24, Z
    6440:	80 62       	ori	r24, 0x20	; 32
    6442:	07 c0       	rjmp	.+14     	; 0x6452 <_ZN14HardwareSerial5writeEh+0x78>
  // If the buffer and the data register is empty, just write the byte
  // to the data register and be done. This shortcut helps
  // significantly improve the effective datarate at high (>
  // 500kbit/s) bitrates, where interrupt overhead becomes a slowdown.
  if (_tx_buffer_head == _tx_buffer_tail && bit_is_set(*_ucsra, UDRE0)) {
    *_udr = c;
    6444:	ee 89       	ldd	r30, Y+22	; 0x16
    6446:	ff 89       	ldd	r31, Y+23	; 0x17
    6448:	60 83       	st	Z, r22
    sbi(*_ucsra, TXC0);
    644a:	e8 89       	ldd	r30, Y+16	; 0x10
    644c:	f9 89       	ldd	r31, Y+17	; 0x11
    644e:	80 81       	ld	r24, Z
    6450:	80 64       	ori	r24, 0x40	; 64
    6452:	80 83       	st	Z, r24
  _tx_buffer_head = i;
	
  sbi(*_ucsrb, UDRIE0);
  
  return 1;
}
    6454:	81 e0       	ldi	r24, 0x01	; 1
    6456:	90 e0       	ldi	r25, 0x00	; 0
    6458:	df 91       	pop	r29
    645a:	cf 91       	pop	r28
    645c:	1f 91       	pop	r17
    645e:	0f 91       	pop	r16
    6460:	ff 90       	pop	r15
    6462:	ef 90       	pop	r14
    6464:	08 95       	ret

00006466 <_ZN14HardwareSerial5flushEv>:
  if (head >= tail) return SERIAL_TX_BUFFER_SIZE - 1 - head + tail;
  return tail - head - 1;
}

void HardwareSerial::flush()
{
    6466:	cf 93       	push	r28
    6468:	df 93       	push	r29
    646a:	ec 01       	movw	r28, r24
  // If we have never written a byte, no need to flush. This special
  // case is needed since there is no way to force the TXC (transmit
  // complete) bit to 1 during initialization
  if (!_written)
    646c:	88 8d       	ldd	r24, Y+24	; 0x18
    646e:	88 23       	and	r24, r24
    6470:	c1 f0       	breq	.+48     	; 0x64a2 <_ZN14HardwareSerial5flushEv+0x3c>
    return;

  while (bit_is_set(*_ucsrb, UDRIE0) || bit_is_clear(*_ucsra, TXC0)) {
    6472:	ea 89       	ldd	r30, Y+18	; 0x12
    6474:	fb 89       	ldd	r31, Y+19	; 0x13
    6476:	80 81       	ld	r24, Z
    6478:	85 fd       	sbrc	r24, 5
    647a:	05 c0       	rjmp	.+10     	; 0x6486 <_ZN14HardwareSerial5flushEv+0x20>
    647c:	a8 89       	ldd	r26, Y+16	; 0x10
    647e:	b9 89       	ldd	r27, Y+17	; 0x11
    6480:	8c 91       	ld	r24, X
    6482:	86 fd       	sbrc	r24, 6
    6484:	0e c0       	rjmp	.+28     	; 0x64a2 <_ZN14HardwareSerial5flushEv+0x3c>
    if (bit_is_clear(SREG, SREG_I) && bit_is_set(*_ucsrb, UDRIE0))
    6486:	0f b6       	in	r0, 0x3f	; 63
    6488:	07 fc       	sbrc	r0, 7
    648a:	f5 cf       	rjmp	.-22     	; 0x6476 <_ZN14HardwareSerial5flushEv+0x10>
    648c:	80 81       	ld	r24, Z
    648e:	85 ff       	sbrs	r24, 5
    6490:	f2 cf       	rjmp	.-28     	; 0x6476 <_ZN14HardwareSerial5flushEv+0x10>
	// Interrupts are globally disabled, but the DR empty
	// interrupt should be enabled, so poll the DR empty flag to
	// prevent deadlock
	if (bit_is_set(*_ucsra, UDRE0))
    6492:	a8 89       	ldd	r26, Y+16	; 0x10
    6494:	b9 89       	ldd	r27, Y+17	; 0x11
    6496:	8c 91       	ld	r24, X
    6498:	85 ff       	sbrs	r24, 5
    649a:	ed cf       	rjmp	.-38     	; 0x6476 <_ZN14HardwareSerial5flushEv+0x10>
	  _tx_udr_empty_irq();
    649c:	ce 01       	movw	r24, r28
    649e:	7c df       	rcall	.-264    	; 0x6398 <_ZN14HardwareSerial17_tx_udr_empty_irqEv>
    64a0:	e8 cf       	rjmp	.-48     	; 0x6472 <_ZN14HardwareSerial5flushEv+0xc>
  }
  // If we get here, nothing is queued anymore (DRIE is disabled) and
  // the hardware finished tranmission (TXC is set).
}
    64a2:	df 91       	pop	r29
    64a4:	cf 91       	pop	r28
    64a6:	08 95       	ret

000064a8 <_ZN14HardwareSerial5beginEmh>:
}

// Public Methods //////////////////////////////////////////////////////////////

void HardwareSerial::begin(unsigned long baud, byte config)
{
    64a8:	cf 92       	push	r12
    64aa:	df 92       	push	r13
    64ac:	ef 92       	push	r14
    64ae:	ff 92       	push	r15
    64b0:	1f 93       	push	r17
    64b2:	cf 93       	push	r28
    64b4:	df 93       	push	r29
    64b6:	ec 01       	movw	r28, r24
    64b8:	6a 01       	movw	r12, r20
    64ba:	7b 01       	movw	r14, r22
    64bc:	12 2f       	mov	r17, r18
  // Try u2x mode first
  uint16_t baud_setting = (F_CPU / 4 / baud - 1) / 2;
  *_ucsra = 1 << U2X0;
    64be:	e8 89       	ldd	r30, Y+16	; 0x10
    64c0:	f9 89       	ldd	r31, Y+17	; 0x11
    64c2:	82 e0       	ldi	r24, 0x02	; 2
    64c4:	80 83       	st	Z, r24
  // hardcoded exception for 57600 for compatibility with the bootloader
  // shipped with the Duemilanove and previous boards and the firmware
  // on the 8U2 on the Uno and Mega 2560. Also, The baud_setting cannot
  // be > 4095, so switch back to non-u2x mode if the baud rate is too
  // low.
  if (((F_CPU == 16000000UL) && (baud == 57600)) || (baud_setting >4095))
    64c6:	41 15       	cp	r20, r1
    64c8:	51 4e       	sbci	r21, 0xE1	; 225
    64ca:	61 05       	cpc	r22, r1
    64cc:	71 05       	cpc	r23, r1
    64ce:	a9 f0       	breq	.+42     	; 0x64fa <_ZN14HardwareSerial5beginEmh+0x52>
// Public Methods //////////////////////////////////////////////////////////////

void HardwareSerial::begin(unsigned long baud, byte config)
{
  // Try u2x mode first
  uint16_t baud_setting = (F_CPU / 4 / baud - 1) / 2;
    64d0:	60 e0       	ldi	r22, 0x00	; 0
    64d2:	79 e0       	ldi	r23, 0x09	; 9
    64d4:	8d e3       	ldi	r24, 0x3D	; 61
    64d6:	90 e0       	ldi	r25, 0x00	; 0
    64d8:	a7 01       	movw	r20, r14
    64da:	96 01       	movw	r18, r12
    64dc:	ea d5       	rcall	.+3028   	; 0x70b2 <__udivmodsi4>
    64de:	da 01       	movw	r26, r20
    64e0:	c9 01       	movw	r24, r18
    64e2:	01 97       	sbiw	r24, 0x01	; 1
    64e4:	a1 09       	sbc	r26, r1
    64e6:	b1 09       	sbc	r27, r1
    64e8:	b6 95       	lsr	r27
    64ea:	a7 95       	ror	r26
    64ec:	97 95       	ror	r25
    64ee:	87 95       	ror	r24
    64f0:	9c 01       	movw	r18, r24
  // hardcoded exception for 57600 for compatibility with the bootloader
  // shipped with the Duemilanove and previous boards and the firmware
  // on the 8U2 on the Uno and Mega 2560. Also, The baud_setting cannot
  // be > 4095, so switch back to non-u2x mode if the baud rate is too
  // low.
  if (((F_CPU == 16000000UL) && (baud == 57600)) || (baud_setting >4095))
    64f2:	21 15       	cp	r18, r1
    64f4:	80 e1       	ldi	r24, 0x10	; 16
    64f6:	38 07       	cpc	r19, r24
    64f8:	a0 f0       	brcs	.+40     	; 0x6522 <_ZN14HardwareSerial5beginEmh+0x7a>
  {
    *_ucsra = 0;
    64fa:	e8 89       	ldd	r30, Y+16	; 0x10
    64fc:	f9 89       	ldd	r31, Y+17	; 0x11
    64fe:	10 82       	st	Z, r1
    baud_setting = (F_CPU / 8 / baud - 1) / 2;
    6500:	60 e8       	ldi	r22, 0x80	; 128
    6502:	74 e8       	ldi	r23, 0x84	; 132
    6504:	8e e1       	ldi	r24, 0x1E	; 30
    6506:	90 e0       	ldi	r25, 0x00	; 0
    6508:	a7 01       	movw	r20, r14
    650a:	96 01       	movw	r18, r12
    650c:	d2 d5       	rcall	.+2980   	; 0x70b2 <__udivmodsi4>
    650e:	da 01       	movw	r26, r20
    6510:	c9 01       	movw	r24, r18
    6512:	01 97       	sbiw	r24, 0x01	; 1
    6514:	a1 09       	sbc	r26, r1
    6516:	b1 09       	sbc	r27, r1
    6518:	b6 95       	lsr	r27
    651a:	a7 95       	ror	r26
    651c:	97 95       	ror	r25
    651e:	87 95       	ror	r24
    6520:	9c 01       	movw	r18, r24
  }

  // assign the baud_setting, a.k.a. ubrr (USART Baud Rate Register)
  *_ubrrh = baud_setting >> 8;
    6522:	ec 85       	ldd	r30, Y+12	; 0x0c
    6524:	fd 85       	ldd	r31, Y+13	; 0x0d
    6526:	30 83       	st	Z, r19
  *_ubrrl = baud_setting;
    6528:	ee 85       	ldd	r30, Y+14	; 0x0e
    652a:	ff 85       	ldd	r31, Y+15	; 0x0f
    652c:	20 83       	st	Z, r18

  _written = false;
    652e:	18 8e       	std	Y+24, r1	; 0x18

  //set the data bits, parity, and stop bits
#if defined(__AVR_ATmega8__)
  config |= 0x80; // select UCSRC register (shared with UBRRH)
#endif
  *_ucsrc = config;
    6530:	ec 89       	ldd	r30, Y+20	; 0x14
    6532:	fd 89       	ldd	r31, Y+21	; 0x15
    6534:	10 83       	st	Z, r17
  
  sbi(*_ucsrb, RXEN0);
    6536:	ea 89       	ldd	r30, Y+18	; 0x12
    6538:	fb 89       	ldd	r31, Y+19	; 0x13
    653a:	80 81       	ld	r24, Z
    653c:	80 61       	ori	r24, 0x10	; 16
    653e:	80 83       	st	Z, r24
  sbi(*_ucsrb, TXEN0);
    6540:	ea 89       	ldd	r30, Y+18	; 0x12
    6542:	fb 89       	ldd	r31, Y+19	; 0x13
    6544:	80 81       	ld	r24, Z
    6546:	88 60       	ori	r24, 0x08	; 8
    6548:	80 83       	st	Z, r24
  sbi(*_ucsrb, RXCIE0);
    654a:	ea 89       	ldd	r30, Y+18	; 0x12
    654c:	fb 89       	ldd	r31, Y+19	; 0x13
    654e:	80 81       	ld	r24, Z
    6550:	80 68       	ori	r24, 0x80	; 128
    6552:	80 83       	st	Z, r24
  cbi(*_ucsrb, UDRIE0);
    6554:	ea 89       	ldd	r30, Y+18	; 0x12
    6556:	fb 89       	ldd	r31, Y+19	; 0x13
    6558:	80 81       	ld	r24, Z
    655a:	8f 7d       	andi	r24, 0xDF	; 223
    655c:	80 83       	st	Z, r24
}
    655e:	df 91       	pop	r29
    6560:	cf 91       	pop	r28
    6562:	1f 91       	pop	r17
    6564:	ff 90       	pop	r15
    6566:	ef 90       	pop	r14
    6568:	df 90       	pop	r13
    656a:	cf 90       	pop	r12
    656c:	08 95       	ret

0000656e <__vector_25>:
#elif defined(USART_RXC_vect)
  ISR(USART_RXC_vect) // ATmega8
#else
  #error "Don't know what the Data Received vector is called for Serial"
#endif
  {
    656e:	1f 92       	push	r1
    6570:	0f 92       	push	r0
    6572:	0f b6       	in	r0, 0x3f	; 63
    6574:	0f 92       	push	r0
    6576:	11 24       	eor	r1, r1
    6578:	0b b6       	in	r0, 0x3b	; 59
    657a:	0f 92       	push	r0
    657c:	2f 93       	push	r18
    657e:	8f 93       	push	r24
    6580:	9f 93       	push	r25
    6582:	ef 93       	push	r30
    6584:	ff 93       	push	r31

// Actual interrupt handlers //////////////////////////////////////////////////////////////

void HardwareSerial::_rx_complete_irq(void)
{
  if (bit_is_clear(*_ucsra, UPE0)) {
    6586:	e0 91 56 08 	lds	r30, 0x0856	; 0x800856 <Serial+0x10>
    658a:	f0 91 57 08 	lds	r31, 0x0857	; 0x800857 <Serial+0x11>
    658e:	80 81       	ld	r24, Z
    6590:	e0 91 5c 08 	lds	r30, 0x085C	; 0x80085c <Serial+0x16>
    6594:	f0 91 5d 08 	lds	r31, 0x085D	; 0x80085d <Serial+0x17>
    6598:	82 fd       	sbrc	r24, 2
    659a:	12 c0       	rjmp	.+36     	; 0x65c0 <__vector_25+0x52>
    // No Parity error, read byte and store it in the buffer if there is
    // room
    unsigned char c = *_udr;
    659c:	90 81       	ld	r25, Z
    rx_buffer_index_t i = (unsigned int)(_rx_buffer_head + 1) % SERIAL_RX_BUFFER_SIZE;
    659e:	80 91 5f 08 	lds	r24, 0x085F	; 0x80085f <Serial+0x19>
    65a2:	8f 5f       	subi	r24, 0xFF	; 255
    65a4:	8f 73       	andi	r24, 0x3F	; 63

    // if we should be storing the received character into the location
    // just before the tail (meaning that the head would advance to the
    // current location of the tail), we're about to overflow the buffer
    // and so we don't write the character or advance the head.
    if (i != _rx_buffer_tail) {
    65a6:	20 91 60 08 	lds	r18, 0x0860	; 0x800860 <Serial+0x1a>
    65aa:	82 17       	cp	r24, r18
    65ac:	51 f0       	breq	.+20     	; 0x65c2 <__vector_25+0x54>
      _rx_buffer[_rx_buffer_head] = c;
    65ae:	e0 91 5f 08 	lds	r30, 0x085F	; 0x80085f <Serial+0x19>
    65b2:	f0 e0       	ldi	r31, 0x00	; 0
    65b4:	ea 5b       	subi	r30, 0xBA	; 186
    65b6:	f7 4f       	sbci	r31, 0xF7	; 247
    65b8:	95 8f       	std	Z+29, r25	; 0x1d
      _rx_buffer_head = i;
    65ba:	80 93 5f 08 	sts	0x085F, r24	; 0x80085f <Serial+0x19>
    65be:	01 c0       	rjmp	.+2      	; 0x65c2 <__vector_25+0x54>
    }
  } else {
    // Parity error, read byte but discard it
    *_udr;
    65c0:	80 81       	ld	r24, Z
    Serial._rx_complete_irq();
  }
    65c2:	ff 91       	pop	r31
    65c4:	ef 91       	pop	r30
    65c6:	9f 91       	pop	r25
    65c8:	8f 91       	pop	r24
    65ca:	2f 91       	pop	r18
    65cc:	0f 90       	pop	r0
    65ce:	0b be       	out	0x3b, r0	; 59
    65d0:	0f 90       	pop	r0
    65d2:	0f be       	out	0x3f, r0	; 63
    65d4:	0f 90       	pop	r0
    65d6:	1f 90       	pop	r1
    65d8:	18 95       	reti

000065da <__vector_26>:
#elif defined(USART_UDRE_vect)
ISR(USART_UDRE_vect)
#else
  #error "Don't know what the Data Register Empty vector is called for Serial"
#endif
{
    65da:	1f 92       	push	r1
    65dc:	0f 92       	push	r0
    65de:	0f b6       	in	r0, 0x3f	; 63
    65e0:	0f 92       	push	r0
    65e2:	11 24       	eor	r1, r1
    65e4:	0b b6       	in	r0, 0x3b	; 59
    65e6:	0f 92       	push	r0
    65e8:	2f 93       	push	r18
    65ea:	3f 93       	push	r19
    65ec:	4f 93       	push	r20
    65ee:	5f 93       	push	r21
    65f0:	6f 93       	push	r22
    65f2:	7f 93       	push	r23
    65f4:	8f 93       	push	r24
    65f6:	9f 93       	push	r25
    65f8:	af 93       	push	r26
    65fa:	bf 93       	push	r27
    65fc:	ef 93       	push	r30
    65fe:	ff 93       	push	r31
  Serial._tx_udr_empty_irq();
    6600:	86 e4       	ldi	r24, 0x46	; 70
    6602:	98 e0       	ldi	r25, 0x08	; 8
    6604:	c9 de       	rcall	.-622    	; 0x6398 <_ZN14HardwareSerial17_tx_udr_empty_irqEv>
}
    6606:	ff 91       	pop	r31
    6608:	ef 91       	pop	r30
    660a:	bf 91       	pop	r27
    660c:	af 91       	pop	r26
    660e:	9f 91       	pop	r25
    6610:	8f 91       	pop	r24
    6612:	7f 91       	pop	r23
    6614:	6f 91       	pop	r22
    6616:	5f 91       	pop	r21
    6618:	4f 91       	pop	r20
    661a:	3f 91       	pop	r19
    661c:	2f 91       	pop	r18
    661e:	0f 90       	pop	r0
    6620:	0b be       	out	0x3b, r0	; 59
    6622:	0f 90       	pop	r0
    6624:	0f be       	out	0x3f, r0	; 63
    6626:	0f 90       	pop	r0
    6628:	1f 90       	pop	r1
    662a:	18 95       	reti

0000662c <_Z17Serial0_availablev>:
#endif

// Function that can be weakly referenced by serialEventRun to prevent
// pulling in this file if it's not otherwise used.
bool Serial0_available() {
  return Serial.available();
    662c:	86 e4       	ldi	r24, 0x46	; 70
    662e:	98 e0       	ldi	r25, 0x08	; 8
    6630:	49 de       	rcall	.-878    	; 0x62c4 <_ZN14HardwareSerial9availableEv>
    6632:	21 e0       	ldi	r18, 0x01	; 1
    6634:	89 2b       	or	r24, r25
    6636:	09 f4       	brne	.+2      	; 0x663a <_Z17Serial0_availablev+0xe>
    6638:	20 e0       	ldi	r18, 0x00	; 0
}
    663a:	82 2f       	mov	r24, r18
    663c:	08 95       	ret

0000663e <_GLOBAL__sub_I___vector_25>:
    size_t printNumber(unsigned long, uint8_t);
    size_t printFloat(double, uint8_t);
  protected:
    void setWriteError(int err = 1) { write_error = err; }
  public:
    Print() : write_error(0) {}
    663e:	e6 e4       	ldi	r30, 0x46	; 70
    6640:	f8 e0       	ldi	r31, 0x08	; 8
    6642:	13 82       	std	Z+3, r1	; 0x03
    6644:	12 82       	std	Z+2, r1	; 0x02
    virtual int available() = 0;
    virtual int read() = 0;
    virtual int peek() = 0;
    virtual void flush() = 0;

    Stream() {_timeout=1000;}
    6646:	88 ee       	ldi	r24, 0xE8	; 232
    6648:	93 e0       	ldi	r25, 0x03	; 3
    664a:	a0 e0       	ldi	r26, 0x00	; 0
    664c:	b0 e0       	ldi	r27, 0x00	; 0
    664e:	84 83       	std	Z+4, r24	; 0x04
    6650:	95 83       	std	Z+5, r25	; 0x05
    6652:	a6 83       	std	Z+6, r26	; 0x06
    6654:	b7 83       	std	Z+7, r27	; 0x07
  volatile uint8_t *ucsrc, volatile uint8_t *udr) :
    _ubrrh(ubrrh), _ubrrl(ubrrl),
    _ucsra(ucsra), _ucsrb(ucsrb), _ucsrc(ucsrc),
    _udr(udr),
    _rx_buffer_head(0), _rx_buffer_tail(0),
    _tx_buffer_head(0), _tx_buffer_tail(0)
    6656:	80 e5       	ldi	r24, 0x50	; 80
    6658:	93 e0       	ldi	r25, 0x03	; 3
    665a:	91 83       	std	Z+1, r25	; 0x01
    665c:	80 83       	st	Z, r24
    665e:	85 ec       	ldi	r24, 0xC5	; 197
    6660:	90 e0       	ldi	r25, 0x00	; 0
    6662:	95 87       	std	Z+13, r25	; 0x0d
    6664:	84 87       	std	Z+12, r24	; 0x0c
    6666:	84 ec       	ldi	r24, 0xC4	; 196
    6668:	90 e0       	ldi	r25, 0x00	; 0
    666a:	97 87       	std	Z+15, r25	; 0x0f
    666c:	86 87       	std	Z+14, r24	; 0x0e
    666e:	80 ec       	ldi	r24, 0xC0	; 192
    6670:	90 e0       	ldi	r25, 0x00	; 0
    6672:	91 8b       	std	Z+17, r25	; 0x11
    6674:	80 8b       	std	Z+16, r24	; 0x10
    6676:	81 ec       	ldi	r24, 0xC1	; 193
    6678:	90 e0       	ldi	r25, 0x00	; 0
    667a:	93 8b       	std	Z+19, r25	; 0x13
    667c:	82 8b       	std	Z+18, r24	; 0x12
    667e:	82 ec       	ldi	r24, 0xC2	; 194
    6680:	90 e0       	ldi	r25, 0x00	; 0
    6682:	95 8b       	std	Z+21, r25	; 0x15
    6684:	84 8b       	std	Z+20, r24	; 0x14
    6686:	86 ec       	ldi	r24, 0xC6	; 198
    6688:	90 e0       	ldi	r25, 0x00	; 0
    668a:	97 8b       	std	Z+23, r25	; 0x17
    668c:	86 8b       	std	Z+22, r24	; 0x16
    668e:	11 8e       	std	Z+25, r1	; 0x19
    6690:	12 8e       	std	Z+26, r1	; 0x1a
    6692:	13 8e       	std	Z+27, r1	; 0x1b
    6694:	14 8e       	std	Z+28, r1	; 0x1c
    6696:	08 95       	ret

00006698 <initVariant>:
    6698:	08 95       	ret

0000669a <main>:
void setupUSB() __attribute__((weak));
void setupUSB() { }

int main(void)
{
	init();
    669a:	37 d3       	rcall	.+1646   	; 0x6d0a <init>

	initVariant();
    669c:	fd df       	rcall	.-6      	; 0x6698 <initVariant>
    669e:	0e 94 b0 10 	call	0x2160	; 0x2160 <setup>

#if defined(USBCON)
	USBDevice.attach();
#endif
	
	setup();
    66a2:	c0 e9       	ldi	r28, 0x90	; 144
    
	for (;;) {
		loop();
		if (serialEventRun) serialEventRun();
    66a4:	d1 e3       	ldi	r29, 0x31	; 49
    66a6:	0e 94 c6 10 	call	0x218c	; 0x218c <loop>
#endif
	
	setup();
    
	for (;;) {
		loop();
    66aa:	20 97       	sbiw	r28, 0x00	; 0
		if (serialEventRun) serialEventRun();
    66ac:	e1 f3       	breq	.-8      	; 0x66a6 <main+0xc>
    66ae:	38 de       	rcall	.-912    	; 0x6320 <_Z14serialEventRunv>
    66b0:	fa cf       	rjmp	.-12     	; 0x66a6 <main+0xc>

000066b2 <_Znwj>:
    66b2:	5e c5       	rjmp	.+2748   	; 0x7170 <malloc>

000066b4 <_ZN5Print5writeEPKhj>:
size_t Print::println(const Printable& x)
{
  size_t n = print(x);
  n += println();
  return n;
}
    66b4:	cf 92       	push	r12
    66b6:	df 92       	push	r13
    66b8:	ef 92       	push	r14
    66ba:	ff 92       	push	r15
    66bc:	0f 93       	push	r16
    66be:	1f 93       	push	r17
    66c0:	cf 93       	push	r28
    66c2:	df 93       	push	r29
    66c4:	6c 01       	movw	r12, r24
    66c6:	7a 01       	movw	r14, r20
    66c8:	8b 01       	movw	r16, r22
    66ca:	c0 e0       	ldi	r28, 0x00	; 0
    66cc:	d0 e0       	ldi	r29, 0x00	; 0
    66ce:	ce 15       	cp	r28, r14
    66d0:	df 05       	cpc	r29, r15
    66d2:	81 f0       	breq	.+32     	; 0x66f4 <_ZN5Print5writeEPKhj+0x40>
    66d4:	d8 01       	movw	r26, r16
    66d6:	6d 91       	ld	r22, X+
    66d8:	8d 01       	movw	r16, r26
    66da:	d6 01       	movw	r26, r12
    66dc:	ed 91       	ld	r30, X+
    66de:	fc 91       	ld	r31, X
    66e0:	01 90       	ld	r0, Z+
    66e2:	f0 81       	ld	r31, Z
    66e4:	e0 2d       	mov	r30, r0
    66e6:	c6 01       	movw	r24, r12
    66e8:	19 95       	eicall
    66ea:	89 2b       	or	r24, r25
    66ec:	11 f0       	breq	.+4      	; 0x66f2 <_ZN5Print5writeEPKhj+0x3e>
    66ee:	21 96       	adiw	r28, 0x01	; 1
    66f0:	ee cf       	rjmp	.-36     	; 0x66ce <_ZN5Print5writeEPKhj+0x1a>
    66f2:	7e 01       	movw	r14, r28
    66f4:	c7 01       	movw	r24, r14
    66f6:	df 91       	pop	r29
    66f8:	cf 91       	pop	r28
    66fa:	1f 91       	pop	r17
    66fc:	0f 91       	pop	r16
    66fe:	ff 90       	pop	r15
    6700:	ef 90       	pop	r14
    6702:	df 90       	pop	r13
    6704:	cf 90       	pop	r12
    6706:	08 95       	ret

00006708 <_ZN5Print5writeEPKc>:
    6708:	61 15       	cp	r22, r1
    670a:	71 05       	cpc	r23, r1
    670c:	79 f0       	breq	.+30     	; 0x672c <_ZN5Print5writeEPKc+0x24>
    670e:	fb 01       	movw	r30, r22
    6710:	01 90       	ld	r0, Z+
    6712:	00 20       	and	r0, r0
    6714:	e9 f7       	brne	.-6      	; 0x6710 <_ZN5Print5writeEPKc+0x8>
    6716:	31 97       	sbiw	r30, 0x01	; 1
    6718:	af 01       	movw	r20, r30
    671a:	46 1b       	sub	r20, r22
    671c:	57 0b       	sbc	r21, r23
    671e:	dc 01       	movw	r26, r24
    6720:	ed 91       	ld	r30, X+
    6722:	fc 91       	ld	r31, X
    6724:	02 80       	ldd	r0, Z+2	; 0x02
    6726:	f3 81       	ldd	r31, Z+3	; 0x03
    6728:	e0 2d       	mov	r30, r0
    672a:	19 94       	eijmp
    672c:	80 e0       	ldi	r24, 0x00	; 0
    672e:	90 e0       	ldi	r25, 0x00	; 0
    6730:	08 95       	ret

00006732 <_ZN5Print5printEPKc>:
    6732:	ea cf       	rjmp	.-44     	; 0x6708 <_ZN5Print5writeEPKc>

00006734 <_ZN5Print7printlnEv>:
    6734:	6c e5       	ldi	r22, 0x5C	; 92
    6736:	73 e0       	ldi	r23, 0x03	; 3
    6738:	e7 cf       	rjmp	.-50     	; 0x6708 <_ZN5Print5writeEPKc>

0000673a <_ZN5Print11printNumberEmh>:

// Private Methods /////////////////////////////////////////////////////////////

size_t Print::printNumber(unsigned long n, uint8_t base)
{
    673a:	8f 92       	push	r8
    673c:	9f 92       	push	r9
    673e:	af 92       	push	r10
    6740:	bf 92       	push	r11
    6742:	ef 92       	push	r14
    6744:	ff 92       	push	r15
    6746:	0f 93       	push	r16
    6748:	1f 93       	push	r17
    674a:	cf 93       	push	r28
    674c:	df 93       	push	r29
    674e:	cd b7       	in	r28, 0x3d	; 61
    6750:	de b7       	in	r29, 0x3e	; 62
    6752:	a1 97       	sbiw	r28, 0x21	; 33
    6754:	0f b6       	in	r0, 0x3f	; 63
    6756:	f8 94       	cli
    6758:	de bf       	out	0x3e, r29	; 62
    675a:	0f be       	out	0x3f, r0	; 63
    675c:	cd bf       	out	0x3d, r28	; 61
    675e:	7c 01       	movw	r14, r24
    6760:	fa 01       	movw	r30, r20
    6762:	cb 01       	movw	r24, r22
  char buf[8 * sizeof(long) + 1]; // Assumes 8-bit chars plus zero byte.
  char *str = &buf[sizeof(buf) - 1];

  *str = '\0';
    6764:	19 a2       	std	Y+33, r1	; 0x21

  // prevent crash if called with base == 1
  if (base < 2) base = 10;
    6766:	22 30       	cpi	r18, 0x02	; 2
    6768:	08 f4       	brcc	.+2      	; 0x676c <_ZN5Print11printNumberEmh+0x32>
    676a:	2a e0       	ldi	r18, 0x0A	; 10
    676c:	8e 01       	movw	r16, r28
    676e:	0f 5d       	subi	r16, 0xDF	; 223
    6770:	1f 4f       	sbci	r17, 0xFF	; 255

  do {
    char c = n % base;
    6772:	82 2e       	mov	r8, r18
    6774:	91 2c       	mov	r9, r1
    6776:	a1 2c       	mov	r10, r1
    6778:	b1 2c       	mov	r11, r1
    677a:	bf 01       	movw	r22, r30
    677c:	a5 01       	movw	r20, r10
    677e:	94 01       	movw	r18, r8
    6780:	98 d4       	rcall	.+2352   	; 0x70b2 <__udivmodsi4>
    n /= base;
    6782:	f9 01       	movw	r30, r18
    6784:	ca 01       	movw	r24, r20

    *--str = c < 10 ? c + '0' : c + 'A' - 10;
    6786:	01 50       	subi	r16, 0x01	; 1
    6788:	11 09       	sbc	r17, r1
    678a:	6a 30       	cpi	r22, 0x0A	; 10
    678c:	10 f4       	brcc	.+4      	; 0x6792 <_ZN5Print11printNumberEmh+0x58>
    678e:	60 5d       	subi	r22, 0xD0	; 208
    6790:	01 c0       	rjmp	.+2      	; 0x6794 <_ZN5Print11printNumberEmh+0x5a>
    6792:	69 5c       	subi	r22, 0xC9	; 201
    6794:	d8 01       	movw	r26, r16
    6796:	6c 93       	st	X, r22
  *str = '\0';

  // prevent crash if called with base == 1
  if (base < 2) base = 10;

  do {
    6798:	23 2b       	or	r18, r19
    679a:	24 2b       	or	r18, r20
    679c:	25 2b       	or	r18, r21
    679e:	69 f7       	brne	.-38     	; 0x677a <_ZN5Print11printNumberEmh+0x40>
    n /= base;

    *--str = c < 10 ? c + '0' : c + 'A' - 10;
  } while(n);

  return write(str);
    67a0:	b8 01       	movw	r22, r16
    67a2:	c7 01       	movw	r24, r14
    67a4:	b1 df       	rcall	.-158    	; 0x6708 <_ZN5Print5writeEPKc>
}
    67a6:	a1 96       	adiw	r28, 0x21	; 33
    67a8:	0f b6       	in	r0, 0x3f	; 63
    67aa:	f8 94       	cli
    67ac:	de bf       	out	0x3e, r29	; 62
    67ae:	0f be       	out	0x3f, r0	; 63
    67b0:	cd bf       	out	0x3d, r28	; 61
    67b2:	df 91       	pop	r29
    67b4:	cf 91       	pop	r28
    67b6:	1f 91       	pop	r17
    67b8:	0f 91       	pop	r16
    67ba:	ff 90       	pop	r15
    67bc:	ef 90       	pop	r14
    67be:	bf 90       	pop	r11
    67c0:	af 90       	pop	r10
    67c2:	9f 90       	pop	r9
    67c4:	8f 90       	pop	r8
    67c6:	08 95       	ret

000067c8 <_ZN5Print5printEmi>:
  }
}

size_t Print::print(unsigned long n, int base)
{
  if (base == 0) return write(n);
    67c8:	21 15       	cp	r18, r1
    67ca:	31 05       	cpc	r19, r1
    67cc:	41 f4       	brne	.+16     	; 0x67de <_ZN5Print5printEmi+0x16>
    67ce:	dc 01       	movw	r26, r24
    67d0:	ed 91       	ld	r30, X+
    67d2:	fc 91       	ld	r31, X
    67d4:	01 90       	ld	r0, Z+
    67d6:	f0 81       	ld	r31, Z
    67d8:	e0 2d       	mov	r30, r0
    67da:	64 2f       	mov	r22, r20
    67dc:	19 94       	eijmp
  else return printNumber(n, base);
    67de:	ad cf       	rjmp	.-166    	; 0x673a <_ZN5Print11printNumberEmh>

000067e0 <_ZN5Print5printEhi>:
{
  return write(c);
}

size_t Print::print(unsigned char b, int base)
{
    67e0:	9a 01       	movw	r18, r20
  return print((unsigned long) b, base);
    67e2:	46 2f       	mov	r20, r22
    67e4:	50 e0       	ldi	r21, 0x00	; 0
    67e6:	60 e0       	ldi	r22, 0x00	; 0
    67e8:	70 e0       	ldi	r23, 0x00	; 0
    67ea:	ee cf       	rjmp	.-36     	; 0x67c8 <_ZN5Print5printEmi>

000067ec <_ZN5Print7printlnEhi>:
  n += println();
  return n;
}

size_t Print::println(unsigned char b, int base)
{
    67ec:	0f 93       	push	r16
    67ee:	1f 93       	push	r17
    67f0:	cf 93       	push	r28
    67f2:	df 93       	push	r29
    67f4:	ec 01       	movw	r28, r24
  size_t n = print(b, base);
    67f6:	f4 df       	rcall	.-24     	; 0x67e0 <_ZN5Print5printEhi>
    67f8:	8c 01       	movw	r16, r24
  n += println();
    67fa:	ce 01       	movw	r24, r28
    67fc:	9b df       	rcall	.-202    	; 0x6734 <_ZN5Print7printlnEv>
  return n;
}
    67fe:	80 0f       	add	r24, r16
    6800:	91 1f       	adc	r25, r17
    6802:	df 91       	pop	r29
    6804:	cf 91       	pop	r28
    6806:	1f 91       	pop	r17
    6808:	0f 91       	pop	r16
    680a:	08 95       	ret

0000680c <nothing>:
    #endif
      break;       
#endif
    }
      
    intFunc[interruptNum] = nothing;
    680c:	08 95       	ret

0000680e <attachInterrupt>:
    680e:	88 30       	cpi	r24, 0x08	; 8
    6810:	08 f0       	brcs	.+2      	; 0x6814 <attachInterrupt+0x6>
    6812:	6f c0       	rjmp	.+222    	; 0x68f2 <attachInterrupt+0xe4>
    6814:	a8 2f       	mov	r26, r24
    6816:	b0 e0       	ldi	r27, 0x00	; 0
    6818:	aa 0f       	add	r26, r26
    681a:	bb 1f       	adc	r27, r27
    681c:	aa 5f       	subi	r26, 0xFA	; 250
    681e:	bd 4f       	sbci	r27, 0xFD	; 253
    6820:	11 96       	adiw	r26, 0x01	; 1
    6822:	7c 93       	st	X, r23
    6824:	6e 93       	st	-X, r22
    6826:	90 e0       	ldi	r25, 0x00	; 0
    6828:	fc 01       	movw	r30, r24
    682a:	31 97       	sbiw	r30, 0x01	; 1
    682c:	e7 30       	cpi	r30, 0x07	; 7
    682e:	f1 05       	cpc	r31, r1
    6830:	98 f5       	brcc	.+102    	; 0x6898 <attachInterrupt+0x8a>
    6832:	88 27       	eor	r24, r24
    6834:	e2 55       	subi	r30, 0x52	; 82
    6836:	ff 4f       	sbci	r31, 0xFF	; 255
    6838:	8f 4f       	sbci	r24, 0xFF	; 255
    683a:	79 c4       	rjmp	.+2290   	; 0x712e <__tablejump2__>
    683c:	80 91 69 00 	lds	r24, 0x0069	; 0x800069 <__TEXT_REGION_LENGTH__+0x700069>
    6840:	8c 7f       	andi	r24, 0xFC	; 252
    6842:	48 2b       	or	r20, r24
    6844:	40 93 69 00 	sts	0x0069, r20	; 0x800069 <__TEXT_REGION_LENGTH__+0x700069>
    6848:	e8 9a       	sbi	0x1d, 0	; 29
    684a:	08 95       	ret
    684c:	80 91 69 00 	lds	r24, 0x0069	; 0x800069 <__TEXT_REGION_LENGTH__+0x700069>
    6850:	83 7f       	andi	r24, 0xF3	; 243
    6852:	44 0f       	add	r20, r20
    6854:	55 1f       	adc	r21, r21
    6856:	44 0f       	add	r20, r20
    6858:	55 1f       	adc	r21, r21
    685a:	48 2b       	or	r20, r24
    685c:	40 93 69 00 	sts	0x0069, r20	; 0x800069 <__TEXT_REGION_LENGTH__+0x700069>
    6860:	e9 9a       	sbi	0x1d, 1	; 29
    6862:	08 95       	ret
    6864:	80 91 69 00 	lds	r24, 0x0069	; 0x800069 <__TEXT_REGION_LENGTH__+0x700069>
    6868:	8f 7c       	andi	r24, 0xCF	; 207
    686a:	74 e0       	ldi	r23, 0x04	; 4
    686c:	44 0f       	add	r20, r20
    686e:	55 1f       	adc	r21, r21
    6870:	7a 95       	dec	r23
    6872:	e1 f7       	brne	.-8      	; 0x686c <attachInterrupt+0x5e>
    6874:	48 2b       	or	r20, r24
    6876:	40 93 69 00 	sts	0x0069, r20	; 0x800069 <__TEXT_REGION_LENGTH__+0x700069>
    687a:	ea 9a       	sbi	0x1d, 2	; 29
    687c:	08 95       	ret
    687e:	80 91 69 00 	lds	r24, 0x0069	; 0x800069 <__TEXT_REGION_LENGTH__+0x700069>
    6882:	8f 73       	andi	r24, 0x3F	; 63
    6884:	66 e0       	ldi	r22, 0x06	; 6
    6886:	44 0f       	add	r20, r20
    6888:	55 1f       	adc	r21, r21
    688a:	6a 95       	dec	r22
    688c:	e1 f7       	brne	.-8      	; 0x6886 <attachInterrupt+0x78>
    688e:	48 2b       	or	r20, r24
    6890:	40 93 69 00 	sts	0x0069, r20	; 0x800069 <__TEXT_REGION_LENGTH__+0x700069>
    6894:	eb 9a       	sbi	0x1d, 3	; 29
    6896:	08 95       	ret
    6898:	80 91 6a 00 	lds	r24, 0x006A	; 0x80006a <__TEXT_REGION_LENGTH__+0x70006a>
    689c:	8c 7f       	andi	r24, 0xFC	; 252
    689e:	48 2b       	or	r20, r24
    68a0:	40 93 6a 00 	sts	0x006A, r20	; 0x80006a <__TEXT_REGION_LENGTH__+0x70006a>
    68a4:	ec 9a       	sbi	0x1d, 4	; 29
    68a6:	08 95       	ret
    68a8:	80 91 6a 00 	lds	r24, 0x006A	; 0x80006a <__TEXT_REGION_LENGTH__+0x70006a>
    68ac:	83 7f       	andi	r24, 0xF3	; 243
    68ae:	44 0f       	add	r20, r20
    68b0:	55 1f       	adc	r21, r21
    68b2:	44 0f       	add	r20, r20
    68b4:	55 1f       	adc	r21, r21
    68b6:	48 2b       	or	r20, r24
    68b8:	40 93 6a 00 	sts	0x006A, r20	; 0x80006a <__TEXT_REGION_LENGTH__+0x70006a>
    68bc:	ed 9a       	sbi	0x1d, 5	; 29
    68be:	08 95       	ret
    68c0:	80 91 6a 00 	lds	r24, 0x006A	; 0x80006a <__TEXT_REGION_LENGTH__+0x70006a>
    68c4:	8f 7c       	andi	r24, 0xCF	; 207
    68c6:	24 e0       	ldi	r18, 0x04	; 4
    68c8:	44 0f       	add	r20, r20
    68ca:	55 1f       	adc	r21, r21
    68cc:	2a 95       	dec	r18
    68ce:	e1 f7       	brne	.-8      	; 0x68c8 <attachInterrupt+0xba>
    68d0:	48 2b       	or	r20, r24
    68d2:	40 93 6a 00 	sts	0x006A, r20	; 0x80006a <__TEXT_REGION_LENGTH__+0x70006a>
    68d6:	ee 9a       	sbi	0x1d, 6	; 29
    68d8:	08 95       	ret
    68da:	80 91 6a 00 	lds	r24, 0x006A	; 0x80006a <__TEXT_REGION_LENGTH__+0x70006a>
    68de:	8f 73       	andi	r24, 0x3F	; 63
    68e0:	96 e0       	ldi	r25, 0x06	; 6
    68e2:	44 0f       	add	r20, r20
    68e4:	55 1f       	adc	r21, r21
    68e6:	9a 95       	dec	r25
    68e8:	e1 f7       	brne	.-8      	; 0x68e2 <attachInterrupt+0xd4>
    68ea:	48 2b       	or	r20, r24
    68ec:	40 93 6a 00 	sts	0x006A, r20	; 0x80006a <__TEXT_REGION_LENGTH__+0x70006a>
    68f0:	ef 9a       	sbi	0x1d, 7	; 29
    68f2:	08 95       	ret

000068f4 <__vector_1>:
IMPLEMENT_ISR(INT3_vect, EXTERNAL_INT_3)
IMPLEMENT_ISR(INT6_vect, EXTERNAL_INT_4)

#elif defined(EICRA) && defined(EICRB)

IMPLEMENT_ISR(INT0_vect, EXTERNAL_INT_2)
    68f4:	1f 92       	push	r1
    68f6:	0f 92       	push	r0
    68f8:	0f b6       	in	r0, 0x3f	; 63
    68fa:	0f 92       	push	r0
    68fc:	11 24       	eor	r1, r1
    68fe:	0b b6       	in	r0, 0x3b	; 59
    6900:	0f 92       	push	r0
    6902:	2f 93       	push	r18
    6904:	3f 93       	push	r19
    6906:	4f 93       	push	r20
    6908:	5f 93       	push	r21
    690a:	6f 93       	push	r22
    690c:	7f 93       	push	r23
    690e:	8f 93       	push	r24
    6910:	9f 93       	push	r25
    6912:	af 93       	push	r26
    6914:	bf 93       	push	r27
    6916:	ef 93       	push	r30
    6918:	ff 93       	push	r31
    691a:	e0 91 0a 02 	lds	r30, 0x020A	; 0x80020a <intFunc+0x4>
    691e:	f0 91 0b 02 	lds	r31, 0x020B	; 0x80020b <intFunc+0x5>
    6922:	19 95       	eicall
    6924:	ff 91       	pop	r31
    6926:	ef 91       	pop	r30
    6928:	bf 91       	pop	r27
    692a:	af 91       	pop	r26
    692c:	9f 91       	pop	r25
    692e:	8f 91       	pop	r24
    6930:	7f 91       	pop	r23
    6932:	6f 91       	pop	r22
    6934:	5f 91       	pop	r21
    6936:	4f 91       	pop	r20
    6938:	3f 91       	pop	r19
    693a:	2f 91       	pop	r18
    693c:	0f 90       	pop	r0
    693e:	0b be       	out	0x3b, r0	; 59
    6940:	0f 90       	pop	r0
    6942:	0f be       	out	0x3f, r0	; 63
    6944:	0f 90       	pop	r0
    6946:	1f 90       	pop	r1
    6948:	18 95       	reti

0000694a <__vector_2>:
IMPLEMENT_ISR(INT1_vect, EXTERNAL_INT_3)
    694a:	1f 92       	push	r1
    694c:	0f 92       	push	r0
    694e:	0f b6       	in	r0, 0x3f	; 63
    6950:	0f 92       	push	r0
    6952:	11 24       	eor	r1, r1
    6954:	0b b6       	in	r0, 0x3b	; 59
    6956:	0f 92       	push	r0
    6958:	2f 93       	push	r18
    695a:	3f 93       	push	r19
    695c:	4f 93       	push	r20
    695e:	5f 93       	push	r21
    6960:	6f 93       	push	r22
    6962:	7f 93       	push	r23
    6964:	8f 93       	push	r24
    6966:	9f 93       	push	r25
    6968:	af 93       	push	r26
    696a:	bf 93       	push	r27
    696c:	ef 93       	push	r30
    696e:	ff 93       	push	r31
    6970:	e0 91 0c 02 	lds	r30, 0x020C	; 0x80020c <intFunc+0x6>
    6974:	f0 91 0d 02 	lds	r31, 0x020D	; 0x80020d <intFunc+0x7>
    6978:	19 95       	eicall
    697a:	ff 91       	pop	r31
    697c:	ef 91       	pop	r30
    697e:	bf 91       	pop	r27
    6980:	af 91       	pop	r26
    6982:	9f 91       	pop	r25
    6984:	8f 91       	pop	r24
    6986:	7f 91       	pop	r23
    6988:	6f 91       	pop	r22
    698a:	5f 91       	pop	r21
    698c:	4f 91       	pop	r20
    698e:	3f 91       	pop	r19
    6990:	2f 91       	pop	r18
    6992:	0f 90       	pop	r0
    6994:	0b be       	out	0x3b, r0	; 59
    6996:	0f 90       	pop	r0
    6998:	0f be       	out	0x3f, r0	; 63
    699a:	0f 90       	pop	r0
    699c:	1f 90       	pop	r1
    699e:	18 95       	reti

000069a0 <__vector_3>:
IMPLEMENT_ISR(INT2_vect, EXTERNAL_INT_4)
    69a0:	1f 92       	push	r1
    69a2:	0f 92       	push	r0
    69a4:	0f b6       	in	r0, 0x3f	; 63
    69a6:	0f 92       	push	r0
    69a8:	11 24       	eor	r1, r1
    69aa:	0b b6       	in	r0, 0x3b	; 59
    69ac:	0f 92       	push	r0
    69ae:	2f 93       	push	r18
    69b0:	3f 93       	push	r19
    69b2:	4f 93       	push	r20
    69b4:	5f 93       	push	r21
    69b6:	6f 93       	push	r22
    69b8:	7f 93       	push	r23
    69ba:	8f 93       	push	r24
    69bc:	9f 93       	push	r25
    69be:	af 93       	push	r26
    69c0:	bf 93       	push	r27
    69c2:	ef 93       	push	r30
    69c4:	ff 93       	push	r31
    69c6:	e0 91 0e 02 	lds	r30, 0x020E	; 0x80020e <intFunc+0x8>
    69ca:	f0 91 0f 02 	lds	r31, 0x020F	; 0x80020f <intFunc+0x9>
    69ce:	19 95       	eicall
    69d0:	ff 91       	pop	r31
    69d2:	ef 91       	pop	r30
    69d4:	bf 91       	pop	r27
    69d6:	af 91       	pop	r26
    69d8:	9f 91       	pop	r25
    69da:	8f 91       	pop	r24
    69dc:	7f 91       	pop	r23
    69de:	6f 91       	pop	r22
    69e0:	5f 91       	pop	r21
    69e2:	4f 91       	pop	r20
    69e4:	3f 91       	pop	r19
    69e6:	2f 91       	pop	r18
    69e8:	0f 90       	pop	r0
    69ea:	0b be       	out	0x3b, r0	; 59
    69ec:	0f 90       	pop	r0
    69ee:	0f be       	out	0x3f, r0	; 63
    69f0:	0f 90       	pop	r0
    69f2:	1f 90       	pop	r1
    69f4:	18 95       	reti

000069f6 <__vector_4>:
IMPLEMENT_ISR(INT3_vect, EXTERNAL_INT_5)
    69f6:	1f 92       	push	r1
    69f8:	0f 92       	push	r0
    69fa:	0f b6       	in	r0, 0x3f	; 63
    69fc:	0f 92       	push	r0
    69fe:	11 24       	eor	r1, r1
    6a00:	0b b6       	in	r0, 0x3b	; 59
    6a02:	0f 92       	push	r0
    6a04:	2f 93       	push	r18
    6a06:	3f 93       	push	r19
    6a08:	4f 93       	push	r20
    6a0a:	5f 93       	push	r21
    6a0c:	6f 93       	push	r22
    6a0e:	7f 93       	push	r23
    6a10:	8f 93       	push	r24
    6a12:	9f 93       	push	r25
    6a14:	af 93       	push	r26
    6a16:	bf 93       	push	r27
    6a18:	ef 93       	push	r30
    6a1a:	ff 93       	push	r31
    6a1c:	e0 91 10 02 	lds	r30, 0x0210	; 0x800210 <intFunc+0xa>
    6a20:	f0 91 11 02 	lds	r31, 0x0211	; 0x800211 <intFunc+0xb>
    6a24:	19 95       	eicall
    6a26:	ff 91       	pop	r31
    6a28:	ef 91       	pop	r30
    6a2a:	bf 91       	pop	r27
    6a2c:	af 91       	pop	r26
    6a2e:	9f 91       	pop	r25
    6a30:	8f 91       	pop	r24
    6a32:	7f 91       	pop	r23
    6a34:	6f 91       	pop	r22
    6a36:	5f 91       	pop	r21
    6a38:	4f 91       	pop	r20
    6a3a:	3f 91       	pop	r19
    6a3c:	2f 91       	pop	r18
    6a3e:	0f 90       	pop	r0
    6a40:	0b be       	out	0x3b, r0	; 59
    6a42:	0f 90       	pop	r0
    6a44:	0f be       	out	0x3f, r0	; 63
    6a46:	0f 90       	pop	r0
    6a48:	1f 90       	pop	r1
    6a4a:	18 95       	reti

00006a4c <__vector_5>:
IMPLEMENT_ISR(INT4_vect, EXTERNAL_INT_0)
    6a4c:	1f 92       	push	r1
    6a4e:	0f 92       	push	r0
    6a50:	0f b6       	in	r0, 0x3f	; 63
    6a52:	0f 92       	push	r0
    6a54:	11 24       	eor	r1, r1
    6a56:	0b b6       	in	r0, 0x3b	; 59
    6a58:	0f 92       	push	r0
    6a5a:	2f 93       	push	r18
    6a5c:	3f 93       	push	r19
    6a5e:	4f 93       	push	r20
    6a60:	5f 93       	push	r21
    6a62:	6f 93       	push	r22
    6a64:	7f 93       	push	r23
    6a66:	8f 93       	push	r24
    6a68:	9f 93       	push	r25
    6a6a:	af 93       	push	r26
    6a6c:	bf 93       	push	r27
    6a6e:	ef 93       	push	r30
    6a70:	ff 93       	push	r31
    6a72:	e0 91 06 02 	lds	r30, 0x0206	; 0x800206 <intFunc>
    6a76:	f0 91 07 02 	lds	r31, 0x0207	; 0x800207 <intFunc+0x1>
    6a7a:	19 95       	eicall
    6a7c:	ff 91       	pop	r31
    6a7e:	ef 91       	pop	r30
    6a80:	bf 91       	pop	r27
    6a82:	af 91       	pop	r26
    6a84:	9f 91       	pop	r25
    6a86:	8f 91       	pop	r24
    6a88:	7f 91       	pop	r23
    6a8a:	6f 91       	pop	r22
    6a8c:	5f 91       	pop	r21
    6a8e:	4f 91       	pop	r20
    6a90:	3f 91       	pop	r19
    6a92:	2f 91       	pop	r18
    6a94:	0f 90       	pop	r0
    6a96:	0b be       	out	0x3b, r0	; 59
    6a98:	0f 90       	pop	r0
    6a9a:	0f be       	out	0x3f, r0	; 63
    6a9c:	0f 90       	pop	r0
    6a9e:	1f 90       	pop	r1
    6aa0:	18 95       	reti

00006aa2 <__vector_6>:
IMPLEMENT_ISR(INT5_vect, EXTERNAL_INT_1)
    6aa2:	1f 92       	push	r1
    6aa4:	0f 92       	push	r0
    6aa6:	0f b6       	in	r0, 0x3f	; 63
    6aa8:	0f 92       	push	r0
    6aaa:	11 24       	eor	r1, r1
    6aac:	0b b6       	in	r0, 0x3b	; 59
    6aae:	0f 92       	push	r0
    6ab0:	2f 93       	push	r18
    6ab2:	3f 93       	push	r19
    6ab4:	4f 93       	push	r20
    6ab6:	5f 93       	push	r21
    6ab8:	6f 93       	push	r22
    6aba:	7f 93       	push	r23
    6abc:	8f 93       	push	r24
    6abe:	9f 93       	push	r25
    6ac0:	af 93       	push	r26
    6ac2:	bf 93       	push	r27
    6ac4:	ef 93       	push	r30
    6ac6:	ff 93       	push	r31
    6ac8:	e0 91 08 02 	lds	r30, 0x0208	; 0x800208 <intFunc+0x2>
    6acc:	f0 91 09 02 	lds	r31, 0x0209	; 0x800209 <intFunc+0x3>
    6ad0:	19 95       	eicall
    6ad2:	ff 91       	pop	r31
    6ad4:	ef 91       	pop	r30
    6ad6:	bf 91       	pop	r27
    6ad8:	af 91       	pop	r26
    6ada:	9f 91       	pop	r25
    6adc:	8f 91       	pop	r24
    6ade:	7f 91       	pop	r23
    6ae0:	6f 91       	pop	r22
    6ae2:	5f 91       	pop	r21
    6ae4:	4f 91       	pop	r20
    6ae6:	3f 91       	pop	r19
    6ae8:	2f 91       	pop	r18
    6aea:	0f 90       	pop	r0
    6aec:	0b be       	out	0x3b, r0	; 59
    6aee:	0f 90       	pop	r0
    6af0:	0f be       	out	0x3f, r0	; 63
    6af2:	0f 90       	pop	r0
    6af4:	1f 90       	pop	r1
    6af6:	18 95       	reti

00006af8 <__vector_7>:
IMPLEMENT_ISR(INT6_vect, EXTERNAL_INT_6)
    6af8:	1f 92       	push	r1
    6afa:	0f 92       	push	r0
    6afc:	0f b6       	in	r0, 0x3f	; 63
    6afe:	0f 92       	push	r0
    6b00:	11 24       	eor	r1, r1
    6b02:	0b b6       	in	r0, 0x3b	; 59
    6b04:	0f 92       	push	r0
    6b06:	2f 93       	push	r18
    6b08:	3f 93       	push	r19
    6b0a:	4f 93       	push	r20
    6b0c:	5f 93       	push	r21
    6b0e:	6f 93       	push	r22
    6b10:	7f 93       	push	r23
    6b12:	8f 93       	push	r24
    6b14:	9f 93       	push	r25
    6b16:	af 93       	push	r26
    6b18:	bf 93       	push	r27
    6b1a:	ef 93       	push	r30
    6b1c:	ff 93       	push	r31
    6b1e:	e0 91 12 02 	lds	r30, 0x0212	; 0x800212 <intFunc+0xc>
    6b22:	f0 91 13 02 	lds	r31, 0x0213	; 0x800213 <intFunc+0xd>
    6b26:	19 95       	eicall
    6b28:	ff 91       	pop	r31
    6b2a:	ef 91       	pop	r30
    6b2c:	bf 91       	pop	r27
    6b2e:	af 91       	pop	r26
    6b30:	9f 91       	pop	r25
    6b32:	8f 91       	pop	r24
    6b34:	7f 91       	pop	r23
    6b36:	6f 91       	pop	r22
    6b38:	5f 91       	pop	r21
    6b3a:	4f 91       	pop	r20
    6b3c:	3f 91       	pop	r19
    6b3e:	2f 91       	pop	r18
    6b40:	0f 90       	pop	r0
    6b42:	0b be       	out	0x3b, r0	; 59
    6b44:	0f 90       	pop	r0
    6b46:	0f be       	out	0x3f, r0	; 63
    6b48:	0f 90       	pop	r0
    6b4a:	1f 90       	pop	r1
    6b4c:	18 95       	reti

00006b4e <__vector_8>:
IMPLEMENT_ISR(INT7_vect, EXTERNAL_INT_7)
    6b4e:	1f 92       	push	r1
    6b50:	0f 92       	push	r0
    6b52:	0f b6       	in	r0, 0x3f	; 63
    6b54:	0f 92       	push	r0
    6b56:	11 24       	eor	r1, r1
    6b58:	0b b6       	in	r0, 0x3b	; 59
    6b5a:	0f 92       	push	r0
    6b5c:	2f 93       	push	r18
    6b5e:	3f 93       	push	r19
    6b60:	4f 93       	push	r20
    6b62:	5f 93       	push	r21
    6b64:	6f 93       	push	r22
    6b66:	7f 93       	push	r23
    6b68:	8f 93       	push	r24
    6b6a:	9f 93       	push	r25
    6b6c:	af 93       	push	r26
    6b6e:	bf 93       	push	r27
    6b70:	ef 93       	push	r30
    6b72:	ff 93       	push	r31
    6b74:	e0 91 14 02 	lds	r30, 0x0214	; 0x800214 <intFunc+0xe>
    6b78:	f0 91 15 02 	lds	r31, 0x0215	; 0x800215 <intFunc+0xf>
    6b7c:	19 95       	eicall
    6b7e:	ff 91       	pop	r31
    6b80:	ef 91       	pop	r30
    6b82:	bf 91       	pop	r27
    6b84:	af 91       	pop	r26
    6b86:	9f 91       	pop	r25
    6b88:	8f 91       	pop	r24
    6b8a:	7f 91       	pop	r23
    6b8c:	6f 91       	pop	r22
    6b8e:	5f 91       	pop	r21
    6b90:	4f 91       	pop	r20
    6b92:	3f 91       	pop	r19
    6b94:	2f 91       	pop	r18
    6b96:	0f 90       	pop	r0
    6b98:	0b be       	out	0x3b, r0	; 59
    6b9a:	0f 90       	pop	r0
    6b9c:	0f be       	out	0x3f, r0	; 63
    6b9e:	0f 90       	pop	r0
    6ba0:	1f 90       	pop	r1
    6ba2:	18 95       	reti

00006ba4 <__vector_23>:
	cli();
	m = timer0_millis;
	SREG = oldSREG;

	return m;
}
    6ba4:	1f 92       	push	r1
    6ba6:	0f 92       	push	r0
    6ba8:	0f b6       	in	r0, 0x3f	; 63
    6baa:	0f 92       	push	r0
    6bac:	11 24       	eor	r1, r1
    6bae:	2f 93       	push	r18
    6bb0:	3f 93       	push	r19
    6bb2:	8f 93       	push	r24
    6bb4:	9f 93       	push	r25
    6bb6:	af 93       	push	r26
    6bb8:	bf 93       	push	r27
    6bba:	80 91 e4 08 	lds	r24, 0x08E4	; 0x8008e4 <timer0_millis>
    6bbe:	90 91 e5 08 	lds	r25, 0x08E5	; 0x8008e5 <timer0_millis+0x1>
    6bc2:	a0 91 e6 08 	lds	r26, 0x08E6	; 0x8008e6 <timer0_millis+0x2>
    6bc6:	b0 91 e7 08 	lds	r27, 0x08E7	; 0x8008e7 <timer0_millis+0x3>
    6bca:	30 91 e3 08 	lds	r19, 0x08E3	; 0x8008e3 <timer0_fract>
    6bce:	23 e0       	ldi	r18, 0x03	; 3
    6bd0:	23 0f       	add	r18, r19
    6bd2:	2d 37       	cpi	r18, 0x7D	; 125
    6bd4:	20 f4       	brcc	.+8      	; 0x6bde <__vector_23+0x3a>
    6bd6:	01 96       	adiw	r24, 0x01	; 1
    6bd8:	a1 1d       	adc	r26, r1
    6bda:	b1 1d       	adc	r27, r1
    6bdc:	05 c0       	rjmp	.+10     	; 0x6be8 <__vector_23+0x44>
    6bde:	26 e8       	ldi	r18, 0x86	; 134
    6be0:	23 0f       	add	r18, r19
    6be2:	02 96       	adiw	r24, 0x02	; 2
    6be4:	a1 1d       	adc	r26, r1
    6be6:	b1 1d       	adc	r27, r1
    6be8:	20 93 e3 08 	sts	0x08E3, r18	; 0x8008e3 <timer0_fract>
    6bec:	80 93 e4 08 	sts	0x08E4, r24	; 0x8008e4 <timer0_millis>
    6bf0:	90 93 e5 08 	sts	0x08E5, r25	; 0x8008e5 <timer0_millis+0x1>
    6bf4:	a0 93 e6 08 	sts	0x08E6, r26	; 0x8008e6 <timer0_millis+0x2>
    6bf8:	b0 93 e7 08 	sts	0x08E7, r27	; 0x8008e7 <timer0_millis+0x3>
    6bfc:	80 91 e8 08 	lds	r24, 0x08E8	; 0x8008e8 <timer0_overflow_count>
    6c00:	90 91 e9 08 	lds	r25, 0x08E9	; 0x8008e9 <timer0_overflow_count+0x1>
    6c04:	a0 91 ea 08 	lds	r26, 0x08EA	; 0x8008ea <timer0_overflow_count+0x2>
    6c08:	b0 91 eb 08 	lds	r27, 0x08EB	; 0x8008eb <timer0_overflow_count+0x3>
    6c0c:	01 96       	adiw	r24, 0x01	; 1
    6c0e:	a1 1d       	adc	r26, r1
    6c10:	b1 1d       	adc	r27, r1
    6c12:	80 93 e8 08 	sts	0x08E8, r24	; 0x8008e8 <timer0_overflow_count>
    6c16:	90 93 e9 08 	sts	0x08E9, r25	; 0x8008e9 <timer0_overflow_count+0x1>
    6c1a:	a0 93 ea 08 	sts	0x08EA, r26	; 0x8008ea <timer0_overflow_count+0x2>
    6c1e:	b0 93 eb 08 	sts	0x08EB, r27	; 0x8008eb <timer0_overflow_count+0x3>
    6c22:	bf 91       	pop	r27
    6c24:	af 91       	pop	r26
    6c26:	9f 91       	pop	r25
    6c28:	8f 91       	pop	r24
    6c2a:	3f 91       	pop	r19
    6c2c:	2f 91       	pop	r18
    6c2e:	0f 90       	pop	r0
    6c30:	0f be       	out	0x3f, r0	; 63
    6c32:	0f 90       	pop	r0
    6c34:	1f 90       	pop	r1
    6c36:	18 95       	reti

00006c38 <micros>:

unsigned long micros() {
	unsigned long m;
	uint8_t oldSREG = SREG, t;
    6c38:	3f b7       	in	r19, 0x3f	; 63
	
	cli();
    6c3a:	f8 94       	cli
	m = timer0_overflow_count;
    6c3c:	80 91 e8 08 	lds	r24, 0x08E8	; 0x8008e8 <timer0_overflow_count>
    6c40:	90 91 e9 08 	lds	r25, 0x08E9	; 0x8008e9 <timer0_overflow_count+0x1>
    6c44:	a0 91 ea 08 	lds	r26, 0x08EA	; 0x8008ea <timer0_overflow_count+0x2>
    6c48:	b0 91 eb 08 	lds	r27, 0x08EB	; 0x8008eb <timer0_overflow_count+0x3>
#if defined(TCNT0)
	t = TCNT0;
    6c4c:	26 b5       	in	r18, 0x26	; 38
#else
	#error TIMER 0 not defined
#endif

#ifdef TIFR0
	if ((TIFR0 & _BV(TOV0)) && (t < 255))
    6c4e:	a8 9b       	sbis	0x15, 0	; 21
    6c50:	05 c0       	rjmp	.+10     	; 0x6c5c <micros+0x24>
    6c52:	2f 3f       	cpi	r18, 0xFF	; 255
    6c54:	19 f0       	breq	.+6      	; 0x6c5c <micros+0x24>
		m++;
    6c56:	01 96       	adiw	r24, 0x01	; 1
    6c58:	a1 1d       	adc	r26, r1
    6c5a:	b1 1d       	adc	r27, r1
#else
	if ((TIFR & _BV(TOV0)) && (t < 255))
		m++;
#endif

	SREG = oldSREG;
    6c5c:	3f bf       	out	0x3f, r19	; 63
	
	return ((m << 8) + t) * (64 / clockCyclesPerMicrosecond());
    6c5e:	ba 2f       	mov	r27, r26
    6c60:	a9 2f       	mov	r26, r25
    6c62:	98 2f       	mov	r25, r24
    6c64:	88 27       	eor	r24, r24
    6c66:	82 0f       	add	r24, r18
    6c68:	91 1d       	adc	r25, r1
    6c6a:	a1 1d       	adc	r26, r1
    6c6c:	b1 1d       	adc	r27, r1
    6c6e:	bc 01       	movw	r22, r24
    6c70:	cd 01       	movw	r24, r26
    6c72:	42 e0       	ldi	r20, 0x02	; 2
    6c74:	66 0f       	add	r22, r22
    6c76:	77 1f       	adc	r23, r23
    6c78:	88 1f       	adc	r24, r24
    6c7a:	99 1f       	adc	r25, r25
    6c7c:	4a 95       	dec	r20
    6c7e:	d1 f7       	brne	.-12     	; 0x6c74 <micros+0x3c>
}
    6c80:	08 95       	ret

00006c82 <delay>:

void delay(unsigned long ms)
{
    6c82:	8f 92       	push	r8
    6c84:	9f 92       	push	r9
    6c86:	af 92       	push	r10
    6c88:	bf 92       	push	r11
    6c8a:	cf 92       	push	r12
    6c8c:	df 92       	push	r13
    6c8e:	ef 92       	push	r14
    6c90:	ff 92       	push	r15
    6c92:	6b 01       	movw	r12, r22
    6c94:	7c 01       	movw	r14, r24
	uint32_t start = micros();
    6c96:	d0 df       	rcall	.-96     	; 0x6c38 <micros>
    6c98:	4b 01       	movw	r8, r22
    6c9a:	5c 01       	movw	r10, r24

	while (ms > 0) {
    6c9c:	c1 14       	cp	r12, r1
    6c9e:	d1 04       	cpc	r13, r1
    6ca0:	e1 04       	cpc	r14, r1
    6ca2:	f1 04       	cpc	r15, r1
		yield();
    6ca4:	f1 f0       	breq	.+60     	; 0x6ce2 <delay+0x60>
		while ( ms > 0 && (micros() - start) >= 1000) {
    6ca6:	f5 d1       	rcall	.+1002   	; 0x7092 <yield>
    6ca8:	c7 df       	rcall	.-114    	; 0x6c38 <micros>
    6caa:	dc 01       	movw	r26, r24
    6cac:	cb 01       	movw	r24, r22
    6cae:	88 19       	sub	r24, r8
    6cb0:	99 09       	sbc	r25, r9
    6cb2:	aa 09       	sbc	r26, r10
    6cb4:	bb 09       	sbc	r27, r11
    6cb6:	88 3e       	cpi	r24, 0xE8	; 232
    6cb8:	93 40       	sbci	r25, 0x03	; 3
    6cba:	a1 05       	cpc	r26, r1
    6cbc:	b1 05       	cpc	r27, r1
    6cbe:	70 f3       	brcs	.-36     	; 0x6c9c <delay+0x1a>
			ms--;
    6cc0:	21 e0       	ldi	r18, 0x01	; 1
    6cc2:	c2 1a       	sub	r12, r18
    6cc4:	d1 08       	sbc	r13, r1
    6cc6:	e1 08       	sbc	r14, r1
    6cc8:	f1 08       	sbc	r15, r1
			start += 1000;
    6cca:	88 ee       	ldi	r24, 0xE8	; 232
    6ccc:	88 0e       	add	r8, r24
    6cce:	83 e0       	ldi	r24, 0x03	; 3
    6cd0:	98 1e       	adc	r9, r24
    6cd2:	a1 1c       	adc	r10, r1
    6cd4:	b1 1c       	adc	r11, r1
{
	uint32_t start = micros();

	while (ms > 0) {
		yield();
		while ( ms > 0 && (micros() - start) >= 1000) {
    6cd6:	c1 14       	cp	r12, r1
    6cd8:	d1 04       	cpc	r13, r1
    6cda:	e1 04       	cpc	r14, r1
    6cdc:	f1 04       	cpc	r15, r1
    6cde:	21 f7       	brne	.-56     	; 0x6ca8 <delay+0x26>
    6ce0:	dd cf       	rjmp	.-70     	; 0x6c9c <delay+0x1a>
			ms--;
			start += 1000;
		}
	}
}
    6ce2:	ff 90       	pop	r15
    6ce4:	ef 90       	pop	r14
    6ce6:	df 90       	pop	r13
    6ce8:	cf 90       	pop	r12
    6cea:	bf 90       	pop	r11
    6cec:	af 90       	pop	r10
    6cee:	9f 90       	pop	r9
    6cf0:	8f 90       	pop	r8
    6cf2:	08 95       	ret

00006cf4 <delayMicroseconds>:
#elif F_CPU >= 16000000L
	// for the 16 MHz clock on most Arduino boards

	// for a one-microsecond delay, simply return.  the overhead
	// of the function call takes 14 (16) cycles, which is 1us
	if (us <= 1) return; //  = 3 cycles, (4 when true)
    6cf4:	82 30       	cpi	r24, 0x02	; 2
    6cf6:	91 05       	cpc	r25, r1
    6cf8:	38 f0       	brcs	.+14     	; 0x6d08 <delayMicroseconds+0x14>

	// the following loop takes 1/4 of a microsecond (4 cycles)
	// per iteration, so execute it four times for each microsecond of
	// delay requested.
	us <<= 2; // x4 us, = 4 cycles
    6cfa:	88 0f       	add	r24, r24
    6cfc:	99 1f       	adc	r25, r25
    6cfe:	88 0f       	add	r24, r24
    6d00:	99 1f       	adc	r25, r25

	// account for the time taken in the preceeding commands.
	// we just burned 19 (21) cycles above, remove 5, (5*4=20)
	// us is at least 8 so we can substract 5
	us -= 5; // = 2 cycles,
    6d02:	05 97       	sbiw	r24, 0x05	; 5
	

#endif

	// busy wait
	__asm__ __volatile__ (
    6d04:	01 97       	sbiw	r24, 0x01	; 1
    6d06:	f1 f7       	brne	.-4      	; 0x6d04 <delayMicroseconds+0x10>
    6d08:	08 95       	ret

00006d0a <init>:

void init()
{
	// this needs to be called before setup() or some functions won't
	// work there
	sei();
    6d0a:	78 94       	sei
	
	// on the ATmega168, timer 0 is also used for fast hardware pwm
	// (using phase-correct PWM would mean that timer 0 overflowed half as often
	// resulting in different millis() behavior on the ATmega8 and ATmega168)
#if defined(TCCR0A) && defined(WGM01)
	sbi(TCCR0A, WGM01);
    6d0c:	84 b5       	in	r24, 0x24	; 36
    6d0e:	82 60       	ori	r24, 0x02	; 2
    6d10:	84 bd       	out	0x24, r24	; 36
	sbi(TCCR0A, WGM00);
    6d12:	84 b5       	in	r24, 0x24	; 36
    6d14:	81 60       	ori	r24, 0x01	; 1
    6d16:	84 bd       	out	0x24, r24	; 36
	// this combination is for the standard atmega8
	sbi(TCCR0, CS01);
	sbi(TCCR0, CS00);
#elif defined(TCCR0B) && defined(CS01) && defined(CS00)
	// this combination is for the standard 168/328/1280/2560
	sbi(TCCR0B, CS01);
    6d18:	85 b5       	in	r24, 0x25	; 37
    6d1a:	82 60       	ori	r24, 0x02	; 2
    6d1c:	85 bd       	out	0x25, r24	; 37
	sbi(TCCR0B, CS00);
    6d1e:	85 b5       	in	r24, 0x25	; 37
    6d20:	81 60       	ori	r24, 0x01	; 1
    6d22:	85 bd       	out	0x25, r24	; 37

	// enable timer 0 overflow interrupt
#if defined(TIMSK) && defined(TOIE0)
	sbi(TIMSK, TOIE0);
#elif defined(TIMSK0) && defined(TOIE0)
	sbi(TIMSK0, TOIE0);
    6d24:	ee e6       	ldi	r30, 0x6E	; 110
    6d26:	f0 e0       	ldi	r31, 0x00	; 0
    6d28:	80 81       	ld	r24, Z
    6d2a:	81 60       	ori	r24, 0x01	; 1
    6d2c:	80 83       	st	Z, r24
	// this is better for motors as it ensures an even waveform
	// note, however, that fast pwm mode can achieve a frequency of up
	// 8 MHz (with a 16 MHz clock) at 50% duty cycle

#if defined(TCCR1B) && defined(CS11) && defined(CS10)
	TCCR1B = 0;
    6d2e:	e1 e8       	ldi	r30, 0x81	; 129
    6d30:	f0 e0       	ldi	r31, 0x00	; 0
    6d32:	10 82       	st	Z, r1

	// set timer 1 prescale factor to 64
	sbi(TCCR1B, CS11);
    6d34:	80 81       	ld	r24, Z
    6d36:	82 60       	ori	r24, 0x02	; 2
    6d38:	80 83       	st	Z, r24
#if F_CPU >= 8000000L
	sbi(TCCR1B, CS10);
    6d3a:	80 81       	ld	r24, Z
    6d3c:	81 60       	ori	r24, 0x01	; 1
    6d3e:	80 83       	st	Z, r24
	sbi(TCCR1, CS10);
#endif
#endif
	// put timer 1 in 8-bit phase correct pwm mode
#if defined(TCCR1A) && defined(WGM10)
	sbi(TCCR1A, WGM10);
    6d40:	e0 e8       	ldi	r30, 0x80	; 128
    6d42:	f0 e0       	ldi	r31, 0x00	; 0
    6d44:	80 81       	ld	r24, Z
    6d46:	81 60       	ori	r24, 0x01	; 1
    6d48:	80 83       	st	Z, r24

	// set timer 2 prescale factor to 64
#if defined(TCCR2) && defined(CS22)
	sbi(TCCR2, CS22);
#elif defined(TCCR2B) && defined(CS22)
	sbi(TCCR2B, CS22);
    6d4a:	e1 eb       	ldi	r30, 0xB1	; 177
    6d4c:	f0 e0       	ldi	r31, 0x00	; 0
    6d4e:	80 81       	ld	r24, Z
    6d50:	84 60       	ori	r24, 0x04	; 4
    6d52:	80 83       	st	Z, r24

	// configure timer 2 for phase correct pwm (8-bit)
#if defined(TCCR2) && defined(WGM20)
	sbi(TCCR2, WGM20);
#elif defined(TCCR2A) && defined(WGM20)
	sbi(TCCR2A, WGM20);
    6d54:	e0 eb       	ldi	r30, 0xB0	; 176
    6d56:	f0 e0       	ldi	r31, 0x00	; 0
    6d58:	80 81       	ld	r24, Z
    6d5a:	81 60       	ori	r24, 0x01	; 1
    6d5c:	80 83       	st	Z, r24
//#else
	// Timer 2 not finished (may not be present on this CPU)
#endif

#if defined(TCCR3B) && defined(CS31) && defined(WGM30)
	sbi(TCCR3B, CS31);		// set timer 3 prescale factor to 64
    6d5e:	e1 e9       	ldi	r30, 0x91	; 145
    6d60:	f0 e0       	ldi	r31, 0x00	; 0
    6d62:	80 81       	ld	r24, Z
    6d64:	82 60       	ori	r24, 0x02	; 2
    6d66:	80 83       	st	Z, r24
	sbi(TCCR3B, CS30);
    6d68:	80 81       	ld	r24, Z
    6d6a:	81 60       	ori	r24, 0x01	; 1
    6d6c:	80 83       	st	Z, r24
	sbi(TCCR3A, WGM30);		// put timer 3 in 8-bit phase correct pwm mode
    6d6e:	e0 e9       	ldi	r30, 0x90	; 144
    6d70:	f0 e0       	ldi	r31, 0x00	; 0
    6d72:	80 81       	ld	r24, Z
    6d74:	81 60       	ori	r24, 0x01	; 1
    6d76:	80 83       	st	Z, r24
	sbi(TCCR4D, WGM40);		// put timer 4 in phase- and frequency-correct PWM mode	
	sbi(TCCR4A, PWM4A);		// enable PWM mode for comparator OCR4A
	sbi(TCCR4C, PWM4D);		// enable PWM mode for comparator OCR4D
#else /* beginning of timer4 block for ATMEGA1280 and ATMEGA2560 */
#if defined(TCCR4B) && defined(CS41) && defined(WGM40)
	sbi(TCCR4B, CS41);		// set timer 4 prescale factor to 64
    6d78:	e1 ea       	ldi	r30, 0xA1	; 161
    6d7a:	f0 e0       	ldi	r31, 0x00	; 0
    6d7c:	80 81       	ld	r24, Z
    6d7e:	82 60       	ori	r24, 0x02	; 2
    6d80:	80 83       	st	Z, r24
	sbi(TCCR4B, CS40);
    6d82:	80 81       	ld	r24, Z
    6d84:	81 60       	ori	r24, 0x01	; 1
    6d86:	80 83       	st	Z, r24
	sbi(TCCR4A, WGM40);		// put timer 4 in 8-bit phase correct pwm mode
    6d88:	e0 ea       	ldi	r30, 0xA0	; 160
    6d8a:	f0 e0       	ldi	r31, 0x00	; 0
    6d8c:	80 81       	ld	r24, Z
    6d8e:	81 60       	ori	r24, 0x01	; 1
    6d90:	80 83       	st	Z, r24
#endif
#endif /* end timer4 block for ATMEGA1280/2560 and similar */	

#if defined(TCCR5B) && defined(CS51) && defined(WGM50)
	sbi(TCCR5B, CS51);		// set timer 5 prescale factor to 64
    6d92:	e1 e2       	ldi	r30, 0x21	; 33
    6d94:	f1 e0       	ldi	r31, 0x01	; 1
    6d96:	80 81       	ld	r24, Z
    6d98:	82 60       	ori	r24, 0x02	; 2
    6d9a:	80 83       	st	Z, r24
	sbi(TCCR5B, CS50);
    6d9c:	80 81       	ld	r24, Z
    6d9e:	81 60       	ori	r24, 0x01	; 1
    6da0:	80 83       	st	Z, r24
	sbi(TCCR5A, WGM50);		// put timer 5 in 8-bit phase correct pwm mode
    6da2:	e0 e2       	ldi	r30, 0x20	; 32
    6da4:	f1 e0       	ldi	r31, 0x01	; 1
    6da6:	80 81       	ld	r24, Z
    6da8:	81 60       	ori	r24, 0x01	; 1
    6daa:	80 83       	st	Z, r24
#endif

#if defined(ADCSRA)
	// set a2d prescaler so we are inside the desired 50-200 KHz range.
	#if F_CPU >= 16000000 // 16 MHz / 128 = 125 KHz
		sbi(ADCSRA, ADPS2);
    6dac:	ea e7       	ldi	r30, 0x7A	; 122
    6dae:	f0 e0       	ldi	r31, 0x00	; 0
    6db0:	80 81       	ld	r24, Z
    6db2:	84 60       	ori	r24, 0x04	; 4
    6db4:	80 83       	st	Z, r24
		sbi(ADCSRA, ADPS1);
    6db6:	80 81       	ld	r24, Z
    6db8:	82 60       	ori	r24, 0x02	; 2
    6dba:	80 83       	st	Z, r24
		sbi(ADCSRA, ADPS0);
    6dbc:	80 81       	ld	r24, Z
    6dbe:	81 60       	ori	r24, 0x01	; 1
    6dc0:	80 83       	st	Z, r24
		cbi(ADCSRA, ADPS2);
		cbi(ADCSRA, ADPS1);
		sbi(ADCSRA, ADPS0);
	#endif
	// enable a2d conversions
	sbi(ADCSRA, ADEN);
    6dc2:	80 81       	ld	r24, Z
    6dc4:	80 68       	ori	r24, 0x80	; 128
    6dc6:	80 83       	st	Z, r24
	// here so they can be used as normal digital i/o; they will be
	// reconnected in Serial.begin()
#if defined(UCSRB)
	UCSRB = 0;
#elif defined(UCSR0B)
	UCSR0B = 0;
    6dc8:	10 92 c1 00 	sts	0x00C1, r1	; 0x8000c1 <__TEXT_REGION_LENGTH__+0x7000c1>
    6dcc:	08 95       	ret

00006dce <turnOffPWM>:
//
//static inline void turnOffPWM(uint8_t timer) __attribute__ ((always_inline));
//static inline void turnOffPWM(uint8_t timer)
static void turnOffPWM(uint8_t timer)
{
	switch (timer)
    6dce:	90 e0       	ldi	r25, 0x00	; 0
    6dd0:	fc 01       	movw	r30, r24
    6dd2:	31 97       	sbiw	r30, 0x01	; 1
    6dd4:	e2 31       	cpi	r30, 0x12	; 18
    6dd6:	f1 05       	cpc	r31, r1
    6dd8:	08 f0       	brcs	.+2      	; 0x6ddc <turnOffPWM+0xe>
    6dda:	4d c0       	rjmp	.+154    	; 0x6e76 <turnOffPWM+0xa8>
    6ddc:	88 27       	eor	r24, r24
    6dde:	eb 54       	subi	r30, 0x4B	; 75
    6de0:	ff 4f       	sbci	r31, 0xFF	; 255
    6de2:	8f 4f       	sbci	r24, 0xFF	; 255
    6de4:	a4 c1       	rjmp	.+840    	; 0x712e <__tablejump2__>
	{
		#if defined(TCCR1A) && defined(COM1A1)
		case TIMER1A:   cbi(TCCR1A, COM1A1);    break;
    6de6:	80 91 80 00 	lds	r24, 0x0080	; 0x800080 <__TEXT_REGION_LENGTH__+0x700080>
    6dea:	8f 77       	andi	r24, 0x7F	; 127
    6dec:	03 c0       	rjmp	.+6      	; 0x6df4 <turnOffPWM+0x26>
		#endif
		#if defined(TCCR1A) && defined(COM1B1)
		case TIMER1B:   cbi(TCCR1A, COM1B1);    break;
    6dee:	80 91 80 00 	lds	r24, 0x0080	; 0x800080 <__TEXT_REGION_LENGTH__+0x700080>
    6df2:	8f 7d       	andi	r24, 0xDF	; 223
    6df4:	80 93 80 00 	sts	0x0080, r24	; 0x800080 <__TEXT_REGION_LENGTH__+0x700080>
    6df8:	08 95       	ret
		#endif
		#if defined(TCCR1A) && defined(COM1C1)
		case TIMER1C:   cbi(TCCR1A, COM1C1);    break;
    6dfa:	80 91 80 00 	lds	r24, 0x0080	; 0x800080 <__TEXT_REGION_LENGTH__+0x700080>
    6dfe:	87 7f       	andi	r24, 0xF7	; 247
    6e00:	f9 cf       	rjmp	.-14     	; 0x6df4 <turnOffPWM+0x26>
		#if defined(TCCR2) && defined(COM21)
		case  TIMER2:   cbi(TCCR2, COM21);      break;
		#endif
		
		#if defined(TCCR0A) && defined(COM0A1)
		case  TIMER0A:  cbi(TCCR0A, COM0A1);    break;
    6e02:	84 b5       	in	r24, 0x24	; 36
    6e04:	8f 77       	andi	r24, 0x7F	; 127
    6e06:	02 c0       	rjmp	.+4      	; 0x6e0c <turnOffPWM+0x3e>
		#endif
		
		#if defined(TCCR0A) && defined(COM0B1)
		case  TIMER0B:  cbi(TCCR0A, COM0B1);    break;
    6e08:	84 b5       	in	r24, 0x24	; 36
    6e0a:	8f 7d       	andi	r24, 0xDF	; 223
    6e0c:	84 bd       	out	0x24, r24	; 36
    6e0e:	08 95       	ret
		#endif
		#if defined(TCCR2A) && defined(COM2A1)
		case  TIMER2A:  cbi(TCCR2A, COM2A1);    break;
    6e10:	80 91 b0 00 	lds	r24, 0x00B0	; 0x8000b0 <__TEXT_REGION_LENGTH__+0x7000b0>
    6e14:	8f 77       	andi	r24, 0x7F	; 127
    6e16:	03 c0       	rjmp	.+6      	; 0x6e1e <turnOffPWM+0x50>
		#endif
		#if defined(TCCR2A) && defined(COM2B1)
		case  TIMER2B:  cbi(TCCR2A, COM2B1);    break;
    6e18:	80 91 b0 00 	lds	r24, 0x00B0	; 0x8000b0 <__TEXT_REGION_LENGTH__+0x7000b0>
    6e1c:	8f 7d       	andi	r24, 0xDF	; 223
    6e1e:	80 93 b0 00 	sts	0x00B0, r24	; 0x8000b0 <__TEXT_REGION_LENGTH__+0x7000b0>
    6e22:	08 95       	ret
		#endif
		
		#if defined(TCCR3A) && defined(COM3A1)
		case  TIMER3A:  cbi(TCCR3A, COM3A1);    break;
    6e24:	80 91 90 00 	lds	r24, 0x0090	; 0x800090 <__TEXT_REGION_LENGTH__+0x700090>
    6e28:	8f 77       	andi	r24, 0x7F	; 127
    6e2a:	07 c0       	rjmp	.+14     	; 0x6e3a <turnOffPWM+0x6c>
		#endif
		#if defined(TCCR3A) && defined(COM3B1)
		case  TIMER3B:  cbi(TCCR3A, COM3B1);    break;
    6e2c:	80 91 90 00 	lds	r24, 0x0090	; 0x800090 <__TEXT_REGION_LENGTH__+0x700090>
    6e30:	8f 7d       	andi	r24, 0xDF	; 223
    6e32:	03 c0       	rjmp	.+6      	; 0x6e3a <turnOffPWM+0x6c>
		#endif
		#if defined(TCCR3A) && defined(COM3C1)
		case  TIMER3C:  cbi(TCCR3A, COM3C1);    break;
    6e34:	80 91 90 00 	lds	r24, 0x0090	; 0x800090 <__TEXT_REGION_LENGTH__+0x700090>
    6e38:	87 7f       	andi	r24, 0xF7	; 247
    6e3a:	80 93 90 00 	sts	0x0090, r24	; 0x800090 <__TEXT_REGION_LENGTH__+0x700090>
    6e3e:	08 95       	ret
		#endif

		#if defined(TCCR4A) && defined(COM4A1)
		case  TIMER4A:  cbi(TCCR4A, COM4A1);    break;
    6e40:	80 91 a0 00 	lds	r24, 0x00A0	; 0x8000a0 <__TEXT_REGION_LENGTH__+0x7000a0>
    6e44:	8f 77       	andi	r24, 0x7F	; 127
    6e46:	07 c0       	rjmp	.+14     	; 0x6e56 <turnOffPWM+0x88>
		#endif					
		#if defined(TCCR4A) && defined(COM4B1)
		case  TIMER4B:  cbi(TCCR4A, COM4B1);    break;
    6e48:	80 91 a0 00 	lds	r24, 0x00A0	; 0x8000a0 <__TEXT_REGION_LENGTH__+0x7000a0>
    6e4c:	8f 7d       	andi	r24, 0xDF	; 223
    6e4e:	03 c0       	rjmp	.+6      	; 0x6e56 <turnOffPWM+0x88>
		#endif
		#if defined(TCCR4A) && defined(COM4C1)
		case  TIMER4C:  cbi(TCCR4A, COM4C1);    break;
    6e50:	80 91 a0 00 	lds	r24, 0x00A0	; 0x8000a0 <__TEXT_REGION_LENGTH__+0x7000a0>
    6e54:	87 7f       	andi	r24, 0xF7	; 247
    6e56:	80 93 a0 00 	sts	0x00A0, r24	; 0x8000a0 <__TEXT_REGION_LENGTH__+0x7000a0>
    6e5a:	08 95       	ret
		#if defined(TCCR4C) && defined(COM4D1)
		case TIMER4D:	cbi(TCCR4C, COM4D1);	break;
		#endif			
			
		#if defined(TCCR5A)
		case  TIMER5A:  cbi(TCCR5A, COM5A1);    break;
    6e5c:	80 91 20 01 	lds	r24, 0x0120	; 0x800120 <__TEXT_REGION_LENGTH__+0x700120>
    6e60:	8f 77       	andi	r24, 0x7F	; 127
    6e62:	07 c0       	rjmp	.+14     	; 0x6e72 <turnOffPWM+0xa4>
		case  TIMER5B:  cbi(TCCR5A, COM5B1);    break;
    6e64:	80 91 20 01 	lds	r24, 0x0120	; 0x800120 <__TEXT_REGION_LENGTH__+0x700120>
    6e68:	8f 7d       	andi	r24, 0xDF	; 223
    6e6a:	03 c0       	rjmp	.+6      	; 0x6e72 <turnOffPWM+0xa4>
		case  TIMER5C:  cbi(TCCR5A, COM5C1);    break;
    6e6c:	80 91 20 01 	lds	r24, 0x0120	; 0x800120 <__TEXT_REGION_LENGTH__+0x700120>
    6e70:	87 7f       	andi	r24, 0xF7	; 247
    6e72:	80 93 20 01 	sts	0x0120, r24	; 0x800120 <__TEXT_REGION_LENGTH__+0x700120>
    6e76:	08 95       	ret

00006e78 <pinMode>:
#define ARDUINO_MAIN
#include "wiring_private.h"
#include "pins_arduino.h"

void pinMode(uint8_t pin, uint8_t mode)
{
    6e78:	cf 93       	push	r28
    6e7a:	df 93       	push	r29
	uint8_t bit = digitalPinToBitMask(pin);
    6e7c:	90 e0       	ldi	r25, 0x00	; 0
    6e7e:	fc 01       	movw	r30, r24
    6e80:	e0 5d       	subi	r30, 0xD0	; 208
    6e82:	fd 4e       	sbci	r31, 0xED	; 237
    6e84:	24 91       	lpm	r18, Z
	uint8_t port = digitalPinToPort(pin);
    6e86:	fc 01       	movw	r30, r24
    6e88:	ea 58       	subi	r30, 0x8A	; 138
    6e8a:	fd 4e       	sbci	r31, 0xED	; 237
    6e8c:	84 91       	lpm	r24, Z
	volatile uint8_t *reg, *out;

	if (port == NOT_A_PIN) return;
    6e8e:	88 23       	and	r24, r24
    6e90:	61 f1       	breq	.+88     	; 0x6eea <pinMode+0x72>

	// JWS: can I let the optimizer do this?
	reg = portModeRegister(port);
    6e92:	90 e0       	ldi	r25, 0x00	; 0
    6e94:	88 0f       	add	r24, r24
    6e96:	99 1f       	adc	r25, r25
    6e98:	fc 01       	movw	r30, r24
    6e9a:	e0 51       	subi	r30, 0x10	; 16
    6e9c:	fd 4e       	sbci	r31, 0xED	; 237
    6e9e:	c5 91       	lpm	r28, Z+
    6ea0:	d4 91       	lpm	r29, Z
	out = portOutputRegister(port);
    6ea2:	fc 01       	movw	r30, r24
    6ea4:	ea 52       	subi	r30, 0x2A	; 42
    6ea6:	fd 4e       	sbci	r31, 0xED	; 237
    6ea8:	a5 91       	lpm	r26, Z+
    6eaa:	b4 91       	lpm	r27, Z

	if (mode == INPUT) { 
    6eac:	61 11       	cpse	r22, r1
    6eae:	09 c0       	rjmp	.+18     	; 0x6ec2 <pinMode+0x4a>
		uint8_t oldSREG = SREG;
    6eb0:	9f b7       	in	r25, 0x3f	; 63
                cli();
    6eb2:	f8 94       	cli
		*reg &= ~bit;
    6eb4:	88 81       	ld	r24, Y
    6eb6:	20 95       	com	r18
    6eb8:	82 23       	and	r24, r18
    6eba:	88 83       	st	Y, r24
		*out &= ~bit;
    6ebc:	ec 91       	ld	r30, X
    6ebe:	2e 23       	and	r18, r30
    6ec0:	0b c0       	rjmp	.+22     	; 0x6ed8 <pinMode+0x60>
		SREG = oldSREG;
	} else if (mode == INPUT_PULLUP) {
    6ec2:	62 30       	cpi	r22, 0x02	; 2
    6ec4:	61 f4       	brne	.+24     	; 0x6ede <pinMode+0x66>
		uint8_t oldSREG = SREG;
    6ec6:	9f b7       	in	r25, 0x3f	; 63
                cli();
    6ec8:	f8 94       	cli
		*reg &= ~bit;
    6eca:	88 81       	ld	r24, Y
    6ecc:	32 2f       	mov	r19, r18
    6ece:	30 95       	com	r19
    6ed0:	83 23       	and	r24, r19
    6ed2:	88 83       	st	Y, r24
		*out |= bit;
    6ed4:	ec 91       	ld	r30, X
    6ed6:	2e 2b       	or	r18, r30
    6ed8:	2c 93       	st	X, r18
		SREG = oldSREG;
    6eda:	9f bf       	out	0x3f, r25	; 63
    6edc:	06 c0       	rjmp	.+12     	; 0x6eea <pinMode+0x72>
	} else {
		uint8_t oldSREG = SREG;
    6ede:	8f b7       	in	r24, 0x3f	; 63
                cli();
    6ee0:	f8 94       	cli
		*reg |= bit;
    6ee2:	e8 81       	ld	r30, Y
    6ee4:	2e 2b       	or	r18, r30
    6ee6:	28 83       	st	Y, r18
		SREG = oldSREG;
    6ee8:	8f bf       	out	0x3f, r24	; 63
	}
}
    6eea:	df 91       	pop	r29
    6eec:	cf 91       	pop	r28
    6eee:	08 95       	ret

00006ef0 <digitalWrite>:
		#endif
	}
}

void digitalWrite(uint8_t pin, uint8_t val)
{
    6ef0:	1f 93       	push	r17
    6ef2:	cf 93       	push	r28
    6ef4:	df 93       	push	r29
	uint8_t timer = digitalPinToTimer(pin);
    6ef6:	28 2f       	mov	r18, r24
    6ef8:	30 e0       	ldi	r19, 0x00	; 0
    6efa:	f9 01       	movw	r30, r18
    6efc:	e6 51       	subi	r30, 0x16	; 22
    6efe:	fe 4e       	sbci	r31, 0xEE	; 238
    6f00:	84 91       	lpm	r24, Z
	uint8_t bit = digitalPinToBitMask(pin);
    6f02:	f9 01       	movw	r30, r18
    6f04:	e0 5d       	subi	r30, 0xD0	; 208
    6f06:	fd 4e       	sbci	r31, 0xED	; 237
    6f08:	d4 91       	lpm	r29, Z
	uint8_t port = digitalPinToPort(pin);
    6f0a:	f9 01       	movw	r30, r18
    6f0c:	ea 58       	subi	r30, 0x8A	; 138
    6f0e:	fd 4e       	sbci	r31, 0xED	; 237
    6f10:	c4 91       	lpm	r28, Z
	volatile uint8_t *out;

	if (port == NOT_A_PIN) return;
    6f12:	cc 23       	and	r28, r28
    6f14:	b9 f0       	breq	.+46     	; 0x6f44 <digitalWrite+0x54>
    6f16:	16 2f       	mov	r17, r22

	// If the pin that support PWM output, we need to turn it off
	// before doing a digital write.
	if (timer != NOT_ON_TIMER) turnOffPWM(timer);
    6f18:	81 11       	cpse	r24, r1
    6f1a:	59 df       	rcall	.-334    	; 0x6dce <turnOffPWM>

	out = portOutputRegister(port);
    6f1c:	ec 2f       	mov	r30, r28
    6f1e:	f0 e0       	ldi	r31, 0x00	; 0
    6f20:	ee 0f       	add	r30, r30
    6f22:	ff 1f       	adc	r31, r31
    6f24:	ea 52       	subi	r30, 0x2A	; 42
    6f26:	fd 4e       	sbci	r31, 0xED	; 237
    6f28:	a5 91       	lpm	r26, Z+
    6f2a:	b4 91       	lpm	r27, Z

	uint8_t oldSREG = SREG;
    6f2c:	9f b7       	in	r25, 0x3f	; 63
	cli();
    6f2e:	f8 94       	cli

	if (val == LOW) {
    6f30:	11 11       	cpse	r17, r1
    6f32:	04 c0       	rjmp	.+8      	; 0x6f3c <digitalWrite+0x4c>
		*out &= ~bit;
    6f34:	8c 91       	ld	r24, X
    6f36:	d0 95       	com	r29
    6f38:	d8 23       	and	r29, r24
    6f3a:	02 c0       	rjmp	.+4      	; 0x6f40 <digitalWrite+0x50>
	} else {
		*out |= bit;
    6f3c:	ec 91       	ld	r30, X
    6f3e:	de 2b       	or	r29, r30
    6f40:	dc 93       	st	X, r29
	}

	SREG = oldSREG;
    6f42:	9f bf       	out	0x3f, r25	; 63
}
    6f44:	df 91       	pop	r29
    6f46:	cf 91       	pop	r28
    6f48:	1f 91       	pop	r17
    6f4a:	08 95       	ret

00006f4c <digitalRead>:

int digitalRead(uint8_t pin)
{
    6f4c:	cf 93       	push	r28
    6f4e:	df 93       	push	r29
	uint8_t timer = digitalPinToTimer(pin);
    6f50:	28 2f       	mov	r18, r24
    6f52:	30 e0       	ldi	r19, 0x00	; 0
    6f54:	f9 01       	movw	r30, r18
    6f56:	e6 51       	subi	r30, 0x16	; 22
    6f58:	fe 4e       	sbci	r31, 0xEE	; 238
    6f5a:	84 91       	lpm	r24, Z
	uint8_t bit = digitalPinToBitMask(pin);
    6f5c:	f9 01       	movw	r30, r18
    6f5e:	e0 5d       	subi	r30, 0xD0	; 208
    6f60:	fd 4e       	sbci	r31, 0xED	; 237
    6f62:	d4 91       	lpm	r29, Z
	uint8_t port = digitalPinToPort(pin);
    6f64:	f9 01       	movw	r30, r18
    6f66:	ea 58       	subi	r30, 0x8A	; 138
    6f68:	fd 4e       	sbci	r31, 0xED	; 237
    6f6a:	c4 91       	lpm	r28, Z

	if (port == NOT_A_PIN) return LOW;
    6f6c:	cc 23       	and	r28, r28
    6f6e:	89 f0       	breq	.+34     	; 0x6f92 <digitalRead+0x46>

	// If the pin that support PWM output, we need to turn it off
	// before getting a digital reading.
	if (timer != NOT_ON_TIMER) turnOffPWM(timer);
    6f70:	81 11       	cpse	r24, r1
    6f72:	2d df       	rcall	.-422    	; 0x6dce <turnOffPWM>

	if (*portInputRegister(port) & bit) return HIGH;
    6f74:	ec 2f       	mov	r30, r28
    6f76:	f0 e0       	ldi	r31, 0x00	; 0
    6f78:	ee 0f       	add	r30, r30
    6f7a:	ff 1f       	adc	r31, r31
    6f7c:	e4 54       	subi	r30, 0x44	; 68
    6f7e:	fd 4e       	sbci	r31, 0xED	; 237
    6f80:	a5 91       	lpm	r26, Z+
    6f82:	b4 91       	lpm	r27, Z
    6f84:	ec 91       	ld	r30, X
{
	uint8_t timer = digitalPinToTimer(pin);
	uint8_t bit = digitalPinToBitMask(pin);
	uint8_t port = digitalPinToPort(pin);

	if (port == NOT_A_PIN) return LOW;
    6f86:	ed 23       	and	r30, r29
    6f88:	81 e0       	ldi	r24, 0x01	; 1
    6f8a:	90 e0       	ldi	r25, 0x00	; 0
    6f8c:	21 f4       	brne	.+8      	; 0x6f96 <digitalRead+0x4a>
    6f8e:	80 e0       	ldi	r24, 0x00	; 0
    6f90:	02 c0       	rjmp	.+4      	; 0x6f96 <digitalRead+0x4a>
    6f92:	80 e0       	ldi	r24, 0x00	; 0
    6f94:	90 e0       	ldi	r25, 0x00	; 0
	// before getting a digital reading.
	if (timer != NOT_ON_TIMER) turnOffPWM(timer);

	if (*portInputRegister(port) & bit) return HIGH;
	return LOW;
}
    6f96:	df 91       	pop	r29
    6f98:	cf 91       	pop	r28
    6f9a:	08 95       	ret

00006f9c <_ZN6StringD1Ev>:
	*this = dtostrf(value, (decimalPlaces + 2), decimalPlaces, buf);
}

String::~String()
{
	free(buffer);
    6f9c:	fc 01       	movw	r30, r24
    6f9e:	80 81       	ld	r24, Z
    6fa0:	91 81       	ldd	r25, Z+1	; 0x01
    6fa2:	7e c1       	rjmp	.+764    	; 0x72a0 <free>

00006fa4 <_ZN6String10invalidateEv>:
	capacity = 0;
	len = 0;
}

void String::invalidate(void)
{
    6fa4:	cf 93       	push	r28
    6fa6:	df 93       	push	r29
    6fa8:	ec 01       	movw	r28, r24
	if (buffer) free(buffer);
    6faa:	88 81       	ld	r24, Y
    6fac:	99 81       	ldd	r25, Y+1	; 0x01
    6fae:	00 97       	sbiw	r24, 0x00	; 0
    6fb0:	09 f0       	breq	.+2      	; 0x6fb4 <_ZN6String10invalidateEv+0x10>
    6fb2:	76 d1       	rcall	.+748    	; 0x72a0 <free>
	buffer = NULL;
    6fb4:	19 82       	std	Y+1, r1	; 0x01
    6fb6:	18 82       	st	Y, r1
	capacity = len = 0;
    6fb8:	1d 82       	std	Y+5, r1	; 0x05
    6fba:	1c 82       	std	Y+4, r1	; 0x04
    6fbc:	1b 82       	std	Y+3, r1	; 0x03
    6fbe:	1a 82       	std	Y+2, r1	; 0x02
}
    6fc0:	df 91       	pop	r29
    6fc2:	cf 91       	pop	r28
    6fc4:	08 95       	ret

00006fc6 <_ZN6String12changeBufferEj>:
	}
	return 0;
}

unsigned char String::changeBuffer(unsigned int maxStrLen)
{
    6fc6:	0f 93       	push	r16
    6fc8:	1f 93       	push	r17
    6fca:	cf 93       	push	r28
    6fcc:	df 93       	push	r29
    6fce:	ec 01       	movw	r28, r24
    6fd0:	8b 01       	movw	r16, r22
	char *newbuffer = (char *)realloc(buffer, maxStrLen + 1);
    6fd2:	6f 5f       	subi	r22, 0xFF	; 255
    6fd4:	7f 4f       	sbci	r23, 0xFF	; 255
    6fd6:	88 81       	ld	r24, Y
    6fd8:	99 81       	ldd	r25, Y+1	; 0x01
    6fda:	eb d1       	rcall	.+982    	; 0x73b2 <realloc>
	if (newbuffer) {
    6fdc:	00 97       	sbiw	r24, 0x00	; 0
    6fde:	31 f0       	breq	.+12     	; 0x6fec <_ZN6String12changeBufferEj+0x26>
		buffer = newbuffer;
    6fe0:	99 83       	std	Y+1, r25	; 0x01
    6fe2:	88 83       	st	Y, r24
		capacity = maxStrLen;
    6fe4:	1b 83       	std	Y+3, r17	; 0x03
    6fe6:	0a 83       	std	Y+2, r16	; 0x02
		return 1;
    6fe8:	81 e0       	ldi	r24, 0x01	; 1
    6fea:	01 c0       	rjmp	.+2      	; 0x6fee <_ZN6String12changeBufferEj+0x28>
	}
	return 0;
    6fec:	80 e0       	ldi	r24, 0x00	; 0
}
    6fee:	df 91       	pop	r29
    6ff0:	cf 91       	pop	r28
    6ff2:	1f 91       	pop	r17
    6ff4:	0f 91       	pop	r16
    6ff6:	08 95       	ret

00006ff8 <_ZN6String7reserveEj>:
	buffer = NULL;
	capacity = len = 0;
}

unsigned char String::reserve(unsigned int size)
{
    6ff8:	cf 93       	push	r28
    6ffa:	df 93       	push	r29
    6ffc:	ec 01       	movw	r28, r24
	if (buffer && capacity >= size) return 1;
    6ffe:	88 81       	ld	r24, Y
    7000:	99 81       	ldd	r25, Y+1	; 0x01
    7002:	89 2b       	or	r24, r25
    7004:	29 f0       	breq	.+10     	; 0x7010 <_ZN6String7reserveEj+0x18>
    7006:	8a 81       	ldd	r24, Y+2	; 0x02
    7008:	9b 81       	ldd	r25, Y+3	; 0x03
    700a:	86 17       	cp	r24, r22
    700c:	97 07       	cpc	r25, r23
    700e:	58 f4       	brcc	.+22     	; 0x7026 <_ZN6String7reserveEj+0x2e>
	if (changeBuffer(size)) {
    7010:	ce 01       	movw	r24, r28
    7012:	d9 df       	rcall	.-78     	; 0x6fc6 <_ZN6String12changeBufferEj>
    7014:	88 23       	and	r24, r24
    7016:	41 f0       	breq	.+16     	; 0x7028 <_ZN6String7reserveEj+0x30>
		if (len == 0) buffer[0] = 0;
    7018:	8c 81       	ldd	r24, Y+4	; 0x04
    701a:	9d 81       	ldd	r25, Y+5	; 0x05
    701c:	89 2b       	or	r24, r25
    701e:	19 f4       	brne	.+6      	; 0x7026 <_ZN6String7reserveEj+0x2e>
    7020:	e8 81       	ld	r30, Y
    7022:	f9 81       	ldd	r31, Y+1	; 0x01
    7024:	10 82       	st	Z, r1
    7026:	81 e0       	ldi	r24, 0x01	; 1
		return 1;
	}
	return 0;
}
    7028:	df 91       	pop	r29
    702a:	cf 91       	pop	r28
    702c:	08 95       	ret

0000702e <_ZN6String4copyEPKcj>:
/*********************************************/
/*  Copy and Move                            */
/*********************************************/

String & String::copy(const char *cstr, unsigned int length)
{
    702e:	ef 92       	push	r14
    7030:	ff 92       	push	r15
    7032:	0f 93       	push	r16
    7034:	1f 93       	push	r17
    7036:	cf 93       	push	r28
    7038:	df 93       	push	r29
    703a:	ec 01       	movw	r28, r24
    703c:	7b 01       	movw	r14, r22
    703e:	8a 01       	movw	r16, r20
	if (!reserve(length)) {
    7040:	ba 01       	movw	r22, r20
    7042:	da df       	rcall	.-76     	; 0x6ff8 <_ZN6String7reserveEj>
    7044:	81 11       	cpse	r24, r1
    7046:	03 c0       	rjmp	.+6      	; 0x704e <_ZN6String4copyEPKcj+0x20>
		invalidate();
    7048:	ce 01       	movw	r24, r28
    704a:	ac df       	rcall	.-168    	; 0x6fa4 <_ZN6String10invalidateEv>
		return *this;
    704c:	06 c0       	rjmp	.+12     	; 0x705a <_ZN6String4copyEPKcj+0x2c>
	}
	len = length;
    704e:	1d 83       	std	Y+5, r17	; 0x05
    7050:	0c 83       	std	Y+4, r16	; 0x04
	strcpy(buffer, cstr);
    7052:	b7 01       	movw	r22, r14
    7054:	88 81       	ld	r24, Y
    7056:	99 81       	ldd	r25, Y+1	; 0x01
    7058:	95 d2       	rcall	.+1322   	; 0x7584 <strcpy>
	return *this;
}
    705a:	ce 01       	movw	r24, r28
    705c:	df 91       	pop	r29
    705e:	cf 91       	pop	r28
    7060:	1f 91       	pop	r17
    7062:	0f 91       	pop	r16
    7064:	ff 90       	pop	r15
    7066:	ef 90       	pop	r14
    7068:	08 95       	ret

0000706a <_ZN6StringC1EPKc>:
/*  Memory Management                        */
/*********************************************/

inline void String::init(void)
{
	buffer = NULL;
    706a:	fc 01       	movw	r30, r24
    706c:	11 82       	std	Z+1, r1	; 0x01
    706e:	10 82       	st	Z, r1
	capacity = 0;
    7070:	13 82       	std	Z+3, r1	; 0x03
    7072:	12 82       	std	Z+2, r1	; 0x02
	len = 0;
    7074:	15 82       	std	Z+5, r1	; 0x05
    7076:	14 82       	std	Z+4, r1	; 0x04
/*********************************************/

String::String(const char *cstr)
{
	init();
	if (cstr) copy(cstr, strlen(cstr));
    7078:	61 15       	cp	r22, r1
    707a:	71 05       	cpc	r23, r1
    707c:	49 f0       	breq	.+18     	; 0x7090 <_ZN6StringC1EPKc+0x26>
    707e:	fb 01       	movw	r30, r22
    7080:	01 90       	ld	r0, Z+
    7082:	00 20       	and	r0, r0
    7084:	e9 f7       	brne	.-6      	; 0x7080 <_ZN6StringC1EPKc+0x16>
    7086:	31 97       	sbiw	r30, 0x01	; 1
    7088:	af 01       	movw	r20, r30
    708a:	46 1b       	sub	r20, r22
    708c:	57 0b       	sbc	r21, r23
    708e:	cf cf       	rjmp	.-98     	; 0x702e <_ZN6String4copyEPKcj>
    7090:	08 95       	ret

00007092 <yield>:
 * libraries or sketches that supports cooperative threads.
 *
 * Its defined as a weak symbol and it can be redefined to implement a
 * real cooperative scheduler.
 */
static void __empty() {
    7092:	08 95       	ret

00007094 <__mulsi3>:
    7094:	db 01       	movw	r26, r22
    7096:	8f 93       	push	r24
    7098:	9f 93       	push	r25
    709a:	51 d0       	rcall	.+162    	; 0x713e <__muluhisi3>
    709c:	bf 91       	pop	r27
    709e:	af 91       	pop	r26
    70a0:	a2 9f       	mul	r26, r18
    70a2:	80 0d       	add	r24, r0
    70a4:	91 1d       	adc	r25, r1
    70a6:	a3 9f       	mul	r26, r19
    70a8:	90 0d       	add	r25, r0
    70aa:	b2 9f       	mul	r27, r18
    70ac:	90 0d       	add	r25, r0
    70ae:	11 24       	eor	r1, r1
    70b0:	08 95       	ret

000070b2 <__udivmodsi4>:
    70b2:	a1 e2       	ldi	r26, 0x21	; 33
    70b4:	1a 2e       	mov	r1, r26
    70b6:	aa 1b       	sub	r26, r26
    70b8:	bb 1b       	sub	r27, r27
    70ba:	fd 01       	movw	r30, r26
    70bc:	0d c0       	rjmp	.+26     	; 0x70d8 <__udivmodsi4_ep>

000070be <__udivmodsi4_loop>:
    70be:	aa 1f       	adc	r26, r26
    70c0:	bb 1f       	adc	r27, r27
    70c2:	ee 1f       	adc	r30, r30
    70c4:	ff 1f       	adc	r31, r31
    70c6:	a2 17       	cp	r26, r18
    70c8:	b3 07       	cpc	r27, r19
    70ca:	e4 07       	cpc	r30, r20
    70cc:	f5 07       	cpc	r31, r21
    70ce:	20 f0       	brcs	.+8      	; 0x70d8 <__udivmodsi4_ep>
    70d0:	a2 1b       	sub	r26, r18
    70d2:	b3 0b       	sbc	r27, r19
    70d4:	e4 0b       	sbc	r30, r20
    70d6:	f5 0b       	sbc	r31, r21

000070d8 <__udivmodsi4_ep>:
    70d8:	66 1f       	adc	r22, r22
    70da:	77 1f       	adc	r23, r23
    70dc:	88 1f       	adc	r24, r24
    70de:	99 1f       	adc	r25, r25
    70e0:	1a 94       	dec	r1
    70e2:	69 f7       	brne	.-38     	; 0x70be <__udivmodsi4_loop>
    70e4:	60 95       	com	r22
    70e6:	70 95       	com	r23
    70e8:	80 95       	com	r24
    70ea:	90 95       	com	r25
    70ec:	9b 01       	movw	r18, r22
    70ee:	ac 01       	movw	r20, r24
    70f0:	bd 01       	movw	r22, r26
    70f2:	cf 01       	movw	r24, r30
    70f4:	08 95       	ret

000070f6 <__divmodsi4>:
    70f6:	05 2e       	mov	r0, r21
    70f8:	97 fb       	bst	r25, 7
    70fa:	16 f4       	brtc	.+4      	; 0x7100 <__divmodsi4+0xa>
    70fc:	00 94       	com	r0
    70fe:	0f d0       	rcall	.+30     	; 0x711e <__negsi2>
    7100:	57 fd       	sbrc	r21, 7
    7102:	05 d0       	rcall	.+10     	; 0x710e <__divmodsi4_neg2>
    7104:	d6 df       	rcall	.-84     	; 0x70b2 <__udivmodsi4>
    7106:	07 fc       	sbrc	r0, 7
    7108:	02 d0       	rcall	.+4      	; 0x710e <__divmodsi4_neg2>
    710a:	46 f4       	brtc	.+16     	; 0x711c <__divmodsi4_exit>
    710c:	08 c0       	rjmp	.+16     	; 0x711e <__negsi2>

0000710e <__divmodsi4_neg2>:
    710e:	50 95       	com	r21
    7110:	40 95       	com	r20
    7112:	30 95       	com	r19
    7114:	21 95       	neg	r18
    7116:	3f 4f       	sbci	r19, 0xFF	; 255
    7118:	4f 4f       	sbci	r20, 0xFF	; 255
    711a:	5f 4f       	sbci	r21, 0xFF	; 255

0000711c <__divmodsi4_exit>:
    711c:	08 95       	ret

0000711e <__negsi2>:
    711e:	90 95       	com	r25
    7120:	80 95       	com	r24
    7122:	70 95       	com	r23
    7124:	61 95       	neg	r22
    7126:	7f 4f       	sbci	r23, 0xFF	; 255
    7128:	8f 4f       	sbci	r24, 0xFF	; 255
    712a:	9f 4f       	sbci	r25, 0xFF	; 255
    712c:	08 95       	ret

0000712e <__tablejump2__>:
    712e:	ee 0f       	add	r30, r30
    7130:	ff 1f       	adc	r31, r31
    7132:	88 1f       	adc	r24, r24
    7134:	8b bf       	out	0x3b, r24	; 59
    7136:	07 90       	elpm	r0, Z+
    7138:	f6 91       	elpm	r31, Z
    713a:	e0 2d       	mov	r30, r0
    713c:	19 94       	eijmp

0000713e <__muluhisi3>:
    713e:	09 d0       	rcall	.+18     	; 0x7152 <__umulhisi3>
    7140:	a5 9f       	mul	r26, r21
    7142:	90 0d       	add	r25, r0
    7144:	b4 9f       	mul	r27, r20
    7146:	90 0d       	add	r25, r0
    7148:	a4 9f       	mul	r26, r20
    714a:	80 0d       	add	r24, r0
    714c:	91 1d       	adc	r25, r1
    714e:	11 24       	eor	r1, r1
    7150:	08 95       	ret

00007152 <__umulhisi3>:
    7152:	a2 9f       	mul	r26, r18
    7154:	b0 01       	movw	r22, r0
    7156:	b3 9f       	mul	r27, r19
    7158:	c0 01       	movw	r24, r0
    715a:	a3 9f       	mul	r26, r19
    715c:	70 0d       	add	r23, r0
    715e:	81 1d       	adc	r24, r1
    7160:	11 24       	eor	r1, r1
    7162:	91 1d       	adc	r25, r1
    7164:	b2 9f       	mul	r27, r18
    7166:	70 0d       	add	r23, r0
    7168:	81 1d       	adc	r24, r1
    716a:	11 24       	eor	r1, r1
    716c:	91 1d       	adc	r25, r1
    716e:	08 95       	ret

00007170 <malloc>:
    7170:	0f 93       	push	r16
    7172:	1f 93       	push	r17
    7174:	cf 93       	push	r28
    7176:	df 93       	push	r29
    7178:	82 30       	cpi	r24, 0x02	; 2
    717a:	91 05       	cpc	r25, r1
    717c:	10 f4       	brcc	.+4      	; 0x7182 <malloc+0x12>
    717e:	82 e0       	ldi	r24, 0x02	; 2
    7180:	90 e0       	ldi	r25, 0x00	; 0
    7182:	e0 91 ee 08 	lds	r30, 0x08EE	; 0x8008ee <__flp>
    7186:	f0 91 ef 08 	lds	r31, 0x08EF	; 0x8008ef <__flp+0x1>
    718a:	20 e0       	ldi	r18, 0x00	; 0
    718c:	30 e0       	ldi	r19, 0x00	; 0
    718e:	a0 e0       	ldi	r26, 0x00	; 0
    7190:	b0 e0       	ldi	r27, 0x00	; 0
    7192:	30 97       	sbiw	r30, 0x00	; 0
    7194:	19 f1       	breq	.+70     	; 0x71dc <malloc+0x6c>
    7196:	40 81       	ld	r20, Z
    7198:	51 81       	ldd	r21, Z+1	; 0x01
    719a:	02 81       	ldd	r16, Z+2	; 0x02
    719c:	13 81       	ldd	r17, Z+3	; 0x03
    719e:	48 17       	cp	r20, r24
    71a0:	59 07       	cpc	r21, r25
    71a2:	c8 f0       	brcs	.+50     	; 0x71d6 <malloc+0x66>
    71a4:	84 17       	cp	r24, r20
    71a6:	95 07       	cpc	r25, r21
    71a8:	69 f4       	brne	.+26     	; 0x71c4 <malloc+0x54>
    71aa:	10 97       	sbiw	r26, 0x00	; 0
    71ac:	31 f0       	breq	.+12     	; 0x71ba <malloc+0x4a>
    71ae:	12 96       	adiw	r26, 0x02	; 2
    71b0:	0c 93       	st	X, r16
    71b2:	12 97       	sbiw	r26, 0x02	; 2
    71b4:	13 96       	adiw	r26, 0x03	; 3
    71b6:	1c 93       	st	X, r17
    71b8:	27 c0       	rjmp	.+78     	; 0x7208 <malloc+0x98>
    71ba:	00 93 ee 08 	sts	0x08EE, r16	; 0x8008ee <__flp>
    71be:	10 93 ef 08 	sts	0x08EF, r17	; 0x8008ef <__flp+0x1>
    71c2:	22 c0       	rjmp	.+68     	; 0x7208 <malloc+0x98>
    71c4:	21 15       	cp	r18, r1
    71c6:	31 05       	cpc	r19, r1
    71c8:	19 f0       	breq	.+6      	; 0x71d0 <malloc+0x60>
    71ca:	42 17       	cp	r20, r18
    71cc:	53 07       	cpc	r21, r19
    71ce:	18 f4       	brcc	.+6      	; 0x71d6 <malloc+0x66>
    71d0:	9a 01       	movw	r18, r20
    71d2:	bd 01       	movw	r22, r26
    71d4:	ef 01       	movw	r28, r30
    71d6:	df 01       	movw	r26, r30
    71d8:	f8 01       	movw	r30, r16
    71da:	db cf       	rjmp	.-74     	; 0x7192 <malloc+0x22>
    71dc:	21 15       	cp	r18, r1
    71de:	31 05       	cpc	r19, r1
    71e0:	f9 f0       	breq	.+62     	; 0x7220 <malloc+0xb0>
    71e2:	28 1b       	sub	r18, r24
    71e4:	39 0b       	sbc	r19, r25
    71e6:	24 30       	cpi	r18, 0x04	; 4
    71e8:	31 05       	cpc	r19, r1
    71ea:	80 f4       	brcc	.+32     	; 0x720c <malloc+0x9c>
    71ec:	8a 81       	ldd	r24, Y+2	; 0x02
    71ee:	9b 81       	ldd	r25, Y+3	; 0x03
    71f0:	61 15       	cp	r22, r1
    71f2:	71 05       	cpc	r23, r1
    71f4:	21 f0       	breq	.+8      	; 0x71fe <malloc+0x8e>
    71f6:	fb 01       	movw	r30, r22
    71f8:	93 83       	std	Z+3, r25	; 0x03
    71fa:	82 83       	std	Z+2, r24	; 0x02
    71fc:	04 c0       	rjmp	.+8      	; 0x7206 <malloc+0x96>
    71fe:	90 93 ef 08 	sts	0x08EF, r25	; 0x8008ef <__flp+0x1>
    7202:	80 93 ee 08 	sts	0x08EE, r24	; 0x8008ee <__flp>
    7206:	fe 01       	movw	r30, r28
    7208:	32 96       	adiw	r30, 0x02	; 2
    720a:	44 c0       	rjmp	.+136    	; 0x7294 <malloc+0x124>
    720c:	fe 01       	movw	r30, r28
    720e:	e2 0f       	add	r30, r18
    7210:	f3 1f       	adc	r31, r19
    7212:	81 93       	st	Z+, r24
    7214:	91 93       	st	Z+, r25
    7216:	22 50       	subi	r18, 0x02	; 2
    7218:	31 09       	sbc	r19, r1
    721a:	39 83       	std	Y+1, r19	; 0x01
    721c:	28 83       	st	Y, r18
    721e:	3a c0       	rjmp	.+116    	; 0x7294 <malloc+0x124>
    7220:	20 91 ec 08 	lds	r18, 0x08EC	; 0x8008ec <__brkval>
    7224:	30 91 ed 08 	lds	r19, 0x08ED	; 0x8008ed <__brkval+0x1>
    7228:	23 2b       	or	r18, r19
    722a:	41 f4       	brne	.+16     	; 0x723c <malloc+0xcc>
    722c:	20 91 02 02 	lds	r18, 0x0202	; 0x800202 <__malloc_heap_start>
    7230:	30 91 03 02 	lds	r19, 0x0203	; 0x800203 <__malloc_heap_start+0x1>
    7234:	30 93 ed 08 	sts	0x08ED, r19	; 0x8008ed <__brkval+0x1>
    7238:	20 93 ec 08 	sts	0x08EC, r18	; 0x8008ec <__brkval>
    723c:	20 91 00 02 	lds	r18, 0x0200	; 0x800200 <__data_start>
    7240:	30 91 01 02 	lds	r19, 0x0201	; 0x800201 <__data_start+0x1>
    7244:	21 15       	cp	r18, r1
    7246:	31 05       	cpc	r19, r1
    7248:	41 f4       	brne	.+16     	; 0x725a <malloc+0xea>
    724a:	2d b7       	in	r18, 0x3d	; 61
    724c:	3e b7       	in	r19, 0x3e	; 62
    724e:	40 91 04 02 	lds	r20, 0x0204	; 0x800204 <__malloc_margin>
    7252:	50 91 05 02 	lds	r21, 0x0205	; 0x800205 <__malloc_margin+0x1>
    7256:	24 1b       	sub	r18, r20
    7258:	35 0b       	sbc	r19, r21
    725a:	e0 91 ec 08 	lds	r30, 0x08EC	; 0x8008ec <__brkval>
    725e:	f0 91 ed 08 	lds	r31, 0x08ED	; 0x8008ed <__brkval+0x1>
    7262:	e2 17       	cp	r30, r18
    7264:	f3 07       	cpc	r31, r19
    7266:	a0 f4       	brcc	.+40     	; 0x7290 <malloc+0x120>
    7268:	2e 1b       	sub	r18, r30
    726a:	3f 0b       	sbc	r19, r31
    726c:	28 17       	cp	r18, r24
    726e:	39 07       	cpc	r19, r25
    7270:	78 f0       	brcs	.+30     	; 0x7290 <malloc+0x120>
    7272:	ac 01       	movw	r20, r24
    7274:	4e 5f       	subi	r20, 0xFE	; 254
    7276:	5f 4f       	sbci	r21, 0xFF	; 255
    7278:	24 17       	cp	r18, r20
    727a:	35 07       	cpc	r19, r21
    727c:	48 f0       	brcs	.+18     	; 0x7290 <malloc+0x120>
    727e:	4e 0f       	add	r20, r30
    7280:	5f 1f       	adc	r21, r31
    7282:	50 93 ed 08 	sts	0x08ED, r21	; 0x8008ed <__brkval+0x1>
    7286:	40 93 ec 08 	sts	0x08EC, r20	; 0x8008ec <__brkval>
    728a:	81 93       	st	Z+, r24
    728c:	91 93       	st	Z+, r25
    728e:	02 c0       	rjmp	.+4      	; 0x7294 <malloc+0x124>
    7290:	e0 e0       	ldi	r30, 0x00	; 0
    7292:	f0 e0       	ldi	r31, 0x00	; 0
    7294:	cf 01       	movw	r24, r30
    7296:	df 91       	pop	r29
    7298:	cf 91       	pop	r28
    729a:	1f 91       	pop	r17
    729c:	0f 91       	pop	r16
    729e:	08 95       	ret

000072a0 <free>:
    72a0:	cf 93       	push	r28
    72a2:	df 93       	push	r29
    72a4:	00 97       	sbiw	r24, 0x00	; 0
    72a6:	09 f4       	brne	.+2      	; 0x72aa <free+0xa>
    72a8:	81 c0       	rjmp	.+258    	; 0x73ac <free+0x10c>
    72aa:	fc 01       	movw	r30, r24
    72ac:	32 97       	sbiw	r30, 0x02	; 2
    72ae:	13 82       	std	Z+3, r1	; 0x03
    72b0:	12 82       	std	Z+2, r1	; 0x02
    72b2:	a0 91 ee 08 	lds	r26, 0x08EE	; 0x8008ee <__flp>
    72b6:	b0 91 ef 08 	lds	r27, 0x08EF	; 0x8008ef <__flp+0x1>
    72ba:	10 97       	sbiw	r26, 0x00	; 0
    72bc:	81 f4       	brne	.+32     	; 0x72de <free+0x3e>
    72be:	20 81       	ld	r18, Z
    72c0:	31 81       	ldd	r19, Z+1	; 0x01
    72c2:	82 0f       	add	r24, r18
    72c4:	93 1f       	adc	r25, r19
    72c6:	20 91 ec 08 	lds	r18, 0x08EC	; 0x8008ec <__brkval>
    72ca:	30 91 ed 08 	lds	r19, 0x08ED	; 0x8008ed <__brkval+0x1>
    72ce:	28 17       	cp	r18, r24
    72d0:	39 07       	cpc	r19, r25
    72d2:	51 f5       	brne	.+84     	; 0x7328 <free+0x88>
    72d4:	f0 93 ed 08 	sts	0x08ED, r31	; 0x8008ed <__brkval+0x1>
    72d8:	e0 93 ec 08 	sts	0x08EC, r30	; 0x8008ec <__brkval>
    72dc:	67 c0       	rjmp	.+206    	; 0x73ac <free+0x10c>
    72de:	ed 01       	movw	r28, r26
    72e0:	20 e0       	ldi	r18, 0x00	; 0
    72e2:	30 e0       	ldi	r19, 0x00	; 0
    72e4:	ce 17       	cp	r28, r30
    72e6:	df 07       	cpc	r29, r31
    72e8:	40 f4       	brcc	.+16     	; 0x72fa <free+0x5a>
    72ea:	4a 81       	ldd	r20, Y+2	; 0x02
    72ec:	5b 81       	ldd	r21, Y+3	; 0x03
    72ee:	9e 01       	movw	r18, r28
    72f0:	41 15       	cp	r20, r1
    72f2:	51 05       	cpc	r21, r1
    72f4:	f1 f0       	breq	.+60     	; 0x7332 <free+0x92>
    72f6:	ea 01       	movw	r28, r20
    72f8:	f5 cf       	rjmp	.-22     	; 0x72e4 <free+0x44>
    72fa:	d3 83       	std	Z+3, r29	; 0x03
    72fc:	c2 83       	std	Z+2, r28	; 0x02
    72fe:	40 81       	ld	r20, Z
    7300:	51 81       	ldd	r21, Z+1	; 0x01
    7302:	84 0f       	add	r24, r20
    7304:	95 1f       	adc	r25, r21
    7306:	c8 17       	cp	r28, r24
    7308:	d9 07       	cpc	r29, r25
    730a:	59 f4       	brne	.+22     	; 0x7322 <free+0x82>
    730c:	88 81       	ld	r24, Y
    730e:	99 81       	ldd	r25, Y+1	; 0x01
    7310:	84 0f       	add	r24, r20
    7312:	95 1f       	adc	r25, r21
    7314:	02 96       	adiw	r24, 0x02	; 2
    7316:	91 83       	std	Z+1, r25	; 0x01
    7318:	80 83       	st	Z, r24
    731a:	8a 81       	ldd	r24, Y+2	; 0x02
    731c:	9b 81       	ldd	r25, Y+3	; 0x03
    731e:	93 83       	std	Z+3, r25	; 0x03
    7320:	82 83       	std	Z+2, r24	; 0x02
    7322:	21 15       	cp	r18, r1
    7324:	31 05       	cpc	r19, r1
    7326:	29 f4       	brne	.+10     	; 0x7332 <free+0x92>
    7328:	f0 93 ef 08 	sts	0x08EF, r31	; 0x8008ef <__flp+0x1>
    732c:	e0 93 ee 08 	sts	0x08EE, r30	; 0x8008ee <__flp>
    7330:	3d c0       	rjmp	.+122    	; 0x73ac <free+0x10c>
    7332:	e9 01       	movw	r28, r18
    7334:	fb 83       	std	Y+3, r31	; 0x03
    7336:	ea 83       	std	Y+2, r30	; 0x02
    7338:	49 91       	ld	r20, Y+
    733a:	59 91       	ld	r21, Y+
    733c:	c4 0f       	add	r28, r20
    733e:	d5 1f       	adc	r29, r21
    7340:	ec 17       	cp	r30, r28
    7342:	fd 07       	cpc	r31, r29
    7344:	61 f4       	brne	.+24     	; 0x735e <free+0xbe>
    7346:	80 81       	ld	r24, Z
    7348:	91 81       	ldd	r25, Z+1	; 0x01
    734a:	84 0f       	add	r24, r20
    734c:	95 1f       	adc	r25, r21
    734e:	02 96       	adiw	r24, 0x02	; 2
    7350:	e9 01       	movw	r28, r18
    7352:	99 83       	std	Y+1, r25	; 0x01
    7354:	88 83       	st	Y, r24
    7356:	82 81       	ldd	r24, Z+2	; 0x02
    7358:	93 81       	ldd	r25, Z+3	; 0x03
    735a:	9b 83       	std	Y+3, r25	; 0x03
    735c:	8a 83       	std	Y+2, r24	; 0x02
    735e:	e0 e0       	ldi	r30, 0x00	; 0
    7360:	f0 e0       	ldi	r31, 0x00	; 0
    7362:	12 96       	adiw	r26, 0x02	; 2
    7364:	8d 91       	ld	r24, X+
    7366:	9c 91       	ld	r25, X
    7368:	13 97       	sbiw	r26, 0x03	; 3
    736a:	00 97       	sbiw	r24, 0x00	; 0
    736c:	19 f0       	breq	.+6      	; 0x7374 <free+0xd4>
    736e:	fd 01       	movw	r30, r26
    7370:	dc 01       	movw	r26, r24
    7372:	f7 cf       	rjmp	.-18     	; 0x7362 <free+0xc2>
    7374:	8d 91       	ld	r24, X+
    7376:	9c 91       	ld	r25, X
    7378:	11 97       	sbiw	r26, 0x01	; 1
    737a:	9d 01       	movw	r18, r26
    737c:	2e 5f       	subi	r18, 0xFE	; 254
    737e:	3f 4f       	sbci	r19, 0xFF	; 255
    7380:	82 0f       	add	r24, r18
    7382:	93 1f       	adc	r25, r19
    7384:	20 91 ec 08 	lds	r18, 0x08EC	; 0x8008ec <__brkval>
    7388:	30 91 ed 08 	lds	r19, 0x08ED	; 0x8008ed <__brkval+0x1>
    738c:	28 17       	cp	r18, r24
    738e:	39 07       	cpc	r19, r25
    7390:	69 f4       	brne	.+26     	; 0x73ac <free+0x10c>
    7392:	30 97       	sbiw	r30, 0x00	; 0
    7394:	29 f4       	brne	.+10     	; 0x73a0 <free+0x100>
    7396:	10 92 ef 08 	sts	0x08EF, r1	; 0x8008ef <__flp+0x1>
    739a:	10 92 ee 08 	sts	0x08EE, r1	; 0x8008ee <__flp>
    739e:	02 c0       	rjmp	.+4      	; 0x73a4 <free+0x104>
    73a0:	13 82       	std	Z+3, r1	; 0x03
    73a2:	12 82       	std	Z+2, r1	; 0x02
    73a4:	b0 93 ed 08 	sts	0x08ED, r27	; 0x8008ed <__brkval+0x1>
    73a8:	a0 93 ec 08 	sts	0x08EC, r26	; 0x8008ec <__brkval>
    73ac:	df 91       	pop	r29
    73ae:	cf 91       	pop	r28
    73b0:	08 95       	ret

000073b2 <realloc>:
    73b2:	6f 92       	push	r6
    73b4:	7f 92       	push	r7
    73b6:	8f 92       	push	r8
    73b8:	9f 92       	push	r9
    73ba:	af 92       	push	r10
    73bc:	bf 92       	push	r11
    73be:	cf 92       	push	r12
    73c0:	df 92       	push	r13
    73c2:	ef 92       	push	r14
    73c4:	ff 92       	push	r15
    73c6:	0f 93       	push	r16
    73c8:	1f 93       	push	r17
    73ca:	cf 93       	push	r28
    73cc:	df 93       	push	r29
    73ce:	00 97       	sbiw	r24, 0x00	; 0
    73d0:	81 f4       	brne	.+32     	; 0x73f2 <realloc+0x40>
    73d2:	cb 01       	movw	r24, r22
    73d4:	df 91       	pop	r29
    73d6:	cf 91       	pop	r28
    73d8:	1f 91       	pop	r17
    73da:	0f 91       	pop	r16
    73dc:	ff 90       	pop	r15
    73de:	ef 90       	pop	r14
    73e0:	df 90       	pop	r13
    73e2:	cf 90       	pop	r12
    73e4:	bf 90       	pop	r11
    73e6:	af 90       	pop	r10
    73e8:	9f 90       	pop	r9
    73ea:	8f 90       	pop	r8
    73ec:	7f 90       	pop	r7
    73ee:	6f 90       	pop	r6
    73f0:	bf ce       	rjmp	.-642    	; 0x7170 <malloc>
    73f2:	fc 01       	movw	r30, r24
    73f4:	e6 0f       	add	r30, r22
    73f6:	f7 1f       	adc	r31, r23
    73f8:	9c 01       	movw	r18, r24
    73fa:	22 50       	subi	r18, 0x02	; 2
    73fc:	31 09       	sbc	r19, r1
    73fe:	e2 17       	cp	r30, r18
    7400:	f3 07       	cpc	r31, r19
    7402:	08 f4       	brcc	.+2      	; 0x7406 <realloc+0x54>
    7404:	a5 c0       	rjmp	.+330    	; 0x7550 <realloc+0x19e>
    7406:	ec 01       	movw	r28, r24
    7408:	d9 01       	movw	r26, r18
    740a:	0d 91       	ld	r16, X+
    740c:	1c 91       	ld	r17, X
    740e:	11 97       	sbiw	r26, 0x01	; 1
    7410:	06 17       	cp	r16, r22
    7412:	17 07       	cpc	r17, r23
    7414:	a8 f0       	brcs	.+42     	; 0x7440 <realloc+0x8e>
    7416:	05 30       	cpi	r16, 0x05	; 5
    7418:	11 05       	cpc	r17, r1
    741a:	08 f4       	brcc	.+2      	; 0x741e <realloc+0x6c>
    741c:	97 c0       	rjmp	.+302    	; 0x754c <realloc+0x19a>
    741e:	c8 01       	movw	r24, r16
    7420:	04 97       	sbiw	r24, 0x04	; 4
    7422:	86 17       	cp	r24, r22
    7424:	97 07       	cpc	r25, r23
    7426:	08 f4       	brcc	.+2      	; 0x742a <realloc+0x78>
    7428:	91 c0       	rjmp	.+290    	; 0x754c <realloc+0x19a>
    742a:	02 50       	subi	r16, 0x02	; 2
    742c:	11 09       	sbc	r17, r1
    742e:	06 1b       	sub	r16, r22
    7430:	17 0b       	sbc	r17, r23
    7432:	01 93       	st	Z+, r16
    7434:	11 93       	st	Z+, r17
    7436:	6d 93       	st	X+, r22
    7438:	7c 93       	st	X, r23
    743a:	cf 01       	movw	r24, r30
    743c:	31 df       	rcall	.-414    	; 0x72a0 <free>
    743e:	86 c0       	rjmp	.+268    	; 0x754c <realloc+0x19a>
    7440:	5b 01       	movw	r10, r22
    7442:	a0 1a       	sub	r10, r16
    7444:	b1 0a       	sbc	r11, r17
    7446:	4c 01       	movw	r8, r24
    7448:	80 0e       	add	r8, r16
    744a:	91 1e       	adc	r9, r17
    744c:	a0 91 ee 08 	lds	r26, 0x08EE	; 0x8008ee <__flp>
    7450:	b0 91 ef 08 	lds	r27, 0x08EF	; 0x8008ef <__flp+0x1>
    7454:	61 2c       	mov	r6, r1
    7456:	71 2c       	mov	r7, r1
    7458:	e1 2c       	mov	r14, r1
    745a:	f1 2c       	mov	r15, r1
    745c:	10 97       	sbiw	r26, 0x00	; 0
    745e:	09 f4       	brne	.+2      	; 0x7462 <realloc+0xb0>
    7460:	46 c0       	rjmp	.+140    	; 0x74ee <realloc+0x13c>
    7462:	8d 91       	ld	r24, X+
    7464:	9c 91       	ld	r25, X
    7466:	11 97       	sbiw	r26, 0x01	; 1
    7468:	a8 15       	cp	r26, r8
    746a:	b9 05       	cpc	r27, r9
    746c:	b1 f5       	brne	.+108    	; 0x74da <realloc+0x128>
    746e:	6c 01       	movw	r12, r24
    7470:	42 e0       	ldi	r20, 0x02	; 2
    7472:	c4 0e       	add	r12, r20
    7474:	d1 1c       	adc	r13, r1
    7476:	ca 14       	cp	r12, r10
    7478:	db 04       	cpc	r13, r11
    747a:	78 f1       	brcs	.+94     	; 0x74da <realloc+0x128>
    747c:	4c 01       	movw	r8, r24
    747e:	8a 18       	sub	r8, r10
    7480:	9b 08       	sbc	r9, r11
    7482:	64 01       	movw	r12, r8
    7484:	42 e0       	ldi	r20, 0x02	; 2
    7486:	c4 0e       	add	r12, r20
    7488:	d1 1c       	adc	r13, r1
    748a:	12 96       	adiw	r26, 0x02	; 2
    748c:	bc 90       	ld	r11, X
    748e:	12 97       	sbiw	r26, 0x02	; 2
    7490:	13 96       	adiw	r26, 0x03	; 3
    7492:	ac 91       	ld	r26, X
    7494:	b5 e0       	ldi	r27, 0x05	; 5
    7496:	cb 16       	cp	r12, r27
    7498:	d1 04       	cpc	r13, r1
    749a:	40 f0       	brcs	.+16     	; 0x74ac <realloc+0xfa>
    749c:	b2 82       	std	Z+2, r11	; 0x02
    749e:	a3 83       	std	Z+3, r26	; 0x03
    74a0:	91 82       	std	Z+1, r9	; 0x01
    74a2:	80 82       	st	Z, r8
    74a4:	d9 01       	movw	r26, r18
    74a6:	6d 93       	st	X+, r22
    74a8:	7c 93       	st	X, r23
    74aa:	09 c0       	rjmp	.+18     	; 0x74be <realloc+0x10c>
    74ac:	0e 5f       	subi	r16, 0xFE	; 254
    74ae:	1f 4f       	sbci	r17, 0xFF	; 255
    74b0:	80 0f       	add	r24, r16
    74b2:	91 1f       	adc	r25, r17
    74b4:	f9 01       	movw	r30, r18
    74b6:	91 83       	std	Z+1, r25	; 0x01
    74b8:	80 83       	st	Z, r24
    74ba:	eb 2d       	mov	r30, r11
    74bc:	fa 2f       	mov	r31, r26
    74be:	e1 14       	cp	r14, r1
    74c0:	f1 04       	cpc	r15, r1
    74c2:	31 f0       	breq	.+12     	; 0x74d0 <realloc+0x11e>
    74c4:	d7 01       	movw	r26, r14
    74c6:	13 96       	adiw	r26, 0x03	; 3
    74c8:	fc 93       	st	X, r31
    74ca:	ee 93       	st	-X, r30
    74cc:	12 97       	sbiw	r26, 0x02	; 2
    74ce:	3e c0       	rjmp	.+124    	; 0x754c <realloc+0x19a>
    74d0:	f0 93 ef 08 	sts	0x08EF, r31	; 0x8008ef <__flp+0x1>
    74d4:	e0 93 ee 08 	sts	0x08EE, r30	; 0x8008ee <__flp>
    74d8:	39 c0       	rjmp	.+114    	; 0x754c <realloc+0x19a>
    74da:	68 16       	cp	r6, r24
    74dc:	79 06       	cpc	r7, r25
    74de:	08 f4       	brcc	.+2      	; 0x74e2 <realloc+0x130>
    74e0:	3c 01       	movw	r6, r24
    74e2:	7d 01       	movw	r14, r26
    74e4:	12 96       	adiw	r26, 0x02	; 2
    74e6:	0d 90       	ld	r0, X+
    74e8:	bc 91       	ld	r27, X
    74ea:	a0 2d       	mov	r26, r0
    74ec:	b7 cf       	rjmp	.-146    	; 0x745c <realloc+0xaa>
    74ee:	80 91 ec 08 	lds	r24, 0x08EC	; 0x8008ec <__brkval>
    74f2:	90 91 ed 08 	lds	r25, 0x08ED	; 0x8008ed <__brkval+0x1>
    74f6:	88 16       	cp	r8, r24
    74f8:	99 06       	cpc	r9, r25
    74fa:	e1 f4       	brne	.+56     	; 0x7534 <realloc+0x182>
    74fc:	66 16       	cp	r6, r22
    74fe:	77 06       	cpc	r7, r23
    7500:	c8 f4       	brcc	.+50     	; 0x7534 <realloc+0x182>
    7502:	80 91 00 02 	lds	r24, 0x0200	; 0x800200 <__data_start>
    7506:	90 91 01 02 	lds	r25, 0x0201	; 0x800201 <__data_start+0x1>
    750a:	00 97       	sbiw	r24, 0x00	; 0
    750c:	41 f4       	brne	.+16     	; 0x751e <realloc+0x16c>
    750e:	8d b7       	in	r24, 0x3d	; 61
    7510:	9e b7       	in	r25, 0x3e	; 62
    7512:	40 91 04 02 	lds	r20, 0x0204	; 0x800204 <__malloc_margin>
    7516:	50 91 05 02 	lds	r21, 0x0205	; 0x800205 <__malloc_margin+0x1>
    751a:	84 1b       	sub	r24, r20
    751c:	95 0b       	sbc	r25, r21
    751e:	e8 17       	cp	r30, r24
    7520:	f9 07       	cpc	r31, r25
    7522:	b0 f4       	brcc	.+44     	; 0x7550 <realloc+0x19e>
    7524:	f0 93 ed 08 	sts	0x08ED, r31	; 0x8008ed <__brkval+0x1>
    7528:	e0 93 ec 08 	sts	0x08EC, r30	; 0x8008ec <__brkval>
    752c:	f9 01       	movw	r30, r18
    752e:	71 83       	std	Z+1, r23	; 0x01
    7530:	60 83       	st	Z, r22
    7532:	0c c0       	rjmp	.+24     	; 0x754c <realloc+0x19a>
    7534:	cb 01       	movw	r24, r22
    7536:	1c de       	rcall	.-968    	; 0x7170 <malloc>
    7538:	7c 01       	movw	r14, r24
    753a:	00 97       	sbiw	r24, 0x00	; 0
    753c:	49 f0       	breq	.+18     	; 0x7550 <realloc+0x19e>
    753e:	a8 01       	movw	r20, r16
    7540:	be 01       	movw	r22, r28
    7542:	17 d0       	rcall	.+46     	; 0x7572 <memcpy>
    7544:	ce 01       	movw	r24, r28
    7546:	ac de       	rcall	.-680    	; 0x72a0 <free>
    7548:	c7 01       	movw	r24, r14
    754a:	04 c0       	rjmp	.+8      	; 0x7554 <realloc+0x1a2>
    754c:	ce 01       	movw	r24, r28
    754e:	02 c0       	rjmp	.+4      	; 0x7554 <realloc+0x1a2>
    7550:	80 e0       	ldi	r24, 0x00	; 0
    7552:	90 e0       	ldi	r25, 0x00	; 0
    7554:	df 91       	pop	r29
    7556:	cf 91       	pop	r28
    7558:	1f 91       	pop	r17
    755a:	0f 91       	pop	r16
    755c:	ff 90       	pop	r15
    755e:	ef 90       	pop	r14
    7560:	df 90       	pop	r13
    7562:	cf 90       	pop	r12
    7564:	bf 90       	pop	r11
    7566:	af 90       	pop	r10
    7568:	9f 90       	pop	r9
    756a:	8f 90       	pop	r8
    756c:	7f 90       	pop	r7
    756e:	6f 90       	pop	r6
    7570:	08 95       	ret

00007572 <memcpy>:
    7572:	fb 01       	movw	r30, r22
    7574:	dc 01       	movw	r26, r24
    7576:	02 c0       	rjmp	.+4      	; 0x757c <memcpy+0xa>
    7578:	01 90       	ld	r0, Z+
    757a:	0d 92       	st	X+, r0
    757c:	41 50       	subi	r20, 0x01	; 1
    757e:	50 40       	sbci	r21, 0x00	; 0
    7580:	d8 f7       	brcc	.-10     	; 0x7578 <memcpy+0x6>
    7582:	08 95       	ret

00007584 <strcpy>:
    7584:	fb 01       	movw	r30, r22
    7586:	dc 01       	movw	r26, r24
    7588:	01 90       	ld	r0, Z+
    758a:	0d 92       	st	X+, r0
    758c:	00 20       	and	r0, r0
    758e:	e1 f7       	brne	.-8      	; 0x7588 <strcpy+0x4>
    7590:	08 95       	ret

00007592 <__do_global_dtors>:
    7592:	19 e0       	ldi	r17, 0x09	; 9
    7594:	ca e8       	ldi	r28, 0x8A	; 138
    7596:	d9 e0       	ldi	r29, 0x09	; 9
    7598:	00 e0       	ldi	r16, 0x00	; 0
    759a:	05 c0       	rjmp	.+10     	; 0x75a6 <__do_global_dtors+0x14>
    759c:	80 2f       	mov	r24, r16
    759e:	fe 01       	movw	r30, r28
    75a0:	c6 dd       	rcall	.-1140   	; 0x712e <__tablejump2__>
    75a2:	21 96       	adiw	r28, 0x01	; 1
    75a4:	01 1d       	adc	r16, r1
    75a6:	ce 38       	cpi	r28, 0x8E	; 142
    75a8:	d1 07       	cpc	r29, r17
    75aa:	80 e0       	ldi	r24, 0x00	; 0
    75ac:	08 07       	cpc	r16, r24
    75ae:	b1 f7       	brne	.-20     	; 0x759c <__do_global_dtors+0xa>
    75b0:	f8 94       	cli

000075b2 <__stop_program>:
    75b2:	ff cf       	rjmp	.-2      	; 0x75b2 <__stop_program>
